(lp0
(dp1
Vrating
p2
V
p3
sVdescription
p4
g3
sVtitle
p5
VHospital Orderlies
p6
sVurl
p7
(dp8
Vurl
p9
Vhttp://www.imdb.com/title/tt9200
p10
ssVposter
p11
(dp12
Vlarge
p13
Vhttp://ia.media-imdb.com/images/G/01/imdb/images/logos/imdb_fb_logo-1730868325._CB514892123_.png_V1_.jpg
p14
sVthumb
p15
g3
ssVrelease_date
p16
V1918-06-09
p17
sVcontent_rating
p18
g3
sVoriginal_title
p19
g3
sVwriters
p20
(lp21
VBud Fisher
p22
asVimdb_id
p23
Vtt0009200
p24
sVdirector
p25
VBud Fisher
p26
sVcast
p27
(lp28
sVlength
p29
g3
sVrating_count
p30
g3
sVstoryline
p31
g3
sVstars
p32
(lp33
sVyear
p34
V1918
p35
sVgenre
p36
(lp37
VAnimation
p38
aVComedy
p39
aVShort
p40
asVtrailer
p41
(lp42
sVmetadata
p43
(dp44
Vasp_retio
p45
V1.33 : 1
p46
sVsound_mix
p47
(lp48
VSilent
p49
asVgross
p50
g3
sVcountries
p51
(lp52
VUSA
p53
asVbudget
p54
g3
sVlanguages
p55
(lp56
sVfilming_locations
p57
(lp58
sValso_known_as
p59
(lp60
ssa(dp61
Vrating
p62
g3
sVdescription
p63
g3
sVtitle
p64
VHotel De Mutt
p65
sVurl
p66
(dp67
Vurl
p68
Vhttp://www.imdb.com/title/tt9201
p69
ssVposter
p70
(dp71
Vlarge
p72
Vhttp://ia.media-imdb.com/images/G/01/imdb/images/logos/imdb_fb_logo-1730868325._CB514892123_.png_V1_.jpg
p73
sVthumb
p74
g3
ssVrelease_date
p75
V1918-07-28
p76
sVcontent_rating
p77
g3
sVoriginal_title
p78
g3
sVwriters
p79
(lp80
VBud Fisher
p81
asVimdb_id
p82
Vtt0009201
p83
sVdirector
p84
VBud Fisher
p85
sVcast
p86
(lp87
sVlength
p88
g3
sVrating_count
p89
g3
sVstoryline
p90
g3
sVstars
p91
(lp92
sVyear
p93
V1918
p94
sVgenre
p95
(lp96
VAnimation
p97
aVComedy
p98
aVShort
p99
asVtrailer
p100
(lp101
sVmetadata
p102
(dp103
Vasp_retio
p104
V1.33 : 1
p105
sVsound_mix
p106
(lp107
VSilent
p108
asVgross
p109
g3
sVcountries
p110
(lp111
VUSA
p112
asVbudget
p113
g3
sVlanguages
p114
(lp115
sVfilming_locations
p116
(lp117
sValso_known_as
p118
(lp119
ssa(dp120
Vrating
p121
g3
sVdescription
p122
g3
sVtitle
p123
VThe House of Glass
p124
sVurl
p125
(dp126
Vurl
p127
Vhttp://www.imdb.com/title/tt9202
p128
ssVposter
p129
(dp130
Vlarge
p131
Vhttp://ia.media-imdb.com/images/G/01/imdb/images/logos/imdb_fb_logo-1730868325._CB514892123_.png_V1_.jpg
p132
sVthumb
p133
g3
ssVrelease_date
p134
V1918-02
p135
sVcontent_rating
p136
g3
sVoriginal_title
p137
g3
sVwriters
p138
(lp139
VMax Marcin
p140
aVCharles E. Whittaker
p141
asVimdb_id
p142
Vtt0009202
p143
sVdirector
p144
VEmile Chautard
p145
sVcast
p146
(lp147
(dp148
Vlink
p149
Vhttp://www.imdb.com/name/nm0949403/?ref_=tt_cl_t1
p150
sVimage
p151
Vhttps://images-na.ssl-images-amazon.com/images/M/MV5BMTQ5MzE2Njk1NV5BMl5BanBnXkFtZTgwNDE2OTY3MTE@._V1_UY44_CR0,0,32,44_AL_.jpg
p152
sVcharacter
p153
VMargaret Case
p154
sVname
p155
VClara Kimball Young
p156
sa(dp157
Vlink
p158
Vhttp://www.imdb.com/name/nm0872200/?ref_=tt_cl_t2
p159
sVimage
p160
Vhttps://images-na.ssl-images-amazon.com/images/M/MV5BOWEyMjM5MzMtNTYxNC00N2MyLTk4ZDYtZDhjOWY1YWMzZjMwXkEyXkFqcGdeQXVyMzI5NDcxNzI@._UY317_CR16,0,214,317_AL_.jpg
p161
sVcharacter
p162
VJames Burke
p163
sVname
p164
VPell Trenton
p165
sa(dp166
Vlink
p167
Vhttp://www.imdb.com/name/nm0318443/?ref_=tt_cl_t3
p168
sVimage
p169
g3
sVcharacter
p170
VHarvey Lake
p171
sVname
p172
VCorliss Giles
p173
sa(dp174
Vlink
p175
Vhttp://www.imdb.com/name/nm0453799/?ref_=tt_cl_t4
p176
sVimage
p177
Vhttps://images-na.ssl-images-amazon.com/images/M/MV5BM2RhMTMxOWUtNmNlNy00NDkyLTkwYTgtMDViNjE4NGNhNjkxXkEyXkFqcGdeQXVyMzI5NDcxNzI@._UY317_CR16,0,214,317_AL_.jpg
p178
sVcharacter
p179
VLawyer McClellan
p180
sVname
p181
VEdward Kimball
p182
sa(dp183
Vlink
p184
Vhttp://www.imdb.com/name/nm0480814/?ref_=tt_cl_t5
p185
sVimage
p186
g3
sVcharacter
p187
VDirector Atwood       (as James T. Laffey)
p188
sVname
p189
VJames Laffey
p190
sa(dp191
Vlink
p192
Vhttp://www.imdb.com/name/nm0755545/?ref_=tt_cl_t6
p193
sVimage
p194
g3
sVcharacter
p195
VLandlady
p196
sVname
p197
VJosie Sadler
p198
sa(dp199
Vlink
p200
Vhttp://www.imdb.com/name/nm0782999/?ref_=tt_cl_t7
p201
sVimage
p202
g3
sVcharacter
p203
VDetective Carroll
p204
sVname
p205
VNorman Selby
p206
sa(dp207
Vlink
p208
Vhttp://www.imdb.com/name/nm0910465/?ref_=tt_cl_t8
p209
sVimage
p210
g3
sVcharacter
p211
VDetective Crowley
p212
sVname
p213
VWilliam Waltman
p214
sa(dp215
Vlink
p216
Vhttp://www.imdb.com/name/nm0121829/?ref_=tt_cl_t9
p217
sVimage
p218
g3
sVcharacter
p219
VNellie, the Maid
p220
sVname
p221
VPeggy Burke
p222
sa(dp223
Vlink
p224
Vhttp://www.imdb.com/name/nm0275922/?ref_=tt_cl_t10
p225
sVimage
p226
g3
sVcharacter
p227
VEdith, the Maid
p228
sVname
p229
VDoris Field
p230
sasVlength
p231
g3
sVrating_count
p232
g3
sVstoryline
p233
g3
sVstars
p234
(lp235
VClara Kimball Young
p236
aVPell Trenton
p237
aVCorliss Giles
p238
asVyear
p239
V1918
p240
sVgenre
p241
(lp242
VDrama
p243
asVtrailer
p244
(lp245
sVmetadata
p246
(dp247
Vasp_retio
p248
V1.33 : 1
p249
sVsound_mix
p250
(lp251
VSilent
p252
asVgross
p253
g3
sVcountries
p254
(lp255
VUSA
p256
asVbudget
p257
g3
sVlanguages
p258
(lp259
VEnglish
p260
asVfilming_locations
p261
(lp262
VNew York
p263
aVUSA
p264
asValso_known_as
p265
(lp266
VLa maison de verre
p267
assa(dp268
Vrating
p269
g3
sVdescription
p270
g3
sVtitle
p271
VThe House of Gold
p272
sVurl
p273
(dp274
Vurl
p275
Vhttp://www.imdb.com/title/tt9203
p276
ssVposter
p277
(dp278
Vlarge
p279
Vhttp://ia.media-imdb.com/images/G/01/imdb/images/logos/imdb_fb_logo-1730868325._CB514892123_.png_V1_.jpg
p280
sVthumb
p281
g3
ssVrelease_date
p282
V1918-06-17
p283
sVcontent_rating
p284
g3
sVoriginal_title
p285
g3
sVwriters
p286
(lp287
VKatharine Kavanaugh
p288
aVJune Mathis
p289
asVimdb_id
p290
Vtt0009203
p291
sVdirector
p292
VEdwin Carewe
p293
sVcast
p294
(lp295
(dp296
Vlink
p297
Vhttp://www.imdb.com/name/nm0917575/?ref_=tt_cl_t1
p298
sVimage
p299
Vhttps://images-na.ssl-images-amazon.com/images/M/MV5BMzJmM2NiY2MtMjZlZi00NjVmLTlkOTYtYjkzYTZlMzRmMTYwXkEyXkFqcGdeQXVyNTk5NzQ5Ng@@._V1_UY44_CR3,0,32,44_AL_.jpg
p300
sVcharacter
p301
VPamela Martin
p302
sVname
p303
VEmmy Wehlen
p304
sa(dp305
Vlink
p306
Vhttp://www.imdb.com/name/nm0453059/?ref_=tt_cl_t2
p307
sVimage
p308
Vhttps://images-na.ssl-images-amazon.com/images/M/MV5BYWYyNGExNTItYmQ1OC00OTYyLThhMmYtNmM4YzhkOTZhMWE2XkEyXkFqcGdeQXVyMzI5NDcxNzI@._V1_UY44_CR0,0,32,44_AL_.jpg
p309
sVcharacter
p310
VDouglas Martin /              Gilbert Martin
p311
sVname
p312
VJoseph Kilgour
p313
sa(dp314
Vlink
p315
Vhttp://www.imdb.com/name/nm0860216/?ref_=tt_cl_t3
p316
sVimage
p317
Vhttps://images-na.ssl-images-amazon.com/images/M/MV5BZDIwN2U0NmEtNjcyNC00ZDA2LThiZjItZmVkNTIzZTc4ODdjXkEyXkFqcGdeQXVyMzI5NDcxNzI@._V1_UY44_CR2,0,32,44_AL_.jpg
p318
sVcharacter
p319
VFrank Steele
p320
sVname
p321
VHugh Thompson
p322
sa(dp323
Vlink
p324
Vhttp://www.imdb.com/name/nm0512164/?ref_=tt_cl_t4
p325
sVimage
p326
Vhttps://images-na.ssl-images-amazon.com/images/M/MV5BNDkxZjZkMTEtMzQ5My00Njg0LTk1OWEtNTgyYTU4NGEzNGUwXkEyXkFqcGdeQXVyMDUyOTUyNQ@@._V1_UY44_CR11,0,32,44_AL_.jpg
p327
sVcharacter
p328
VMrs. Stanley Cartwright
p329
sVname
p330
VHelen Lindroth
p331
sa(dp332
Vlink
p333
Vhttp://www.imdb.com/name/nm0384508/?ref_=tt_cl_t5
p334
sVimage
p335
g3
sVcharacter
p336
VMrs. Allicia Temple       (as Maud Hill)
p337
sVname
p338
VMaude Hill
p339
sasVlength
p340
g3
sVrating_count
p341
g3
sVstoryline
p342
g3
sVstars
p343
(lp344
VEmmy Wehlen
p345
aVJoseph Kilgour
p346
aVHugh Thompson
p347
asVyear
p348
V1918
p349
sVgenre
p350
(lp351
VDrama
p352
asVtrailer
p353
(lp354
sVmetadata
p355
(dp356
Vasp_retio
p357
V1.33 : 1
p358
sVsound_mix
p359
(lp360
VSilent
p361
asVgross
p362
g3
sVcountries
p363
(lp364
VUSA
p365
asVbudget
p366
g3
sVlanguages
p367
(lp368
sVfilming_locations
p369
(lp370
sValso_known_as
p371
(lp372
VA Casa do Ouro
p373
assa(dp374
Vrating
p375
V7.0
p376
sVdescription
p377
VA young heiress of an American gun factory is threatened by a masked man after her father was murdered. This criminal might be a member of her family or a German agent, who wants to get ...\u000a                    See full summary
p378
sVtitle
p379
VThe House of Hate
p380
sVurl
p381
(dp382
Vurl
p383
Vhttp://www.imdb.com/title/tt9204
p384
ssVposter
p385
(dp386
Vlarge
p387
Vhttps://images-na.ssl-images-amazon.com/images/M/MV5BMTc5NDAwNDY2NF5BMl5BanBnXkFtZTgwNTQzNjI1NDE@._V1_.jpg
p388
sVthumb
p389
Vhttps://images-na.ssl-images-amazon.com/images/M/MV5BMTc5NDAwNDY2NF5BMl5BanBnXkFtZTgwNTQzNjI1NDE@._V1_UY268_CR5,0,182,268_AL_.jpg
p390
ssVrelease_date
p391
V1918-03-10
p392
sVcontent_rating
p393
g3
sVoriginal_title
p394
g3
sVwriters
p395
(lp396
VCharles Logue
p397
aVBertram Millhauser
p398
asVimdb_id
p399
Vtt0009204
p400
sVdirector
p401
VGeorge B. Seitz
p402
sVcast
p403
(lp404
(dp405
Vlink
p406
Vhttp://www.imdb.com/name/nm0925310/?ref_=tt_cl_t1
p407
sVimage
p408
Vhttps://images-na.ssl-images-amazon.com/images/M/MV5BMjE0NDY4ODE5Ml5BMl5BanBnXkFtZTgwNjM2OTY3MTE@._V1_UY44_CR2,0,32,44_AL_.jpg
p409
sVcharacter
p410
VPearl Grant (Waldon) /              Jenny Acton
p411
sVname
p412
VPearl White
p413
sa(dp414
Vlink
p415
Vhttp://www.imdb.com/name/nm0603875/?ref_=tt_cl_t2
p416
sVimage
p417
Vhttps://images-na.ssl-images-amazon.com/images/M/MV5BMTYyMzM2NTcyMF5BMl5BanBnXkFtZTgwMTk2MDU1MzE@._V1._CR108,135,532,720_UY44_CR0,0,32,44_AL_.jpg
p418
sVcharacter
p419
VHarvey 'Harry' Gresham
p420
sVname
p421
VAntonio Moreno
p422
sa(dp423
Vlink
p424
Vhttp://www.imdb.com/name/nm0227022/?ref_=tt_cl_t3
p425
sVimage
p426
g3
sVcharacter
p427
VHaynes Waldon       (as John Webb Dillon)
p428
sVname
p429
VJohn Webb Dillion
p430
sa(dp431
Vlink
p432
Vhttp://www.imdb.com/name/nm0166399/?ref_=tt_cl_t4
p433
sVimage
p434
g3
sVcharacter
p435
VEzra Waldon
p436
sVname
p437
VPaul Clerget
p438
sa(dp439
Vlink
p440
Vhttp://www.imdb.com/name/nm0788382/?ref_=tt_cl_t5
p441
sVimage
p442
g3
sVcharacter
p443
VNaomi Waldon
p444
sVname
p445
VPeggy Shanor
p446
sa(dp447
Vlink
p448
Vhttp://www.imdb.com/name/nm0319599/?ref_=tt_cl_t6
p449
sVimage
p450
Vhttps://images-na.ssl-images-amazon.com/images/M/MV5BMGI1OTkyNjktMzE1OC00YjBmLTgwM2UtNWQzMTBjZTBiYmQ1XkEyXkFqcGdeQXVyMDUyOTUyNQ@@._V1_UY44_CR12,0,32,44_AL_.jpg
p451
sVcharacter
p452
VWinthrop Waldon       (as John Gilmour)
p453
sVname
p454
VJ.H. Gilmour
p455
sa(dp456
Vlink
p457
Vhttp://www.imdb.com/name/nm0118598/?ref_=tt_cl_t7
p458
sVimage
p459
Vhttps://images-na.ssl-images-amazon.com/images/M/MV5BYTZmZTVhYTAtNzA2ZC00YzdjLTgxMzUtNzViMjhkOWVjM2RlXkEyXkFqcGdeQXVyMzI5NDcxNzI@._V1_UY44_CR2,0,32,44_AL_.jpg
p460
sVcharacter
p461
VRandolph Waldon
p462
sVname
p463
VFloyd Buckley
p464
sa(dp465
Vlink
p466
Vhttp://www.imdb.com/name/nm0149484/?ref_=tt_cl_t8
p467
sVimage
p468
Vhttps://images-na.ssl-images-amazon.com/images/M/MV5BZjdhODZhMjktZTFkOC00ODZmLThlZGEtZmE5MzJiZTUwNDU5XkEyXkFqcGdeQXVyMDUyOTUyNQ@@._UY317_CR16,0,214,317_AL_.jpg
p469
sVcharacter
p470
VQueenie Kate
p471
sVname
p472
VHelene Chadwick
p473
sa(dp474
Vlink
p475
Vhttp://www.imdb.com/name/nm0659947/?ref_=tt_cl_t9
p476
sVimage
p477
Vhttps://images-na.ssl-images-amazon.com/images/M/MV5BNTQ4ZTRlYmYtY2NkYy00ZTg2LTk2OTMtMjEwMzJkZmNiZDYwL2ltYWdlL2ltYWdlXkEyXkFqcGdeQXVyMzI5NDcxNzI@._V1_UY44_CR2,0,32,44_AL_.jpg
p478
sVcharacter
p479
VPrison Warden of Death Row
p480
sVname
p481
VPaul Panzer
p482
sa(dp483
Vlink
p484
Vhttp://www.imdb.com/name/nm0938464/?ref_=tt_cl_t10
p485
sVimage
p486
Vhttps://images-na.ssl-images-amazon.com/images/M/MV5BMTUzMzEwMzQwMF5BMl5BanBnXkFtZTgwOTE3NDQ3MTE@._V1_UY44_CR13,0,32,44_AL_.jpg
p487
sVcharacter
p488
VPatch-eye Pete
p489
sVname
p490
VLouis Wolheim
p491
sa(dp492
Vlink
p493
Vhttp://www.imdb.com/name/nm0227053/?ref_=tt_cl_t11
p494
sVimage
p495
g3
sVcharacter
p496
g3
sVname
p497
VPaul Dillon
p498
sa(dp499
Vlink
p500
Vhttp://www.imdb.com/name/nm0192494/?ref_=tt_cl_t12
p501
sVimage
p502
g3
sVcharacter
p503
g3
sVname
p504
VJoe Cuny
p505
sa(dp506
Vlink
p507
Vhttp://www.imdb.com/name/nm0389082/?ref_=tt_cl_t13
p508
sVimage
p509
g3
sVcharacter
p510
g3
sVname
p511
VRuby Hoffman
p512
sasVlength
p513
g3
sVrating_count
p514
V8
p515
sVstoryline
p516
VA young heiress of an American gun factory is threatened by a masked man after her father was murdered. This criminal might be a member of her family or a German agent, who wants to get information about the factory's products, perhaps his mystery has a combined solution - we will probably never know...
p517
sVstars
p518
(lp519
VPearl White
p520
aVAntonio Moreno
p521
aVJohn Webb Dillion
p522
asVyear
p523
V1918
p524
sVgenre
p525
(lp526
VAction
p527
asVtrailer
p528
(lp529
sVmetadata
p530
(dp531
Vasp_retio
p532
V1.33 : 1
p533
sVsound_mix
p534
(lp535
VSilent
p536
asVgross
p537
g3
sVcountries
p538
(lp539
VUSA
p540
asVbudget
p541
g3
sVlanguages
p542
(lp543
VEnglish
p544
asVfilming_locations
p545
(lp546
VFort Lee
p547
aVNew Jersey
p548
aVUSA
p549
asValso_known_as
p550
(lp551
VA Casa do &#211;dio
p552
assa(dp553
Vrating
p554
V7.3
p555
sVdescription
p556
g3
sVtitle
p557
VThe House of Mirth
p558
sVurl
p559
(dp560
Vurl
p561
Vhttp://www.imdb.com/title/tt9205
p562
ssVposter
p563
(dp564
Vlarge
p565
Vhttp://ia.media-imdb.com/images/G/01/imdb/images/logos/imdb_fb_logo-1730868325._CB514892123_.png_V1_.jpg
p566
sVthumb
p567
g3
ssVrelease_date
p568
V1918-08-05
p569
sVcontent_rating
p570
g3
sVoriginal_title
p571
g3
sVwriters
p572
(lp573
VAlbert Capellani
p574
aVJune Mathis
p575
asVimdb_id
p576
Vtt0009205
p577
sVdirector
p578
VAlbert Capellani
p579
sVcast
p580
(lp581
(dp582
Vlink
p583
Vhttp://www.imdb.com/name/nm0364925/?ref_=tt_cl_t1
p584
sVimage
p585
g3
sVcharacter
p586
VLily Bart       (as Katherine Harris Barrymore)
p587
sVname
p588
VKatherine Corri Harris
p589
sa(dp590
Vlink
p591
Vhttp://www.imdb.com/name/nm0464137/?ref_=tt_cl_t2
p592
sVimage
p593
Vhttps://images-na.ssl-images-amazon.com/images/M/MV5BZDRjMWYxYzItZDNmYS00MmVhLTljNzgtZGQwYzgwYTQ1ZjEzXkEyXkFqcGdeQXVyMzI5NDcxNzI@._UY317_CR16,0,214,317_AL_.jpg
p594
sVcharacter
p595
VLawrence Selden
p596
sVname
p597
VHenry Kolker
p598
sa(dp599
Vlink
p600
Vhttp://www.imdb.com/name/nm0562851/?ref_=tt_cl_t3
p601
sVimage
p602
Vhttps://images-na.ssl-images-amazon.com/images/M/MV5BMDdiMGIzMDYtMTVhNS00MTE0LTk2YzAtZjQ4N2FjMzEwNzAxXkEyXkFqcGdeQXVyMDUyOTUyNQ@@._UY317_CR16,0,214,317_AL_.jpg
p603
sVcharacter
p604
VBertha Trenor-Dorset
p605
sVname
p606
VChristine Mayo
p607
sa(dp608
Vlink
p609
Vhttp://www.imdb.com/name/nm0453059/?ref_=tt_cl_t4
p610
sVimage
p611
Vhttps://images-na.ssl-images-amazon.com/images/M/MV5BYWYyNGExNTItYmQ1OC00OTYyLThhMmYtNmM4YzhkOTZhMWE2XkEyXkFqcGdeQXVyMzI5NDcxNzI@._V1_UY44_CR0,0,32,44_AL_.jpg
p612
sVcharacter
p613
VAugustus Trenor-Dorset
p614
sVname
p615
VJoseph Kilgour
p616
sa(dp617
Vlink
p618
Vhttp://www.imdb.com/name/nm0109800/?ref_=tt_cl_t5
p619
sVimage
p620
Vhttps://images-na.ssl-images-amazon.com/images/M/MV5BYjQ0MzQ5YTUtMzE2ZC00NTM0LTk4MTEtYmRlNzE1MmEwM2NlXkEyXkFqcGdeQXVyMzI5NDcxNzI@._V1_UY44_CR13,0,32,44_AL_.jpg
p621
sVcharacter
p622
VGertie Farish
p623
sVname
p624
VLottie Briscoe
p625
sa(dp626
Vlink
p627
Vhttp://www.imdb.com/name/nm0008518/?ref_=tt_cl_t6
p628
sVimage
p629
Vhttps://images-na.ssl-images-amazon.com/images/M/MV5BMDM5OTUwNDItYTIyMC00YmZkLTgzYTAtZmNkNzRiZWIwMzJiXkEyXkFqcGdeQXVyMzI5NDcxNzI@._V1_UY44_CR1,0,32,44_AL_.jpg
p630
sVcharacter
p631
VSimon Rosedale
p632
sVname
p633
VEdward Abeles
p634
sa(dp635
Vlink
p636
Vhttp://www.imdb.com/name/nm0922696/?ref_=tt_cl_t7
p637
sVimage
p638
g3
sVcharacter
p639
VMrs. Haffen
p640
sVname
p641
VMaggie Western
p642
sa(dp643
Vlink
p644
Vhttp://www.imdb.com/name/nm0919631/?ref_=tt_cl_t8
p645
sVimage
p646
g3
sVcharacter
p647
VNettie Struthers
p648
sVname
p649
VPauline Welch
p650
sa(dp651
Vlink
p652
Vhttp://www.imdb.com/name/nm0817218/?ref_=tt_cl_t9
p653
sVimage
p654
g3
sVcharacter
p655
VMrs. Penniston
p656
sVname
p657
VNellie Parker Spaulding
p658
sa(dp659
Vlink
p660
Vhttp://www.imdb.com/name/nm0279227/?ref_=tt_cl_t10
p661
sVimage
p662
g3
sVcharacter
p663
VNed Silverton
p664
sVname
p665
VW.D. Fischter
p666
sa(dp667
Vlink
p668
Vhttp://www.imdb.com/name/nm0102718/?ref_=tt_cl_t11
p669
sVimage
p670
Vhttps://images-na.ssl-images-amazon.com/images/M/MV5BN2JiNGE2YzUtNTNkZi00OTc2LWE3OGYtNTlmOTQ4MzIyZTM3XkEyXkFqcGdeQXVyMzI5NDcxNzI@._UY317_CR16,0,214,317_AL_.jpg
p671
sVcharacter
p672
VPercy Gryce
p673
sVname
p674
VSidney Bracey
p675
sa(dp676
Vlink
p677
Vhttp://www.imdb.com/name/nm0338824/?ref_=tt_cl_t12
p678
sVimage
p679
Vhttps://images-na.ssl-images-amazon.com/images/M/MV5BMGRlMGQyYTgtNTgzOS00ZGNlLWFmNWMtZTQ5OTcyMmI2ODhhXkEyXkFqcGdeQXVyMDUyOTUyNQ@@._V1_UY44_CR1,0,32,44_AL_.jpg
p680
sVcharacter
p681
VJeff Wade
p682
sVname
p683
VKempton Greene
p684
sa(dp685
Vlink
p686
Vhttp://www.imdb.com/name/nm0428895/?ref_=tt_cl_t13
p687
sVimage
p688
g3
sVcharacter
p689
VButler
p690
sVname
p691
VMorgan Jones
p692
sa(dp693
Vlink
p694
g3
sVimage
p695
g3
sVcharacter
p696
g3
sVname
p697
g3
sa(dp698
Vlink
p699
Vhttp://www.imdb.com/name/nm0837965/?ref_=tt_cl_t14
p700
sVimage
p701
g3
sVcharacter
p702
g3
sVname
p703
VBilly Sullivan
p704
sasVlength
p705
V60
p706
sVrating_count
p707
V9
p708
sVstoryline
p709
g3
sVstars
p710
(lp711
VKatherine Corri Harris
p712
aVHenry Kolker
p713
aVChristine Mayo
p714
asVyear
p715
V1918
p716
sVgenre
p717
(lp718
VDrama
p719
asVtrailer
p720
(lp721
sVmetadata
p722
(dp723
Vasp_retio
p724
V1.33 : 1
p725
sVsound_mix
p726
(lp727
VSilent
p728
asVgross
p729
g3
sVcountries
p730
(lp731
VUSA
p732
asVbudget
p733
g3
sVlanguages
p734
(lp735
sVfilming_locations
p736
(lp737
sValso_known_as
p738
(lp739
VLa maison du brouillard
p740
assa(dp741
Vrating
p742
g3
sVdescription
p743
g3
sVtitle
p744
VThe House of Silence
p745
sVurl
p746
(dp747
Vurl
p748
Vhttp://www.imdb.com/title/tt9206
p749
ssVposter
p750
(dp751
Vlarge
p752
Vhttps://images-na.ssl-images-amazon.com/images/M/MV5BYzY3MjdkNzQtNjEyMC00MjA3LWFkMmUtYTMxN2I1MmZmZTkxXkEyXkFqcGdeQXVyMjUxODE0MDY@._V1_.jpg
p753
sVthumb
p754
Vhttps://images-na.ssl-images-amazon.com/images/M/MV5BYzY3MjdkNzQtNjEyMC00MjA3LWFkMmUtYTMxN2I1MmZmZTkxXkEyXkFqcGdeQXVyMjUxODE0MDY@._V1_UY268_CR1,0,182,268_AL_.jpg
p755
ssVrelease_date
p756
V1918-04-08
p757
sVcontent_rating
p758
g3
sVoriginal_title
p759
g3
sVwriters
p760
(lp761
VElwyn Alfred Barron
p762
aVMargaret Turnbull
p763
asVimdb_id
p764
Vtt0009206
p765
sVdirector
p766
VDonald Crisp
p767
sVcast
p768
(lp769
(dp770
Vlink
p771
Vhttp://www.imdb.com/name/nm0717468/?ref_=tt_cl_t1
p772
sVimage
p773
Vhttps://images-na.ssl-images-amazon.com/images/M/MV5BMTIzMzYwMjAyNF5BMl5BanBnXkFtZTYwMTExNjI2._UY317_CR16,0,214,317_AL_.jpg
p774
sVcharacter
p775
VMarcel Levington
p776
sVname
p777
VWallace Reid
p778
sa(dp779
Vlink
p780
Vhttp://www.imdb.com/name/nm0514517/?ref_=tt_cl_t2
p781
sVimage
p782
Vhttps://images-na.ssl-images-amazon.com/images/M/MV5BNDA2YTViMTctNmQ4Yi00NjIyLThkYTYtMTNmNjg1OTA4YjE5XkEyXkFqcGdeQXVyMzI5NDcxNzI@._V1_UY44_CR1,0,32,44_AL_.jpg
p783
sVcharacter
p784
VToinette Rogers
p785
sVname
p786
VAnn Little
p787
sa(dp788
Vlink
p789
Vhttp://www.imdb.com/name/nm0268422/?ref_=tt_cl_t3
p790
sVimage
p791
g3
sVcharacter
p792
VMrs. Clifton
p793
sVname
p794
VAdele Farrington
p795
sa(dp796
Vlink
p797
Vhttp://www.imdb.com/name/nm0356228/?ref_=tt_cl_t4
p798
sVimage
p799
Vhttps://images-na.ssl-images-amazon.com/images/M/MV5BOGU0MmNlOWMtODRjZS00NjFkLTkwMDEtODQ1ZWY1MWU0MDkyXkEyXkFqcGdeQXVyMzI5NDcxNzI@._V1_UY44_CR1,0,32,44_AL_.jpg
p800
sVcharacter
p801
VDr. Henry Rogers
p802
sVname
p803
VWinter Hall
p804
sa(dp805
Vlink
p806
Vhttp://www.imdb.com/name/nm0431414/?ref_=tt_cl_t5
p807
sVimage
p808
g3
sVcharacter
p809
VLeroy
p810
sVname
p811
VErnest Joy
p812
sa(dp813
Vlink
p814
Vhttp://www.imdb.com/name/nm0057889/?ref_=tt_cl_t6
p815
sVimage
p816
g3
sVcharacter
p817
VCarter       (as H.A. Barrows)
p818
sVname
p819
VHenry A. Barrows
p820
sasVlength
p821
g3
sVrating_count
p822
g3
sVstoryline
p823
g3
sVstars
p824
(lp825
VWallace Reid
p826
aVAnn Little
p827
aVAdele Farrington
p828
asVyear
p829
V1918
p830
sVgenre
p831
(lp832
VMystery
p833
asVtrailer
p834
(lp835
sVmetadata
p836
(dp837
Vasp_retio
p838
V1.33 : 1
p839
sVsound_mix
p840
(lp841
VSilent
p842
asVgross
p843
g3
sVcountries
p844
(lp845
VUSA
p846
asVbudget
p847
g3
sVlanguages
p848
(lp849
sVfilming_locations
p850
(lp851
sValso_known_as
p852
(lp853
VLa maison du silence
p854
assa(dp855
Vrating
p856
g3
sVdescription
p857
g3
sVtitle
p858
VHow Could You, Caroline?
p859
sVurl
p860
(dp861
Vurl
p862
Vhttp://www.imdb.com/title/tt9207
p863
ssVposter
p864
(dp865
Vlarge
p866
Vhttp://ia.media-imdb.com/images/G/01/imdb/images/logos/imdb_fb_logo-1730868325._CB514892123_.png_V1_.jpg
p867
sVthumb
p868
g3
ssVrelease_date
p869
V1918-05-05
p870
sVcontent_rating
p871
g3
sVoriginal_title
p872
g3
sVwriters
p873
(lp874
VIzola Forrester
p875
aVAgnes Christine Johnston
p876
asVimdb_id
p877
Vtt0009207
p878
sVdirector
p879
VFrederick A. Thomson
p880
sVcast
p881
(lp882
(dp883
Vlink
p884
Vhttp://www.imdb.com/name/nm0522281/?ref_=tt_cl_t1
p885
sVimage
p886
Vhttps://images-na.ssl-images-amazon.com/images/M/MV5BMTUyMzIwMjU3MF5BMl5BanBnXkFtZTgwMTI0OTg0MzE@._V1._CR143,185,706,934_UY44_CR0,0,32,44_AL_.jpg
p887
sVcharacter
p888
VCaroline Rogers
p889
sVname
p890
VBessie Love
p891
sa(dp892
Vlink
p893
Vhttp://www.imdb.com/name/nm0607174/?ref_=tt_cl_t2
p894
sVimage
p895
g3
sVcharacter
p896
VBob Worth
p897
sVname
p898
VJames Morrison
p899
sa(dp900
Vlink
p901
Vhttp://www.imdb.com/name/nm0370320/?ref_=tt_cl_t3
p902
sVimage
p903
g3
sVcharacter
p904
VReginald Van Alden
p905
sVname
p906
VH. Dudley Hawley
p907
sa(dp908
Vlink
p909
Vhttp://www.imdb.com/name/nm0356267/?ref_=tt_cl_t4
p910
sVimage
p911
Vhttps://images-na.ssl-images-amazon.com/images/M/MV5BNGRjYzJhZDYtMDY0NS00MGRiLWI0MDYtODkyMjc5MzhiYzFiXkEyXkFqcGdeQXVyMzI5NDcxNzI@._V1_UY44_CR0,0,32,44_AL_.jpg
p912
sVcharacter
p913
VMr. Rogers
p914
sVname
p915
VHenry Hallam
p916
sa(dp917
Vlink
p918
Vhttp://www.imdb.com/name/nm0247304/?ref_=tt_cl_t5
p919
sVimage
p920
g3
sVcharacter
p921
VEthel Rogers
p922
sVname
p923
VEdna Earle
p924
sa(dp925
Vlink
p926
Vhttp://www.imdb.com/name/nm0838838/?ref_=tt_cl_t6
p927
sVimage
p928
g3
sVcharacter
p929
VMrs. Rogers
p930
sVname
p931
VAmelia Summerville
p932
sasVlength
p933
g3
sVrating_count
p934
g3
sVstoryline
p935
g3
sVstars
p936
(lp937
VBessie Love
p938
aVJames Morrison
p939
aVH. Dudley Hawley
p940
asVyear
p941
V1918
p942
sVgenre
p943
(lp944
VComedy
p945
aVDrama
p946
asVtrailer
p947
(lp948
sVmetadata
p949
(dp950
Vasp_retio
p951
V1.33 : 1
p952
sVsound_mix
p953
(lp954
VSilent
p955
asVgross
p956
g3
sVcountries
p957
(lp958
VUSA
p959
asVbudget
p960
g3
sVlanguages
p961
(lp962
sVfilming_locations
p963
(lp964
sValso_known_as
p965
(lp966
V&#194;mes soeurs
p967
assa(dp968
Vrating
p969
g3
sVdescription
p970
g3
sVtitle
p971
VHow Could You, Jean?
p972
sVurl
p973
(dp974
Vurl
p975
Vhttp://www.imdb.com/title/tt9208
p976
ssVposter
p977
(dp978
Vlarge
p979
Vhttps://images-na.ssl-images-amazon.com/images/M/MV5BZTY5YTJjYjQtMjFjNC00NDYxLTg5OGQtYTE3YWU3OTY4ZWFkXkEyXkFqcGdeQXVyNDY1NzU5NjY@._V1_.jpg
p980
sVthumb
p981
Vhttps://images-na.ssl-images-amazon.com/images/M/MV5BZTY5YTJjYjQtMjFjNC00NDYxLTg5OGQtYTE3YWU3OTY4ZWFkXkEyXkFqcGdeQXVyNDY1NzU5NjY@._V1_UY268_CR2,0,182,268_AL_.jpg
p982
ssVrelease_date
p983
V1918-06-30
p984
sVcontent_rating
p985
g3
sVoriginal_title
p986
g3
sVwriters
p987
(lp988
VEleanor Hoyt Brainerd
p989
aVFrances Marion
p990
asVimdb_id
p991
Vtt0009208
p992
sVdirector
p993
VWilliam Desmond Taylor
p994
sVcast
p995
(lp996
(dp997
Vlink
p998
Vhttp://www.imdb.com/name/nm0681933/?ref_=tt_cl_t1
p999
sVimage
p1000
Vhttps://images-na.ssl-images-amazon.com/images/M/MV5BMTcxODkxOTExMl5BMl5BanBnXkFtZTgwMDIzNTQwMjE@._V1_UY44_CR1,0,32,44_AL_.jpg
p1001
sVcharacter
p1002
VJean Mackaye
p1003
sVname
p1004
VMary Pickford
p1005
sa(dp1006
Vlink
p1007
Vhttp://www.imdb.com/name/nm0272392/?ref_=tt_cl_t2
p1008
sVimage
p1009
Vhttps://images-na.ssl-images-amazon.com/images/M/MV5BMDUzMjE4ZjMtZjY5OS00MjAxLWE3MzYtMDRkMzE3YzRhN2I2L2ltYWdlL2ltYWdlXkEyXkFqcGdeQXVyMzI5NDcxNzI@._UY317_CR16,0,214,317_AL_.jpg
p1010
sVcharacter
p1011
VTed Burton Jr
p1012
sVname
p1013
VCasson Ferguson
p1014
sa(dp1015
Vlink
p1016
Vhttp://www.imdb.com/name/nm0014894/?ref_=tt_cl_t3
p1017
sVimage
p1018
Vhttps://images-na.ssl-images-amazon.com/images/M/MV5BMGNiOWI4NWQtNjI0NC00NjNmLTljOTYtNTRjNTdhMDBkOGIxXkEyXkFqcGdeQXVyMzAwOTU1MTk@._V1_UY44_CR10,0,32,44_AL_.jpg
p1019
sVcharacter
p1020
VRufus Bonner
p1021
sVname
p1022
VSpottiswoode Aitken
p1023
sa(dp1024
Vlink
p1025
Vhttp://www.imdb.com/name/nm0822059/?ref_=tt_cl_t4
p1026
sVimage
p1027
g3
sVcharacter
p1028
VBurton Sr
p1029
sVname
p1030
VHerbert Standing
p1031
sa(dp1032
Vlink
p1033
Vhttp://www.imdb.com/name/nm0585605/?ref_=tt_cl_t5
p1034
sVimage
p1035
g3
sVcharacter
p1036
VMrs. Bonner
p1037
sVname
p1038
VFanny Midgley
p1039
sa(dp1040
Vlink
p1041
Vhttp://www.imdb.com/name/nm0679043/?ref_=tt_cl_t6
p1042
sVimage
p1043
g3
sVcharacter
p1044
VOscar       (as Larry Peyton)
p1045
sVname
p1046
VLawrence Peyton
p1047
sa(dp1048
Vlink
p1049
Vhttp://www.imdb.com/name/nm0686032/?ref_=tt_cl_t7
p1050
sVimage
p1051
Vhttps://images-na.ssl-images-amazon.com/images/M/MV5BMTUzNzA5MjQzM15BMl5BanBnXkFtZTgwNDE0OTg0MzE@._V1._CR94,138,542,722_UY44_CR0,0,32,44_AL_.jpg
p1052
sVcharacter
p1053
VOscar's Sweetheart
p1054
sVname
p1055
VZasu Pitts
p1056
sa(dp1057
Vlink
p1058
Vhttp://www.imdb.com/name/nm0369839/?ref_=tt_cl_t8
p1059
sVimage
p1060
g3
sVcharacter
p1061
VSusan Cooper       (as Mabelle Harvey)
p1062
sVname
p1063
VMaie B. Havey
p1064
sa(dp1065
Vlink
p1066
Vhttp://www.imdb.com/name/nm0911699/?ref_=tt_cl_t9
p1067
sVimage
p1068
g3
sVcharacter
p1069
VMrs. Kate Morley
p1070
sVname
p1071
VLucille Ward
p1072
sa(dp1073
Vlink
p1074
Vhttp://www.imdb.com/name/nm0314193/?ref_=tt_cl_t10
p1075
sVimage
p1076
g3
sVcharacter
p1077
VMorley Child       (as Emma Gerdes)
p1078
sVname
p1079
VEmily Gerdes
p1080
sa(dp1081
Vlink
p1082
Vhttp://www.imdb.com/name/nm0058191/?ref_=tt_cl_t11
p1083
sVimage
p1084
g3
sVcharacter
p1085
VMorley Child
p1086
sVname
p1087
VWesley Barry
p1088
sa(dp1089
Vlink
p1090
Vhttp://www.imdb.com/name/nm0359085/?ref_=tt_cl_t12
p1091
sVimage
p1092
g3
sVcharacter
p1093
VMorley Child
p1094
sVname
p1095
VBurwell Hamrick
p1096
sa(dp1097
Vlink
p1098
Vhttp://www.imdb.com/name/nm0941783/?ref_=tt_cl_t13
p1099
sVimage
p1100
g3
sVcharacter
p1101
VMorley Child
p1102
sVname
p1103
VAlthea Worthley
p1104
sa(dp1105
Vlink
p1106
Vhttp://www.imdb.com/name/nm0550583/?ref_=tt_cl_t14
p1107
sVimage
p1108
Vhttps://images-na.ssl-images-amazon.com/images/M/MV5BMTc5NTQwMTQ1OV5BMl5BanBnXkFtZTgwOTAwODA1MjE@._V1_UY44_CR1,0,32,44_AL_.jpg
p1109
sVcharacter
p1110
VMorley Child       (as Dorothy Rosher)
p1111
sVname
p1112
VJoan Marsh
p1113
sa(dp1114
Vlink
p1115
Vhttp://www.imdb.com/name/nm0378559/?ref_=tt_cl_t15
p1116
sVimage
p1117
g3
sVcharacter
p1118
VMorley Child
p1119
sVname
p1120
VJack Herbert
p1121
sasVlength
p1122
g3
sVrating_count
p1123
g3
sVstoryline
p1124
g3
sVstars
p1125
(lp1126
VMary Pickford
p1127
aVCasson Ferguson
p1128
aVSpottiswoode Aitken
p1129
asVyear
p1130
V1918
p1131
sVgenre
p1132
(lp1133
VComedy
p1134
aVDrama
p1135
asVtrailer
p1136
(lp1137
sVmetadata
p1138
(dp1139
Vasp_retio
p1140
V1.33 : 1
p1141
sVsound_mix
p1142
(lp1143
VSilent
p1144
asVgross
p1145
g3
sVcountries
p1146
(lp1147
VUSA
p1148
asVbudget
p1149
g3
sVlanguages
p1150
(lp1151
VEnglish
p1152
asVfilming_locations
p1153
(lp1154
sValso_known_as
p1155
(lp1156
VK&#230;led&#230;ggen
p1157
assa(dp1158
Vrating
p1159
V7.0
p1160
sVdescription
p1161
VThe adventures of Huckleberry Finn and Tom Sawyer.
p1162
sVtitle
p1163
VHuck and Tom
p1164
sVurl
p1165
(dp1166
Vurl
p1167
Vhttp://www.imdb.com/title/tt9209
p1168
ssVposter
p1169
(dp1170
Vlarge
p1171
Vhttps://images-na.ssl-images-amazon.com/images/M/MV5BNDY5ODM1MTQ5NF5BMl5BanBnXkFtZTYwNDg4MTI2._V1_.jpg
p1172
sVthumb
p1173
Vhttps://images-na.ssl-images-amazon.com/images/M/MV5BNDY5ODM1MTQ5NF5BMl5BanBnXkFtZTYwNDg4MTI2._V1_UY268_CR108,0,182,268_AL_.jpg
p1174
ssVrelease_date
p1175
V1918-03-04
p1176
sVcontent_rating
p1177
g3
sVoriginal_title
p1178
g3
sVwriters
p1179
(lp1180
VJulia Crawford Ivers
p1181
aVMark Twain
p1182
asVimdb_id
p1183
Vtt0009209
p1184
sVdirector
p1185
VWilliam Desmond Taylor
p1186
sVcast
p1187
(lp1188
(dp1189
Vlink
p1190
Vhttp://www.imdb.com/name/nm0681927/?ref_=tt_cl_t1
p1191
sVimage
p1192
Vhttps://images-na.ssl-images-amazon.com/images/M/MV5BMTYwMDc1NzU3NF5BMl5BanBnXkFtZTgwNjYxMTU1MzE@._V1._CR102,143,542,721_UY44_CR0,0,32,44_AL_.jpg
p1193
sVcharacter
p1194
VTom Sawyer
p1195
sVname
p1196
VJack Pickford
p1197
sa(dp1198
Vlink
p1199
Vhttp://www.imdb.com/name/nm0330217/?ref_=tt_cl_t2
p1200
sVimage
p1201
g3
sVcharacter
p1202
VHuck Finn
p1203
sVname
p1204
VRobert Gordon
p1205
sa(dp1206
Vlink
p1207
Vhttp://www.imdb.com/name/nm0352383/?ref_=tt_cl_t3
p1208
sVimage
p1209
Vhttps://images-na.ssl-images-amazon.com/images/M/MV5BOTliM2ZkMDktYzA2ZC00NTMzLTgxYmYtZGYzNWRmNTU5M2I4XkEyXkFqcGdeQXVyMzI5NDcxNzI@._V1_UY44_CR2,0,32,44_AL_.jpg
p1210
sVcharacter
p1211
VSid Sawyer
p1212
sVname
p1213
VGeorge Hackathorne
p1214
sa(dp1215
Vlink
p1216
Vhttp://www.imdb.com/name/nm0555519/?ref_=tt_cl_t4
p1217
sVimage
p1218
g3
sVcharacter
p1219
VMary Sawyer
p1220
sVname
p1221
VAlice Marvin
p1222
sa(dp1223
Vlink
p1224
Vhttp://www.imdb.com/name/nm0152362/?ref_=tt_cl_t5
p1225
sVimage
p1226
Vhttps://images-na.ssl-images-amazon.com/images/M/MV5BYTI0ZjA0ZTktNzFmYS00NzI3LTg3OGYtZGJkNjE0MjQ2NDI3L2ltYWdlL2ltYWdlXkEyXkFqcGdeQXVyMzI5NDcxNzI@._V1_UY44_CR1,0,32,44_AL_.jpg
p1227
sVcharacter
p1228
VAunt Polly
p1229
sVname
p1230
VEdythe Chapman
p1231
sa(dp1232
Vlink
p1233
Vhttp://www.imdb.com/name/nm0486967/?ref_=tt_cl_t6
p1234
sVimage
p1235
Vhttps://images-na.ssl-images-amazon.com/images/M/MV5BNDE0YzliNDctOWE2OS00MTc5LTlmZmYtODk0MDNjOGY0MDBkXkEyXkFqcGdeQXVyMDUyOTUyNQ@@._V1_UY44_CR2,0,32,44_AL_.jpg
p1236
sVcharacter
p1237
VInjun Joe
p1238
sVname
p1239
VFrank Lanning
p1240
sa(dp1241
Vlink
p1242
Vhttp://www.imdb.com/name/nm0395576/?ref_=tt_cl_t7
p1243
sVimage
p1244
Vhttps://images-na.ssl-images-amazon.com/images/M/MV5BMjgyZWVhZDMtODhjMC00MTI2LTk1ZDgtMjc0NGM3ODhkMzUxL2ltYWdlXkEyXkFqcGdeQXVyMDUyOTUyNQ@@._V1_UY44_CR1,0,32,44_AL_.jpg
p1245
sVcharacter
p1246
VBecky Thatcher
p1247
sVname
p1248
VClara Horton
p1249
sa(dp1250
Vlink
p1251
Vhttp://www.imdb.com/name/nm0061044/?ref_=tt_cl_t8
p1252
sVimage
p1253
g3
sVcharacter
p1254
VMuff Potter
p1255
sVname
p1256
VTom Bates
p1257
sa(dp1258
Vlink
p1259
Vhttp://www.imdb.com/name/nm0319532/?ref_=tt_cl_t9
p1260
sVimage
p1261
Vhttps://images-na.ssl-images-amazon.com/images/M/MV5BZjI1ZGE4N2ItNjI0Ny00ZjYzLTg3YmUtM2YzM2QxNmI3ODVjXkEyXkFqcGdeQXVyMzI5NDcxNzI@._V1_UY44_CR2,0,32,44_AL_.jpg
p1262
sVcharacter
p1263
VWidow Douglas
p1264
sVname
p1265
VHelen Gilmore
p1266
sa(dp1267
Vlink
p1268
Vhttp://www.imdb.com/name/nm0795025/?ref_=tt_cl_t10
p1269
sVimage
p1270
g3
sVcharacter
p1271
VJoe Harper
p1272
sVname
p1273
VAntrim Short
p1274
sa(dp1275
Vlink
p1276
Vhttp://www.imdb.com/name/nm0444274/?ref_=tt_cl_t11
p1277
sVimage
p1278
g3
sVcharacter
p1279
VMrs. Thatcher
p1280
sVname
p1281
VJane Keckley
p1282
sa(dp1283
Vlink
p1284
Vhttp://www.imdb.com/name/nm0123623/?ref_=tt_cl_t12
p1285
sVimage
p1286
g3
sVcharacter
p1287
VJudge Thatcher
p1288
sVname
p1289
VJohn Burton
p1290
sasVlength
p1291
g3
sVrating_count
p1292
V10
p1293
sVstoryline
p1294
VThe adventures of Huckleberry Finn and Tom Sawyer.
p1295
sVstars
p1296
(lp1297
VJack Pickford
p1298
aVRobert Gordon
p1299
aVGeorge Hackathorne
p1300
asVyear
p1301
V1918
p1302
sVgenre
p1303
(lp1304
VComedy
p1305
aVDrama
p1306
asVtrailer
p1307
(lp1308
sVmetadata
p1309
(dp1310
Vasp_retio
p1311
V1.33 : 1
p1312
sVsound_mix
p1313
(lp1314
VSilent
p1315
asVgross
p1316
g3
sVcountries
p1317
(lp1318
VUSA
p1319
asVbudget
p1320
g3
sVlanguages
p1321
(lp1322
sVfilming_locations
p1323
(lp1324
VHannibal
p1325
aVMissouri
p1326
aVUSA
p1327
asValso_known_as
p1328
(lp1329
ssa(dp1330
Vrating
p1331
g3
sVdescription
p1332
g3
sVtitle
p1333
VHugon, the Mighty
p1334
sVurl
p1335
(dp1336
Vurl
p1337
Vhttp://www.imdb.com/title/tt9210
p1338
ssVposter
p1339
(dp1340
Vlarge
p1341
Vhttp://ia.media-imdb.com/images/G/01/imdb/images/logos/imdb_fb_logo-1730868325._CB514892123_.png_V1_.jpg
p1342
sVthumb
p1343
g3
ssVrelease_date
p1344
V1918-11-23
p1345
sVcontent_rating
p1346
g3
sVoriginal_title
p1347
g3
sVwriters
p1348
(lp1349
VWilliam E. Wing
p1350
asVimdb_id
p1351
Vtt0009210
p1352
sVdirector
p1353
VRollin S. Sturgeon
p1354
sVcast
p1355
(lp1356
(dp1357
Vlink
p1358
Vhttp://www.imdb.com/name/nm0758457/?ref_=tt_cl_t1
p1359
sVimage
p1360
Vhttps://images-na.ssl-images-amazon.com/images/M/MV5BOTJlMzZhYmMtN2NmZS00MGIxLWFjN2YtYzA5YTFiZTIzODQ1XkEyXkFqcGdeQXVyMDUyOTUyNQ@@._V1_UY44_CR22,0,32,44_AL_.jpg
p1361
sVcharacter
p1362
VHugon
p1363
sVname
p1364
VMonroe Salisbury
p1365
sa(dp1366
Vlink
p1367
Vhttp://www.imdb.com/name/nm0071913/?ref_=tt_cl_t2
p1368
sVimage
p1369
Vhttps://images-na.ssl-images-amazon.com/images/M/MV5BMDBhYWViNjUtNTU2YS00NzA3LThlODMtMjk0MjIzZjdmOTYwXkEyXkFqcGdeQXVyMzI5NDcxNzI@._V1_UY44_CR4,0,32,44_AL_.jpg
p1370
sVcharacter
p1371
VMarie       (as Margery Bennett)
p1372
sVname
p1373
VMarjorie Bennett
p1374
sa(dp1375
Vlink
p1376
Vhttp://www.imdb.com/name/nm0795025/?ref_=tt_cl_t3
p1377
sVimage
p1378
g3
sVcharacter
p1379
VGabriel
p1380
sVname
p1381
VAntrim Short
p1382
sa(dp1383
Vlink
p1384
Vhttp://www.imdb.com/name/nm0675551/?ref_=tt_cl_t4
p1385
sVimage
p1386
g3
sVcharacter
p1387
VPriest       (as Thomas H. Persse)
p1388
sVname
p1389
VThomas Persse
p1390
sa(dp1391
Vlink
p1392
Vhttp://www.imdb.com/name/nm0392429/?ref_=tt_cl_t5
p1393
sVimage
p1394
Vhttps://images-na.ssl-images-amazon.com/images/M/MV5BMTkxNTI5MTY1OV5BMl5BanBnXkFtZTcwMTc3MzM3Nw@@._V1_UY44_CR1,0,32,44_AL_.jpg
p1395
sVcharacter
p1396
VRoque
p1397
sVname
p1398
VGeorge Holt
p1399
sa(dp1400
Vlink
p1401
Vhttp://www.imdb.com/name/nm0449521/?ref_=tt_cl_t6
p1402
sVimage
p1403
g3
sVcharacter
p1404
VGabriel's Mother       (as Mrs. Kernan)
p1405
sVname
p1406
VSarah Kernan
p1407
sa(dp1408
Vlink
p1409
Vhttp://www.imdb.com/name/nm0238872/?ref_=tt_cl_t7
p1410
sVimage
p1411
g3
sVcharacter
p1412
VUndetermined Role
p1413
sVname
p1414
VTote Du Crow
p1415
sa(dp1416
Vlink
p1417
Vhttp://www.imdb.com/name/nm0914395/?ref_=tt_cl_t8
p1418
sVimage
p1419
g3
sVcharacter
p1420
VUndetermined Role
p1421
sVname
p1422
VRoy Watkins
p1423
sasVlength
p1424
g3
sVrating_count
p1425
g3
sVstoryline
p1426
g3
sVstars
p1427
(lp1428
VMonroe Salisbury
p1429
aVMarjorie Bennett
p1430
aVAntrim Short
p1431
asVyear
p1432
V1918
p1433
sVgenre
p1434
(lp1435
VDrama
p1436
asVtrailer
p1437
(lp1438
sVmetadata
p1439
(dp1440
Vasp_retio
p1441
V1.33 : 1
p1442
sVsound_mix
p1443
(lp1444
VSilent
p1445
asVgross
p1446
g3
sVcountries
p1447
(lp1448
VUSA
p1449
asVbudget
p1450
g3
sVlanguages
p1451
(lp1452
VEnglish
p1453
asVfilming_locations
p1454
(lp1455
VBig Bear Lake
p1456
aVBig Bear Valley
p1457
aVSan Bernardino National Forest
p1458
aVCalifornia
p1459
aVUSA
p1460
asValso_known_as
p1461
(lp1462
VJacques le fort
p1463
assa(dp1464
Vrating
p1465
g3
sVdescription
p1466
g3
sVtitle
p1467
VHumdrum Brown
p1468
sVurl
p1469
(dp1470
Vurl
p1471
Vhttp://www.imdb.com/title/tt9211
p1472
ssVposter
p1473
(dp1474
Vlarge
p1475
Vhttp://ia.media-imdb.com/images/G/01/imdb/images/logos/imdb_fb_logo-1730868325._CB514892123_.png_V1_.jpg
p1476
sVthumb
p1477
g3
ssVrelease_date
p1478
V1918-03-15
p1479
sVcontent_rating
p1480
g3
sVoriginal_title
p1481
g3
sVwriters
p1482
(lp1483
VH.B. Daniel
p1484
aVM.G. Daniel
p1485
asVimdb_id
p1486
Vtt0009211
p1487
sVdirector
p1488
VRex Ingram
p1489
sVcast
p1490
(lp1491
(dp1492
Vlink
p1493
Vhttp://www.imdb.com/name/nm0910400/?ref_=tt_cl_t1
p1494
sVimage
p1495
Vhttps://images-na.ssl-images-amazon.com/images/M/MV5BZDFiNWQ1ZjEtZmU0YS00MmU3LWE1MDEtNjFiNGQ0NjVmNjdkXkEyXkFqcGdeQXVyMzI5NDcxNzI@._V1_UY44_CR1,0,32,44_AL_.jpg
p1496
sVcharacter
p1497
VHector 'Humdrum' Brown
p1498
sVname
p1499
VHenry B. Walthall
p1500
sa(dp1501
Vlink
p1502
Vhttp://www.imdb.com/name/nm0153185/?ref_=tt_cl_t2
p1503
sVimage
p1504
Vhttps://images-na.ssl-images-amazon.com/images/M/MV5BNTgxNmZjOTMtNTRmMS00Y2Y1LTg2M2YtMjMzMGQ1MGRlZDdmXkEyXkFqcGdeQXVyMzI5NDcxNzI@._V1_UY44_CR5,0,32,44_AL_.jpg
p1505
sVcharacter
p1506
VAlicia Boothe
p1507
sVname
p1508
VMary Charleson
p1509
sa(dp1510
Vlink
p1511
Vhttp://www.imdb.com/name/nm0163886/?ref_=tt_cl_t3
p1512
sVimage
p1513
g3
sVcharacter
p1514
VGrace Danforth       (as Dorothy Love Clark)
p1515
sVname
p1516
VDorothy Clark
p1517
sa(dp1518
Vlink
p1519
Vhttp://www.imdb.com/name/nm0186232/?ref_=tt_cl_t4
p1520
sVimage
p1521
Vhttps://images-na.ssl-images-amazon.com/images/M/MV5BZDMwYmRmZGUtMWI0Zi00ODNkLWI4ZjctNjY2N2MwMWNlOGZhXkEyXkFqcGdeQXVyMzI5NDcxNzI@._V1_UY44_CR0,0,32,44_AL_.jpg
p1522
sVcharacter
p1523
VCarlos Tanner
p1524
sVname
p1525
VHoward Crampton
p1526
sa(dp1527
Vlink
p1528
Vhttp://www.imdb.com/name/nm0696985/?ref_=tt_cl_t5
p1529
sVimage
p1530
Vhttps://images-na.ssl-images-amazon.com/images/M/MV5BZTE5NDE0ODQtYzRmMC00Njc0LWI1NjEtNWVjYWE0YmU1ZTM0XkEyXkFqcGdeQXVyMDUyOTUyNQ@@._V1_UY44_CR1,0,32,44_AL_.jpg
p1531
sVcharacter
p1532
VCousin Kate
p1533
sVname
p1534
VKate Price
p1535
sa(dp1536
Vlink
p1537
Vhttp://www.imdb.com/name/nm0235848/?ref_=tt_cl_t6
p1538
sVimage
p1539
Vhttps://images-na.ssl-images-amazon.com/images/M/MV5BMjZlODE1NDMtOTMyMC00YjIyLThmYTctMTk2ODAwZTI0ZmY0L2ltYWdlL2ltYWdlXkEyXkFqcGdeQXVyMDMxMjQwMw@@._UY317_CR16,0,214,317_AL_.jpg
p1540
sVcharacter
p1541
VJohn Fryeburg
p1542
sVname
p1543
VJoseph J. Dowling
p1544
sa(dp1545
Vlink
p1546
Vhttp://www.imdb.com/name/nm0364866/?ref_=tt_cl_t7
p1547
sVimage
p1548
g3
sVcharacter
p1549
VEd Danforth
p1550
sVname
p1551
VJoe Harris
p1552
sa(dp1553
Vlink
p1554
Vhttp://www.imdb.com/name/nm0507275/?ref_=tt_cl_t8
p1555
sVimage
p1556
g3
sVcharacter
p1557
VAunt Elvira
p1558
sVname
p1559
VIda Lewis
p1560
sasVlength
p1561
g3
sVrating_count
p1562
g3
sVstoryline
p1563
g3
sVstars
p1564
(lp1565
VHenry B. Walthall
p1566
aVMary Charleson
p1567
aVDorothy Clark
p1568
asVyear
p1569
V1918
p1570
sVgenre
p1571
(lp1572
VComedy
p1573
aVDrama
p1574
asVtrailer
p1575
(lp1576
sVmetadata
p1577
(dp1578
Vasp_retio
p1579
V1.33 : 1
p1580
sVsound_mix
p1581
(lp1582
VSilent
p1583
asVgross
p1584
g3
sVcountries
p1585
(lp1586
VUSA
p1587
asVbudget
p1588
g3
sVlanguages
p1589
(lp1590
VEnglish
p1591
asVfilming_locations
p1592
(lp1593
sValso_known_as
p1594
(lp1595
ssa(dp1596
Vrating
p1597
V6.0
p1598
sVdescription
p1599
VA German-American father, loyal to his new U.S. home, finds himself on opposite sides with his son in the wartime conflict between Germany and America. The son becomes involved with German ...\u000a                    See full summary
p1600
sVtitle
p1601
VThe Hun Within
p1602
sVurl
p1603
(dp1604
Vurl
p1605
Vhttp://www.imdb.com/title/tt9212
p1606
ssVposter
p1607
(dp1608
Vlarge
p1609
Vhttps://images-na.ssl-images-amazon.com/images/M/MV5BMzRjNjg4NzYtMzAyMi00NzI1LWIwYjQtM2QzNDUwMTQyYTIxXkEyXkFqcGdeQXVyMjUxODE0MDY@._V1_.jpg
p1610
sVthumb
p1611
Vhttps://images-na.ssl-images-amazon.com/images/M/MV5BMzRjNjg4NzYtMzAyMi00NzI1LWIwYjQtM2QzNDUwMTQyYTIxXkEyXkFqcGdeQXVyMjUxODE0MDY@._V1_UY268_CR93,0,182,268_AL_.jpg
p1612
ssVrelease_date
p1613
V1918-08-25
p1614
sVcontent_rating
p1615
g3
sVoriginal_title
p1616
g3
sVwriters
p1617
(lp1618
VD.W. Griffith
p1619
aVStanner E.V. Taylor
p1620
asVimdb_id
p1621
Vtt0009212
p1622
sVdirector
p1623
VChester Withey
p1624
sVcast
p1625
(lp1626
(dp1627
Vlink
p1628
Vhttp://www.imdb.com/name/nm0321088/?ref_=tt_cl_t1
p1629
sVimage
p1630
Vhttps://images-na.ssl-images-amazon.com/images/M/MV5BMzU3MzMwMzQ4OF5BMl5BanBnXkFtZTgwMzk0NTk3MTE@._UY317_CR16,0,214,317_AL_.jpg
p1631
sVcharacter
p1632
VBeth
p1633
sVname
p1634
VDorothy Gish
p1635
sa(dp1636
Vlink
p1637
Vhttp://www.imdb.com/name/nm0269493/?ref_=tt_cl_t2
p1638
sVimage
p1639
Vhttps://images-na.ssl-images-amazon.com/images/M/MV5BNjJhYWE0MGEtZDAzMy00NTI3LTkwMDctMzIzMjVmY2Q2NzViXkEyXkFqcGdeQXVyMDUyOTUyNQ@@._V1_UY44_CR2,0,32,44_AL_.jpg
p1640
sVcharacter
p1641
VHenry Wagner
p1642
sVname
p1643
VGeorge Fawcett
p1644
sa(dp1645
Vlink
p1646
Vhttp://www.imdb.com/name/nm0314699/?ref_=tt_cl_t3
p1647
sVimage
p1648
Vhttps://images-na.ssl-images-amazon.com/images/M/MV5BODU0NzI0MTQtZmFjNS00ZTJjLWI4OTMtOWRmYWY2NTllNDIxXkEyXkFqcGdeQXVyMzI5NDcxNzI@._V1_UY44_CR2,0,32,44_AL_.jpg
p1649
sVcharacter
p1650
VKarl Wagner
p1651
sVname
p1652
VCharles K. Gerrard
p1653
sa(dp1654
Vlink
p1655
Vhttp://www.imdb.com/name/nm0533764/?ref_=tt_cl_t4
p1656
sVimage
p1657
Vhttps://images-na.ssl-images-amazon.com/images/M/MV5BNmEzZDc0YzMtNjJhNy00NDZmLWJiNDQtZTVkZmY5MDQ4OTM1XkEyXkFqcGdeQXVyMzI5NDcxNzI@._V1_UY44_CR1,0,32,44_AL_.jpg
p1658
sVcharacter
p1659
VFrank Douglas
p1660
sVname
p1661
VDouglas MacLean
p1662
sa(dp1663
Vlink
p1664
Vhttp://www.imdb.com/name/nm0839992/?ref_=tt_cl_t5
p1665
sVimage
p1666
g3
sVcharacter
p1667
VKrippen       (as Bert Sutch)
p1668
sVname
p1669
VHerbert Sutch
p1670
sa(dp1671
Vlink
p1672
Vhttp://www.imdb.com/name/nm0203439/?ref_=tt_cl_t6
p1673
sVimage
p1674
g3
sVcharacter
p1675
VMax
p1676
sVname
p1677
VMax Davidson
p1678
sa(dp1679
Vlink
p1680
Vhttp://www.imdb.com/name/nm0164213/?ref_=tt_cl_t7
p1681
sVimage
p1682
g3
sVcharacter
p1683
VLeone       (as Lillian Clarke)
p1684
sVname
p1685
VLillian Clark
p1686
sa(dp1687
Vlink
p1688
Vhttp://www.imdb.com/name/nm0027351/?ref_=tt_cl_t8
p1689
sVimage
p1690
Vhttps://images-na.ssl-images-amazon.com/images/M/MV5BM2IyNDRkNDYtY2YwZC00MjI5LWE5MjAtNGQ4MmM1NWIxOWVjXkEyXkFqcGdeQXVyMzI5NDcxNzI@._V1_UY44_CR0,0,32,44_AL_.jpg
p1691
sVcharacter
p1692
VKrug
p1693
sVname
p1694
VRobert Anderson
p1695
sa(dp1696
Vlink
p1697
Vhttp://www.imdb.com/name/nm0002233/?ref_=tt_cl_t9
p1698
sVimage
p1699
Vhttps://images-na.ssl-images-amazon.com/images/M/MV5BMjEyMTYwNTcyOF5BMl5BanBnXkFtZTYwMzQ2MjI2._V1_UY44_CR1,0,32,44_AL_.jpg
p1700
sVcharacter
p1701
VVon Bickel
p1702
sVname
p1703
VErich von Stroheim
p1704
sa(dp1705
Vlink
p1706
Vhttp://www.imdb.com/name/nm0504551/?ref_=tt_cl_t10
p1707
sVimage
p1708
g3
sVcharacter
p1709
VBeth's Father
p1710
sVname
p1711
VAdolph Lestina
p1712
sa(dp1713
Vlink
p1714
Vhttp://www.imdb.com/name/nm0115524/?ref_=tt_cl_t11
p1715
sVimage
p1716
g3
sVcharacter
p1717
VBeth's Mother
p1718
sVname
p1719
VKate Bruce
p1720
sasVlength
p1721
V50
p1722
sVrating_count
p1723
V5
p1724
sVstoryline
p1725
VA German-American father, loyal to his new U.S. home, finds himself on opposite sides with his son in the wartime conflict between Germany and America. The son becomes involved with German agents plotting against U.S., and the father must decide between his son and his adopted homeland.
p1726
sVstars
p1727
(lp1728
VDorothy Gish
p1729
aVGeorge Fawcett
p1730
aVCharles K. Gerrard
p1731
asVyear
p1732
V1918
p1733
sVgenre
p1734
(lp1735
VDrama
p1736
aVThriller
p1737
aVWar
p1738
asVtrailer
p1739
(lp1740
sVmetadata
p1741
(dp1742
Vasp_retio
p1743
V1.33 : 1
p1744
sVsound_mix
p1745
(lp1746
VSilent
p1747
asVgross
p1748
g3
sVcountries
p1749
(lp1750
VUSA
p1751
asVbudget
p1752
g3
sVlanguages
p1753
(lp1754
sVfilming_locations
p1755
(lp1756
sValso_known_as
p1757
(lp1758
VF-4
p1759
assa(dp1760
Vrating
p1761
g3
sVdescription
p1762
g3
sVtitle
p1763
VHungry Eyes
p1764
sVurl
p1765
(dp1766
Vurl
p1767
Vhttp://www.imdb.com/title/tt9213
p1768
ssVposter
p1769
(dp1770
Vlarge
p1771
Vhttps://images-na.ssl-images-amazon.com/images/M/MV5BMzUzYWQ5NWEtMmZhNy00ODk2LTllMjAtNmY3NjRkODAyODMwXkEyXkFqcGdeQXVyMjUxODE0MDY@._V1_.jpg
p1772
sVthumb
p1773
Vhttps://images-na.ssl-images-amazon.com/images/M/MV5BMzUzYWQ5NWEtMmZhNy00ODk2LTllMjAtNmY3NjRkODAyODMwXkEyXkFqcGdeQXVyMjUxODE0MDY@._V1_UY268_CR10,0,182,268_AL_.jpg
p1774
ssVrelease_date
p1775
V1918-03-11
p1776
sVcontent_rating
p1777
g3
sVoriginal_title
p1778
g3
sVwriters
p1779
(lp1780
VElliott J. Clawson
p1781
asVimdb_id
p1782
Vtt0009213
p1783
sVdirector
p1784
VRupert Julian
p1785
sVcast
p1786
(lp1787
(dp1788
Vlink
p1789
Vhttp://www.imdb.com/name/nm0432216/?ref_=tt_cl_t1
p1790
sVimage
p1791
Vhttps://images-na.ssl-images-amazon.com/images/M/MV5BMTcwNzkyMTI5MF5BMl5BanBnXkFtZTYwODkxMTU2._V1_UY44_CR0,0,32,44_AL_.jpg
p1792
sVcharacter
p1793
VJohn Silver
p1794
sVname
p1795
VRupert Julian
p1796
sa(dp1797
Vlink
p1798
Vhttp://www.imdb.com/name/nm0758457/?ref_=tt_cl_t2
p1799
sVimage
p1800
Vhttps://images-na.ssl-images-amazon.com/images/M/MV5BOTJlMzZhYmMtN2NmZS00MGIxLWFjN2YtYzA5YTFiZTIzODQ1XkEyXkFqcGdeQXVyMDUyOTUyNQ@@._V1_UY44_CR22,0,32,44_AL_.jpg
p1801
sVcharacter
p1802
VDale Revenal
p1803
sVname
p1804
VMonroe Salisbury
p1805
sa(dp1806
Vlink
p1807
Vhttp://www.imdb.com/name/nm0166681/?ref_=tt_cl_t3
p1808
sVimage
p1809
Vhttps://images-na.ssl-images-amazon.com/images/M/MV5BMTkwOTQyOTczNV5BMl5BanBnXkFtZTcwNzEzMzMzOA@@._V1_UY44_CR1,0,32,44_AL_.jpg
p1810
sVcharacter
p1811
VMary Jane Appleton
p1812
sVname
p1813
VRuth Clifford
p1814
sa(dp1815
Vlink
p1816
Vhttp://www.imdb.com/name/nm0047763/?ref_=tt_cl_t4
p1817
sVimage
p1818
g3
sVcharacter
p1819
VDudley Appleton
p1820
sVname
p1821
VW.H. Bainbridge
p1822
sa(dp1823
Vlink
p1824
Vhttp://www.imdb.com/name/nm0057889/?ref_=tt_cl_t5
p1825
sVimage
p1826
g3
sVcharacter
p1827
VJack Nelda       (as H.A. Barrows)
p1828
sVname
p1829
VHenry A. Barrows
p1830
sa(dp1831
Vlink
p1832
Vhttp://www.imdb.com/name/nm0851618/?ref_=tt_cl_t6
p1833
sVimage
p1834
g3
sVcharacter
p1835
VScotty
p1836
sVname
p1837
VArthur Tavares
p1838
sa(dp1839
Vlink
p1840
Vhttp://www.imdb.com/name/nm0496477/?ref_=tt_cl_t7
p1841
sVimage
p1842
Vhttps://images-na.ssl-images-amazon.com/images/M/MV5BZjNkOTBiZjItZGU1OS00ZTI3LWExZWYtMzdlNGY3YzdiN2VhL2ltYWdlL2ltYWdlXkEyXkFqcGdeQXVyMzI5NDcxNzI@._V1_UY44_CR1,0,32,44_AL_.jpg
p1843
sVcharacter
p1844
VBessie Dupont
p1845
sVname
p1846
VGretchen Lederer
p1847
sa(dp1848
Vlink
p1849
Vhttp://www.imdb.com/name/nm0567405/?ref_=tt_cl_t8
p1850
sVimage
p1851
g3
sVcharacter
p1852
VPinto Dupont       (as George McDaniel)
p1853
sVname
p1854
VGeorge A. McDaniel
p1855
sa(dp1856
Vlink
p1857
Vhttp://www.imdb.com/name/nm0681851/?ref_=tt_cl_t9
p1858
sVimage
p1859
g3
sVcharacter
p1860
VNellie
p1861
sVname
p1862
VRita Pickering
p1863
sasVlength
p1864
V50
p1865
sVrating_count
p1866
g3
sVstoryline
p1867
g3
sVstars
p1868
(lp1869
VRupert Julian
p1870
aVMonroe Salisbury
p1871
aVRuth Clifford
p1872
asVyear
p1873
V1918
p1874
sVgenre
p1875
(lp1876
VWestern
p1877
asVtrailer
p1878
(lp1879
sVmetadata
p1880
(dp1881
Vasp_retio
p1882
V1.33 : 1
p1883
sVsound_mix
p1884
(lp1885
VSilent
p1886
asVgross
p1887
g3
sVcountries
p1888
(lp1889
VUSA
p1890
asVbudget
p1891
g3
sVlanguages
p1892
(lp1893
VEnglish
p1894
asVfilming_locations
p1895
(lp1896
sValso_known_as
p1897
(lp1898
VHis Wife from Arizona
p1899
assa(dp1900
Vrating
p1901
V5.7
p1902
sVdescription
p1903
VLarry, apparently a wealthy young man-about-town, romances Vera, who has developed a new invention, a gas mask, for use in the war. Larry leaves Vera's house unaware that German spies are ...\u000a                    See full summary
p1904
sVtitle
p1905
VHuns and Hyphens
p1906
sVurl
p1907
(dp1908
Vurl
p1909
Vhttp://www.imdb.com/title/tt9214
p1910
ssVposter
p1911
(dp1912
Vlarge
p1913
Vhttps://images-na.ssl-images-amazon.com/images/M/MV5BOGU0YjAxYTAtMWQxZC00YjM5LWFmM2QtZjllMDJmNTczYmUxXkEyXkFqcGdeQXVyNTM3MDMyMDQ@._V1_.jpg
p1914
sVthumb
p1915
Vhttps://images-na.ssl-images-amazon.com/images/M/MV5BOGU0YjAxYTAtMWQxZC00YjM5LWFmM2QtZjllMDJmNTczYmUxXkEyXkFqcGdeQXVyNTM3MDMyMDQ@._V1_UY268_CR9,0,182,268_AL_.jpg
p1916
ssVrelease_date
p1917
V1918-09-23
p1918
sVcontent_rating
p1919
g3
sVoriginal_title
p1920
g3
sVwriters
p1921
(lp1922
VLarry Semon
p1923
asVimdb_id
p1924
Vtt0009214
p1925
sVdirector
p1926
VLarry Semon
p1927
sVcast
p1928
(lp1929
(dp1930
Vlink
p1931
Vhttp://www.imdb.com/name/nm0783865/?ref_=tt_cl_t1
p1932
sVimage
p1933
Vhttps://images-na.ssl-images-amazon.com/images/M/MV5BMjAyMjgyNTAyMl5BMl5BanBnXkFtZTgwMDIxMjI1MzE@._V1._CR133,173.5,729,977_UY44_CR0,0,32,44_AL_.jpg
p1934
sVcharacter
p1935
VLarry
p1936
sVname
p1937
VLarry Semon
p1938
sa(dp1939
Vlink
p1940
Vhttp://www.imdb.com/name/nm0456189/?ref_=tt_cl_t2
p1941
sVimage
p1942
g3
sVcharacter
p1943
VVera Bright
p1944
sVname
p1945
VMadge Kirby
p1946
sa(dp1947
Vlink
p1948
Vhttp://www.imdb.com/name/nm0491048/?ref_=tt_cl_t3
p1949
sVimage
p1950
Vhttps://images-na.ssl-images-amazon.com/images/M/MV5BMTUwNTE0OTA2Nl5BMl5BanBnXkFtZTYwODk1MjI2._V1_UY44_CR2,0,32,44_AL_.jpg
p1951
sVcharacter
p1952
VGang member
p1953
sVname
p1954
VStan Laurel
p1955
sa(dp1956
Vlink
p1957
Vhttp://www.imdb.com/name/nm0491044/?ref_=tt_cl_t4
p1958
sVimage
p1959
g3
sVcharacter
p1960
VWoman
p1961
sVname
p1962
VMae Laurel
p1963
sa(dp1964
Vlink
p1965
Vhttp://www.imdb.com/name/nm0564691/?ref_=tt_cl_t5
p1966
sVimage
p1967
Vhttps://images-na.ssl-images-amazon.com/images/M/MV5BMGVmNGQ4NjktMWM4OS00M2MwLWJhNmItNzY1OWRjM2ZiMmIwL2ltYWdlL2ltYWdlXkEyXkFqcGdeQXVyMzI5NDcxNzI@._V1_UY44_CR1,0,32,44_AL_.jpg
p1968
sVcharacter
p1969
VCustomer       (as Billy McCall)
p1970
sVname
p1971
VWilliam McCall
p1972
sa(dp1973
Vlink
p1974
Vhttp://www.imdb.com/name/nm0018419/?ref_=tt_cl_t6
p1975
sVimage
p1976
g3
sVcharacter
p1977
VCafe owner       (as Fatty Alexander)
p1978
sVname
p1979
VFrank Alexander
p1980
sa(dp1981
Vlink
p1982
Vhttp://www.imdb.com/name/nm0369148/?ref_=tt_cl_t7
p1983
sVimage
p1984
g3
sVcharacter
p1985
VWaiter       (as Bill Hauber)
p1986
sVname
p1987
VWilliam Hauber
p1988
sa(dp1989
Vlink
p1990
Vhttp://www.imdb.com/name/nm0330516/?ref_=tt_cl_t8
p1991
sVimage
p1992
g3
sVcharacter
p1993
VWaiter
p1994
sVname
p1995
VPete Gordon
p1996
sasVlength
p1997
V20
p1998
sVrating_count
p1999
V42
p2000
sVstoryline
p2001
VLarry, apparently a wealthy young man-about-town, romances Vera, who has developed a new invention, a gas mask, for use in the war. Larry leaves Vera's house unaware that German spies are attempting to steal the plans for her invention. At a restaurant, Larry turns out not to be wealthy, but simply one of the waiters. When Vera and her father arrive at the restaurant, they are shocked to see Larry working there, but even more shocked when the restaurant owner turns out to be the ringleader of the gang of spies. The gang attempts to steal the plans, with only Larry to rescue both the papers and Vera.
p2002
sVstars
p2003
(lp2004
VStan Laurel
p2005
aVLarry Semon
p2006
aVMadge Kirby
p2007
asVyear
p2008
V1918
p2009
sVgenre
p2010
(lp2011
VComedy
p2012
aVShort
p2013
asVtrailer
p2014
(lp2015
sVmetadata
p2016
(dp2017
Vasp_retio
p2018
V1.33 : 1
p2019
sVsound_mix
p2020
(lp2021
VSilent
p2022
asVgross
p2023
g3
sVcountries
p2024
(lp2025
VUSA
p2026
asVbudget
p2027
g3
sVlanguages
p2028
(lp2029
VEnglish
p2030
asVfilming_locations
p2031
(lp2032
sValso_known_as
p2033
(lp2034
VDas geheimnisvolle Dokument
p2035
assa(dp2036
Vrating
p2037
g3
sVdescription
p2038
g3
sVtitle
p2039
g3
sVurl
p2040
(dp2041
Vurl
p2042
Vhttp://www.imdb.com/title/tt9215
p2043
ssVposter
p2044
(dp2045
Vlarge
p2046
V_V1_.jpg
p2047
sVthumb
p2048
g3
ssVrelease_date
p2049
g3
sVcontent_rating
p2050
g3
sVoriginal_title
p2051
g3
sVwriters
p2052
(lp2053
sVimdb_id
p2054
g3
sVdirector
p2055
g3
sVcast
p2056
(lp2057
sVlength
p2058
g3
sVrating_count
p2059
g3
sVstoryline
p2060
g3
sVstars
p2061
(lp2062
sVyear
p2063
g3
sVgenre
p2064
(lp2065
sVtrailer
p2066
(lp2067
sVmetadata
p2068
(dp2069
Vasp_retio
p2070
g3
sVsound_mix
p2071
(lp2072
sVgross
p2073
g3
sVcountries
p2074
(lp2075
sVbudget
p2076
g3
sVlanguages
p2077
(lp2078
sVfilming_locations
p2079
(lp2080
sValso_known_as
p2081
(lp2082
ssa(dp2083
Vrating
p2084
g3
sVdescription
p2085
g3
sVtitle
p2086
VHunting the U-Boats
p2087
sVurl
p2088
(dp2089
Vurl
p2090
Vhttp://www.imdb.com/title/tt9216
p2091
ssVposter
p2092
(dp2093
Vlarge
p2094
Vhttp://ia.media-imdb.com/images/G/01/imdb/images/logos/imdb_fb_logo-1730868325._CB514892123_.png_V1_.jpg
p2095
sVthumb
p2096
g3
ssVrelease_date
p2097
V1918-07-21
p2098
sVcontent_rating
p2099
g3
sVoriginal_title
p2100
g3
sVwriters
p2101
(lp2102
VBud Fisher
p2103
asVimdb_id
p2104
Vtt0009216
p2105
sVdirector
p2106
VBud Fisher
p2107
sVcast
p2108
(lp2109
sVlength
p2110
g3
sVrating_count
p2111
g3
sVstoryline
p2112
g3
sVstars
p2113
(lp2114
sVyear
p2115
V1918
p2116
sVgenre
p2117
(lp2118
VAnimation
p2119
aVComedy
p2120
aVShort
p2121
asVtrailer
p2122
(lp2123
sVmetadata
p2124
(dp2125
Vasp_retio
p2126
V1.33 : 1
p2127
sVsound_mix
p2128
(lp2129
VSilent
p2130
asVgross
p2131
g3
sVcountries
p2132
(lp2133
VUSA
p2134
asVbudget
p2135
g3
sVlanguages
p2136
(lp2137
sVfilming_locations
p2138
(lp2139
sValso_known_as
p2140
(lp2141
ssa(dp2142
Vrating
p2143
g3
sVdescription
p2144
g3
sVtitle
p2145
VI Love You
p2146
sVurl
p2147
(dp2148
Vurl
p2149
Vhttp://www.imdb.com/title/tt9217
p2150
ssVposter
p2151
(dp2152
Vlarge
p2153
Vhttp://ia.media-imdb.com/images/G/01/imdb/images/logos/imdb_fb_logo-1730868325._CB514892123_.png_V1_.jpg
p2154
sVthumb
p2155
g3
ssVrelease_date
p2156
V1918-01-13
p2157
sVcontent_rating
p2158
g3
sVoriginal_title
p2159
g3
sVwriters
p2160
(lp2161
VCatherine Carr
p2162
asVimdb_id
p2163
Vtt0009217
p2164
sVdirector
p2165
VWalter Edwards
p2166
sVcast
p2167
(lp2168
(dp2169
Vlink
p2170
Vhttp://www.imdb.com/name/nm0747884/?ref_=tt_cl_t1
p2171
sVimage
p2172
Vhttps://images-na.ssl-images-amazon.com/images/M/MV5BMTkxMTQxNDI2MV5BMl5BanBnXkFtZTYwNjE5MTI2._V1_UY44_CR1,0,32,44_AL_.jpg
p2173
sVcharacter
p2174
VFelice
p2175
sVname
p2176
VAlma Rubens
p2177
sa(dp2178
Vlink
p2179
Vhttp://www.imdb.com/name/nm0511066/?ref_=tt_cl_t2
p2180
sVimage
p2181
g3
sVcharacter
p2182
VRavello
p2183
sVname
p2184
VJohn Lince
p2185
sa(dp2186
Vlink
p2187
Vhttp://www.imdb.com/name/nm0567756/?ref_=tt_cl_t3
p2188
sVimage
p2189
Vhttps://images-na.ssl-images-amazon.com/images/M/MV5BZjhiZGJjMTQtODcxOS00NjliLWI3ZWUtM2JlODYyZGE4MWY2XkEyXkFqcGdeQXVyMzI5NDcxNzI@._V1_UY44_CR3,0,32,44_AL_.jpg
p2190
sVcharacter
p2191
VJules Mardon
p2192
sVname
p2193
VFrancis McDonald
p2194
sa(dp2195
Vlink
p2196
Vhttp://www.imdb.com/name/nm0643048/?ref_=tt_cl_t4
p2197
sVimage
p2198
Vhttps://images-na.ssl-images-amazon.com/images/M/MV5BNjI0ZjFkZmEtZjNiNS00NTNkLTg1M2MtMDQ0ZDFmYmZkNmFiXkEyXkFqcGdeQXVyMDMxMjQwMw@@._V1_UY44_CR4,0,32,44_AL_.jpg
p2199
sVcharacter
p2200
VArmand de Gautier
p2201
sVname
p2202
VWheeler Oakman
p2203
sa(dp2204
Vlink
p2205
Vhttp://www.imdb.com/name/nm0089162/?ref_=tt_cl_t5
p2206
sVimage
p2207
g3
sVcharacter
p2208
VPrince del Chinay
p2209
sVname
p2210
VFrederick Vroom
p2211
sa(dp2212
Vlink
p2213
Vhttp://www.imdb.com/name/nm0486041/?ref_=tt_cl_t6
p2214
sVimage
p2215
g3
sVcharacter
p2216
VPrincess del Chinay
p2217
sVname
p2218
VLillian Langdon
p2219
sa(dp2220
Vlink
p2221
Vhttp://www.imdb.com/name/nm0413931/?ref_=tt_cl_t7
p2222
sVimage
p2223
g3
sVcharacter
p2224
VBoy
p2225
sVname
p2226
VPeaches Jackson
p2227
sasVlength
p2228
V70
p2229
sVrating_count
p2230
g3
sVstoryline
p2231
g3
sVstars
p2232
(lp2233
VAlma Rubens
p2234
aVJohn Lince
p2235
aVFrancis McDonald
p2236
asVyear
p2237
V1918
p2238
sVgenre
p2239
(lp2240
VDrama
p2241
asVtrailer
p2242
(lp2243
sVmetadata
p2244
(dp2245
Vasp_retio
p2246
V1.33 : 1
p2247
sVsound_mix
p2248
(lp2249
VSilent
p2250
asVgross
p2251
g3
sVcountries
p2252
(lp2253
VUSA
p2254
asVbudget
p2255
g3
sVlanguages
p2256
(lp2257
VEnglish
p2258
asVfilming_locations
p2259
(lp2260
sValso_known_as
p2261
(lp2262
VPassiflore
p2263
assa(dp2264
Vrating
p2265
g3
sVdescription
p2266
g3
sVtitle
p2267
VI Want to Forget
p2268
sVurl
p2269
(dp2270
Vurl
p2271
Vhttp://www.imdb.com/title/tt9218
p2272
ssVposter
p2273
(dp2274
Vlarge
p2275
Vhttp://ia.media-imdb.com/images/G/01/imdb/images/logos/imdb_fb_logo-1730868325._CB514892123_.png_V1_.jpg
p2276
sVthumb
p2277
g3
ssVrelease_date
p2278
V1918-12-15
p2279
sVcontent_rating
p2280
g3
sVoriginal_title
p2281
g3
sVwriters
p2282
(lp2283
VHarry O. Hoyt
p2284
aVHamilton Smith
p2285
asVimdb_id
p2286
Vtt0009218
p2287
sVdirector
p2288
VJames Kirkwood
p2289
sVcast
p2290
(lp2291
(dp2292
Vlink
p2293
Vhttp://www.imdb.com/name/nm0626336/?ref_=tt_cl_t1
p2294
sVimage
p2295
Vhttps://images-na.ssl-images-amazon.com/images/M/MV5BM2Q4NjYwMzItMjNiOS00YTFhLWIyYWEtM2ZmYzI4OTBlMWQ3XkEyXkFqcGdeQXVyMzI5NDcxNzI@._UY317_CR16,0,214,317_AL_.jpg
p2296
sVcharacter
p2297
VVarda Deering
p2298
sVname
p2299
VEvelyn Nesbit
p2300
sa(dp2301
Vlink
p2302
Vhttp://www.imdb.com/name/nm0857181/?ref_=tt_cl_t2
p2303
sVimage
p2304
g3
sVcharacter
p2305
VChauffeur's Son
p2306
sVname
p2307
VRussell Thaw
p2308
sa(dp2309
Vlink
p2310
Vhttp://www.imdb.com/name/nm0166975/?ref_=tt_cl_t3
p2311
sVimage
p2312
g3
sVcharacter
p2313
VLieutenant John Long
p2314
sVname
p2315
VHenry Clive
p2316
sa(dp2317
Vlink
p2318
Vhttp://www.imdb.com/name/nm0262080/?ref_=tt_cl_t4
p2319
sVimage
p2320
Vhttps://images-na.ssl-images-amazon.com/images/M/MV5BYTQxZGU3YjgtZWNkOC00MzM1LWE1YWEtYWY1ZjMwYWE0OTNjXkEyXkFqcGdeQXVyMzI5NDcxNzI@._V1_UY44_CR1,0,32,44_AL_.jpg
p2321
sVcharacter
p2322
VAugust Von Grossman
p2323
sVname
p2324
VAlphonse Ethier
p2325
sa(dp2326
Vlink
p2327
Vhttp://www.imdb.com/name/nm0242800/?ref_=tt_cl_t5
p2328
sVimage
p2329
Vhttps://images-na.ssl-images-amazon.com/images/M/MV5BYmIxY2NjNTktNjY5NS00MTEwLWJkZDQtYTMwMzAwZDBhZDM2XkEyXkFqcGdeQXVyMDUyOTUyNQ@@._V1_UY44_CR1,0,32,44_AL_.jpg
p2330
sVcharacter
p2331
VHelgar
p2332
sVname
p2333
VWilliam R. Dunn
p2334
sa(dp2335
Vlink
p2336
Vhttp://www.imdb.com/name/nm0421172/?ref_=tt_cl_t6
p2337
sVimage
p2338
g3
sVcharacter
p2339
VCordelia Deering
p2340
sVname
p2341
VJane Jennings
p2342
sasVlength
p2343
g3
sVrating_count
p2344
g3
sVstoryline
p2345
g3
sVstars
p2346
(lp2347
VEvelyn Nesbit
p2348
aVRussell Thaw
p2349
aVHenry Clive
p2350
asVyear
p2351
V1918
p2352
sVgenre
p2353
(lp2354
VDrama
p2355
asVtrailer
p2356
(lp2357
sVmetadata
p2358
(dp2359
Vasp_retio
p2360
V1.33 : 1
p2361
sVsound_mix
p2362
(lp2363
VSilent
p2364
asVgross
p2365
g3
sVcountries
p2366
(lp2367
VUSA
p2368
asVbudget
p2369
g3
sVlanguages
p2370
(lp2371
sVfilming_locations
p2372
(lp2373
sValso_known_as
p2374
(lp2375
VThe Fires of Redemption
p2376
assa(dp2377
Vrating
p2378
g3
sVdescription
p2379
g3
sVtitle
p2380
VI'll Say So
p2381
sVurl
p2382
(dp2383
Vurl
p2384
Vhttp://www.imdb.com/title/tt9219
p2385
ssVposter
p2386
(dp2387
Vlarge
p2388
Vhttp://ia.media-imdb.com/images/G/01/imdb/images/logos/imdb_fb_logo-1730868325._CB514892123_.png_V1_.jpg
p2389
sVthumb
p2390
g3
ssVrelease_date
p2391
V1918-12-22
p2392
sVcontent_rating
p2393
g3
sVoriginal_title
p2394
g3
sVwriters
p2395
(lp2396
VRalph Spence
p2397
asVimdb_id
p2398
Vtt0009219
p2399
sVdirector
p2400
VRaoul Walsh
p2401
sVcast
p2402
(lp2403
(dp2404
Vlink
p2405
Vhttp://www.imdb.com/name/nm0909648/?ref_=tt_cl_t1
p2406
sVimage
p2407
Vhttps://images-na.ssl-images-amazon.com/images/M/MV5BMTcyOTZmNmQtZDk4Yy00NjA4LTgyMzMtMTQ3MWM2NmRkMGVjXkEyXkFqcGdeQXVyMzI5NDcxNzI@._V1_UY44_CR3,0,32,44_AL_.jpg
p2408
sVcharacter
p2409
VBill Durham
p2410
sVname
p2411
VGeorge Walsh
p2412
sa(dp2413
Vlink
p2414
Vhttp://www.imdb.com/name/nm0703970/?ref_=tt_cl_t2
p2415
sVimage
p2416
g3
sVcharacter
p2417
VBarbara Knowles
p2418
sVname
p2419
VRegina Quinn
p2420
sa(dp2421
Vlink
p2422
Vhttp://www.imdb.com/name/nm0047534/?ref_=tt_cl_t3
p2423
sVimage
p2424
g3
sVcharacter
p2425
VAugust Myers
p2426
sVname
p2427
VWilliam Bailey
p2428
sa(dp2429
Vlink
p2430
Vhttp://www.imdb.com/name/nm0085319/?ref_=tt_cl_t4
p2431
sVimage
p2432
g3
sVcharacter
p2433
VCarl Vogel
p2434
sVname
p2435
VJames Black
p2436
sa(dp2437
Vlink
p2438
Vhttp://www.imdb.com/name/nm0444535/?ref_=tt_cl_t5
p2439
sVimage
p2440
g3
sVcharacter
p2441
VJudge
p2442
sVname
p2443
VEd Keeley
p2444
sasVlength
p2445
g3
sVrating_count
p2446
g3
sVstoryline
p2447
g3
sVstars
p2448
(lp2449
VGeorge Walsh
p2450
aVRegina Quinn
p2451
aVWilliam Bailey
p2452
asVyear
p2453
V1918
p2454
sVgenre
p2455
(lp2456
VComedy
p2457
aVWar
p2458
asVtrailer
p2459
(lp2460
sVmetadata
p2461
(dp2462
Vasp_retio
p2463
V1.33 : 1
p2464
sVsound_mix
p2465
(lp2466
VSilent
p2467
asVgross
p2468
g3
sVcountries
p2469
(lp2470
VUSA
p2471
asVbudget
p2472
g3
sVlanguages
p2473
(lp2474
sVfilming_locations
p2475
(lp2476
sValso_known_as
p2477
(lp2478
VLo dir&#242;
p2479
assa(dp2480
Vrating
p2481
g3
sVdescription
p2482
g3
sVtitle
p2483
g3
sVurl
p2484
(dp2485
Vurl
p2486
Vhttp://www.imdb.com/title/tt9220
p2487
ssVposter
p2488
(dp2489
Vlarge
p2490
V_V1_.jpg
p2491
sVthumb
p2492
g3
ssVrelease_date
p2493
g3
sVcontent_rating
p2494
g3
sVoriginal_title
p2495
g3
sVwriters
p2496
(lp2497
sVimdb_id
p2498
g3
sVdirector
p2499
g3
sVcast
p2500
(lp2501
sVlength
p2502
g3
sVrating_count
p2503
g3
sVstoryline
p2504
g3
sVstars
p2505
(lp2506
sVyear
p2507
g3
sVgenre
p2508
(lp2509
sVtrailer
p2510
(lp2511
sVmetadata
p2512
(dp2513
Vasp_retio
p2514
g3
sVsound_mix
p2515
(lp2516
sVgross
p2517
g3
sVcountries
p2518
(lp2519
sVbudget
p2520
g3
sVlanguages
p2521
(lp2522
sVfilming_locations
p2523
(lp2524
sValso_known_as
p2525
(lp2526
ssa(dp2527
Vrating
p2528
g3
sVdescription
p2529
g3
sVtitle
p2530
g3
sVurl
p2531
(dp2532
Vurl
p2533
Vhttp://www.imdb.com/title/tt9221
p2534
ssVposter
p2535
(dp2536
Vlarge
p2537
V_V1_.jpg
p2538
sVthumb
p2539
g3
ssVrelease_date
p2540
g3
sVcontent_rating
p2541
g3
sVoriginal_title
p2542
g3
sVwriters
p2543
(lp2544
sVimdb_id
p2545
g3
sVdirector
p2546
g3
sVcast
p2547
(lp2548
sVlength
p2549
g3
sVrating_count
p2550
g3
sVstoryline
p2551
g3
sVstars
p2552
(lp2553
sVyear
p2554
g3
sVgenre
p2555
(lp2556
sVtrailer
p2557
(lp2558
sVmetadata
p2559
(dp2560
Vasp_retio
p2561
g3
sVsound_mix
p2562
(lp2563
sVgross
p2564
g3
sVcountries
p2565
(lp2566
sVbudget
p2567
g3
sVlanguages
p2568
(lp2569
sVfilming_locations
p2570
(lp2571
sValso_known_as
p2572
(lp2573
ssa(dp2574
Vrating
p2575
g3
sVdescription
p2576
g3
sVtitle
p2577
g3
sVurl
p2578
(dp2579
Vurl
p2580
Vhttp://www.imdb.com/title/tt9222
p2581
ssVposter
p2582
(dp2583
Vlarge
p2584
V_V1_.jpg
p2585
sVthumb
p2586
g3
ssVrelease_date
p2587
g3
sVcontent_rating
p2588
g3
sVoriginal_title
p2589
g3
sVwriters
p2590
(lp2591
sVimdb_id
p2592
g3
sVdirector
p2593
g3
sVcast
p2594
(lp2595
sVlength
p2596
g3
sVrating_count
p2597
g3
sVstoryline
p2598
g3
sVstars
p2599
(lp2600
sVyear
p2601
g3
sVgenre
p2602
(lp2603
sVtrailer
p2604
(lp2605
sVmetadata
p2606
(dp2607
Vasp_retio
p2608
g3
sVsound_mix
p2609
(lp2610
sVgross
p2611
g3
sVcountries
p2612
(lp2613
sVbudget
p2614
g3
sVlanguages
p2615
(lp2616
sVfilming_locations
p2617
(lp2618
sValso_known_as
p2619
(lp2620
ssa(dp2621
Vrating
p2622
g3
sVdescription
p2623
g3
sVtitle
p2624
VIn Judgment of...
p2625
sVurl
p2626
(dp2627
Vurl
p2628
Vhttp://www.imdb.com/title/tt9223
p2629
ssVposter
p2630
(dp2631
Vlarge
p2632
Vhttp://ia.media-imdb.com/images/G/01/imdb/images/logos/imdb_fb_logo-1730868325._CB514892123_.png_V1_.jpg
p2633
sVthumb
p2634
g3
ssVrelease_date
p2635
V1918-08-12
p2636
sVcontent_rating
p2637
g3
sVoriginal_title
p2638
g3
sVwriters
p2639
(lp2640
VGeorge D. Baker
p2641
aVGeorge D. Baker
p2642
asVimdb_id
p2643
Vtt0009223
p2644
sVdirector
p2645
VGeorge D. Baker Will S. Davis
p2646
sVcast
p2647
(lp2648
(dp2649
Vlink
p2650
Vhttp://www.imdb.com/name/nm0632160/?ref_=tt_cl_t1
p2651
sVimage
p2652
Vhttps://images-na.ssl-images-amazon.com/images/M/MV5BMjEyOTY0MzY3OV5BMl5BanBnXkFtZTgwODQwOTY3MTE@._V1_UY44_CR1,0,32,44_AL_.jpg
p2653
sVcharacter
p2654
VMary Manners
p2655
sVname
p2656
VAnna Q. Nilsson
p2657
sa(dp2658
Vlink
p2659
Vhttp://www.imdb.com/name/nm0267916/?ref_=tt_cl_t2
p2660
sVimage
p2661
Vhttps://images-na.ssl-images-amazon.com/images/M/MV5BYWM3YTE2MGQtNWY2Zi00ZGJhLTg1MGItOWMwMDlmOWNiZWFmXkEyXkFqcGdeQXVyMzI5NDcxNzI@._UY317_CR16,0,214,317_AL_.jpg
p2662
sVcharacter
p2663
VDr. John O'Neill
p2664
sVname
p2665
VFranklyn Farnum
p2666
sa(dp2667
Vlink
p2668
Vhttp://www.imdb.com/name/nm0822059/?ref_=tt_cl_t3
p2669
sVimage
p2670
g3
sVcharacter
p2671
VJudge Brainard
p2672
sVname
p2673
VHerbert Standing
p2674
sa(dp2675
Vlink
p2676
Vhttp://www.imdb.com/name/nm0018393/?ref_=tt_cl_t4
p2677
sVimage
p2678
g3
sVcharacter
p2679
VRobert Brainard
p2680
sVname
p2681
VEdward Alexander
p2682
sa(dp2683
Vlink
p2684
Vhttp://www.imdb.com/name/nm0461438/?ref_=tt_cl_t5
p2685
sVimage
p2686
Vhttps://images-na.ssl-images-amazon.com/images/M/MV5BYWRhNzFlZmEtOWZiMC00NmQ5LWI4YmYtODUzMTQ1MWQ5MTM4XkEyXkFqcGdeQXVyMzI5NDcxNzI@._UY317_CR16,0,214,317_AL_.jpg
p2687
sVcharacter
p2688
VMrs. Manners
p2689
sVname
p2690
VLydia Knott
p2691
sa(dp2692
Vlink
p2693
Vhttp://www.imdb.com/name/nm0636132/?ref_=tt_cl_t6
p2694
sVimage
p2695
Vhttps://images-na.ssl-images-amazon.com/images/M/MV5BYTk3NDhiODktZTRjNC00ODI2LTk2YWYtZWJmNzBlOWVmYjJiXkEyXkFqcGdeQXVyMDUyOTUyNQ@@._V1_UY44_CR0,0,32,44_AL_.jpg
p2696
sVcharacter
p2697
VAndrew Vail
p2698
sVname
p2699
VHarry Northrup
p2700
sa(dp2701
Vlink
p2702
Vhttp://www.imdb.com/name/nm0014894/?ref_=tt_cl_t7
p2703
sVimage
p2704
Vhttps://images-na.ssl-images-amazon.com/images/M/MV5BMGNiOWI4NWQtNjI0NC00NjNmLTljOTYtNTRjNTdhMDBkOGIxXkEyXkFqcGdeQXVyMzAwOTU1MTk@._V1_UY44_CR10,0,32,44_AL_.jpg
p2705
sVcharacter
p2706
VMr. Manners
p2707
sVname
p2708
VSpottiswoode Aitken
p2709
sa(dp2710
Vlink
p2711
Vhttp://www.imdb.com/name/nm0341554/?ref_=tt_cl_t8
p2712
sVimage
p2713
g3
sVcharacter
p2714
VMrs. Brainard
p2715
sVname
p2716
VKatherine Griffith
p2717
sa(dp2718
Vlink
p2719
Vhttp://www.imdb.com/name/nm0241867/?ref_=tt_cl_t9
p2720
sVimage
p2721
g3
sVcharacter
p2722
VJ.A. Adams
p2723
sVname
p2724
VRobert Dunbar
p2725
sasVlength
p2726
V50
p2727
sVrating_count
p2728
g3
sVstoryline
p2729
g3
sVstars
p2730
(lp2731
VAnna Q. Nilsson
p2732
aVFranklyn Farnum
p2733
aVHerbert Standing
p2734
asVyear
p2735
V1918
p2736
sVgenre
p2737
(lp2738
VDrama
p2739
asVtrailer
p2740
(lp2741
sVmetadata
p2742
(dp2743
Vasp_retio
p2744
V1.33 : 1
p2745
sVsound_mix
p2746
(lp2747
VSilent
p2748
asVgross
p2749
g3
sVcountries
p2750
(lp2751
VUSA
p2752
asVbudget
p2753
g3
sVlanguages
p2754
(lp2755
sVfilming_locations
p2756
(lp2757
sValso_known_as
p2758
(lp2759
ssa(dp2760
Vrating
p2761
g3
sVdescription
p2762
VPolly, a young woman on the run from three unwanted suitors, checks into a hotel using an assumed name. This subterfuge leads a Secret Service agent to mistake her for a German spy, which ...\u000a                    See full summary
p2763
sVtitle
p2764
VIn Pursuit of Polly
p2765
sVurl
p2766
(dp2767
Vurl
p2768
Vhttp://www.imdb.com/title/tt9224
p2769
ssVposter
p2770
(dp2771
Vlarge
p2772
Vhttps://images-na.ssl-images-amazon.com/images/M/MV5BOGU3NTZkZGEtNDc0ZS00NjMyLTljMjQtZjk3NWMzYWM3YWQyXkEyXkFqcGdeQXVyNDY1NzU5NjY@._V1_.jpg
p2773
sVthumb
p2774
Vhttps://images-na.ssl-images-amazon.com/images/M/MV5BOGU3NTZkZGEtNDc0ZS00NjMyLTljMjQtZjk3NWMzYWM3YWQyXkEyXkFqcGdeQXVyNDY1NzU5NjY@._V1_UY268_CR74,0,182,268_AL_.jpg
p2775
ssVrelease_date
p2776
V1918-09-01
p2777
sVcontent_rating
p2778
g3
sVoriginal_title
p2779
g3
sVwriters
p2780
(lp2781
VIzola Forrester
p2782
aVMann Page
p2783
asVimdb_id
p2784
Vtt0009224
p2785
sVdirector
p2786
VChester Withey
p2787
sVcast
p2788
(lp2789
(dp2790
Vlink
p2791
Vhttp://www.imdb.com/name/nm0000992/?ref_=tt_cl_t1
p2792
sVimage
p2793
Vhttps://images-na.ssl-images-amazon.com/images/M/MV5BMTcyMjczNzk0NV5BMl5BanBnXkFtZTYwODI3MjI2._V1_UY44_CR1,0,32,44_AL_.jpg
p2794
sVcharacter
p2795
VPolly Marsden
p2796
sVname
p2797
VBillie Burke
p2798
sa(dp2799
Vlink
p2800
Vhttp://www.imdb.com/name/nm0576762/?ref_=tt_cl_t2
p2801
sVimage
p2802
Vhttps://images-na.ssl-images-amazon.com/images/M/MV5BMjI3Njk2NjE5M15BMl5BanBnXkFtZTgwMDQ0OTg0MzE@._V1._CR135,175,733,971_UY44_CR0,0,32,44_AL_.jpg
p2803
sVcharacter
p2804
VColby Mason
p2805
sVname
p2806
VThomas Meighan
p2807
sa(dp2808
Vlink
p2809
Vhttp://www.imdb.com/name/nm0521310/?ref_=tt_cl_t3
p2810
sVimage
p2811
Vhttps://images-na.ssl-images-amazon.com/images/M/MV5BZjRmMTZkYWItYjlhZi00ZDU0LTkyZDctMGU0OWIzYzQ0OGRiXkEyXkFqcGdeQXVyMzI5NDcxNzI@._V1_UY44_CR0,0,32,44_AL_.jpg
p2812
sVcharacter
p2813
VBuck Marsden
p2814
sVname
p2815
VFrank Losee
p2816
sa(dp2817
Vlink
p2818
Vhttp://www.imdb.com/name/nm0378500/?ref_=tt_cl_t4
p2819
sVimage
p2820
g3
sVcharacter
p2821
VTalbot Sturgis
p2822
sVname
p2823
VA.J. Herbert
p2824
sa(dp2825
Vlink
p2826
Vhttp://www.imdb.com/name/nm0203527/?ref_=tt_cl_t5
p2827
sVimage
p2828
Vhttps://images-na.ssl-images-amazon.com/images/M/MV5BMWQ5NGU5MzYtMDQxMS00ODkyLWFkZjQtMGFiMGIyYjRmMmRmXkEyXkFqcGdeQXVyMzI5NDcxNzI@._UY317_CR16,0,214,317_AL_.jpg
p2829
sVcharacter
p2830
VLarry O'Malley
p2831
sVname
p2832
VWilliam B. Davidson
p2833
sa(dp2834
Vlink
p2835
Vhttp://www.imdb.com/name/nm0382700/?ref_=tt_cl_t6
p2836
sVimage
p2837
g3
sVcharacter
p2838
VO'Leary
p2839
sVname
p2840
VAlfred Hickman
p2841
sa(dp2842
Vlink
p2843
Vhttp://www.imdb.com/name/nm0214298/?ref_=tt_cl_t7
p2844
sVimage
p2845
g3
sVcharacter
p2846
VEmile Kremer
p2847
sVname
p2848
VBen Deeley
p2849
sasVlength
p2850
V50
p2851
sVrating_count
p2852
g3
sVstoryline
p2853
VPolly, a young woman on the run from three unwanted suitors, checks into a hotel using an assumed name. This subterfuge leads a Secret Service agent to mistake her for a German spy, which in turn leads her to become unwittingly involved with real German spies.
p2854
sVstars
p2855
(lp2856
VBillie Burke
p2857
aVThomas Meighan
p2858
aVFrank Losee
p2859
asVyear
p2860
V1918
p2861
sVgenre
p2862
(lp2863
VComedy
p2864
aVDrama
p2865
asVtrailer
p2866
(lp2867
sVmetadata
p2868
(dp2869
Vasp_retio
p2870
V1.33 : 1
p2871
sVsound_mix
p2872
(lp2873
VSilent
p2874
asVgross
p2875
g3
sVcountries
p2876
(lp2877
VUSA
p2878
asVbudget
p2879
g3
sVlanguages
p2880
(lp2881
sVfilming_locations
p2882
(lp2883
VOyster Bay
p2884
aVLong Island
p2885
aVNew York
p2886
aVUSA
p2887
asValso_known_as
p2888
(lp2889
VThe Pursuit of Polly
p2890
assa(dp2891
Vrating
p2892
g3
sVdescription
p2893
g3
sVtitle
p2894
g3
sVurl
p2895
(dp2896
Vurl
p2897
Vhttp://www.imdb.com/title/tt9225
p2898
ssVposter
p2899
(dp2900
Vlarge
p2901
V_V1_.jpg
p2902
sVthumb
p2903
g3
ssVrelease_date
p2904
g3
sVcontent_rating
p2905
g3
sVoriginal_title
p2906
g3
sVwriters
p2907
(lp2908
sVimdb_id
p2909
g3
sVdirector
p2910
g3
sVcast
p2911
(lp2912
sVlength
p2913
g3
sVrating_count
p2914
g3
sVstoryline
p2915
g3
sVstars
p2916
(lp2917
sVyear
p2918
g3
sVgenre
p2919
(lp2920
sVtrailer
p2921
(lp2922
sVmetadata
p2923
(dp2924
Vasp_retio
p2925
g3
sVsound_mix
p2926
(lp2927
sVgross
p2928
g3
sVcountries
p2929
(lp2930
sVbudget
p2931
g3
sVlanguages
p2932
(lp2933
sVfilming_locations
p2934
(lp2935
sValso_known_as
p2936
(lp2937
ssa(dp2938
Vrating
p2939
g3
sVdescription
p2940
g3
sVtitle
p2941
g3
sVurl
p2942
(dp2943
Vurl
p2944
Vhttp://www.imdb.com/title/tt9226
p2945
ssVposter
p2946
(dp2947
Vlarge
p2948
V_V1_.jpg
p2949
sVthumb
p2950
g3
ssVrelease_date
p2951
g3
sVcontent_rating
p2952
g3
sVoriginal_title
p2953
g3
sVwriters
p2954
(lp2955
sVimdb_id
p2956
g3
sVdirector
p2957
g3
sVcast
p2958
(lp2959
sVlength
p2960
g3
sVrating_count
p2961
g3
sVstoryline
p2962
g3
sVstars
p2963
(lp2964
sVyear
p2965
g3
sVgenre
p2966
(lp2967
sVtrailer
p2968
(lp2969
sVmetadata
p2970
(dp2971
Vasp_retio
p2972
g3
sVsound_mix
p2973
(lp2974
sVgross
p2975
g3
sVcountries
p2976
(lp2977
sVbudget
p2978
g3
sVlanguages
p2979
(lp2980
sVfilming_locations
p2981
(lp2982
sValso_known_as
p2983
(lp2984
ssa(dp2985
Vrating
p2986
g3
sVdescription
p2987
VA middle-aged couple find their rural lives in disarray when they inherit eighty-nine million dollars.
p2988
sVtitle
p2989
VIndependence, B'Gosh
p2990
sVurl
p2991
(dp2992
Vurl
p2993
Vhttp://www.imdb.com/title/tt9227
p2994
ssVposter
p2995
(dp2996
Vlarge
p2997
Vhttp://ia.media-imdb.com/images/G/01/imdb/images/logos/imdb_fb_logo-1730868325._CB514892123_.png_V1_.jpg
p2998
sVthumb
p2999
g3
ssVrelease_date
p3000
V1918-12-08
p3001
sVcontent_rating
p3002
g3
sVoriginal_title
p3003
g3
sVwriters
p3004
(lp3005
VJames Montgomery Flagg
p3006
asVimdb_id
p3007
Vtt0009227
p3008
sVdirector
p3009
VJames Montgomery Flagg
p3010
sVcast
p3011
(lp3012
(dp3013
Vlink
p3014
Vhttp://www.imdb.com/name/nm0398250/?ref_=tt_cl_t1
p3015
sVimage
p3016
Vhttps://images-na.ssl-images-amazon.com/images/M/MV5BMjMwOGZlNzItODMwYS00MmIzLTlkNGMtMGZlMzZhNjFiMWFjXkEyXkFqcGdeQXVyMDMxMjQwMw@@._UY317_CR16,0,214,317_AL_.jpg
p3017
sVcharacter
p3018
V(as Olin Howlin)
p3019
sVname
p3020
VOlin Howland
p3021
sa(dp3022
Vlink
p3023
Vhttp://www.imdb.com/name/nm0228826/?ref_=tt_cl_t2
p3024
sVimage
p3025
g3
sVcharacter
p3026
g3
sVname
p3027
VFlorence Dixon
p3028
sa(dp3029
Vlink
p3030
Vhttp://www.imdb.com/name/nm6799627/?ref_=tt_cl_t3
p3031
sVimage
p3032
g3
sVcharacter
p3033
g3
sVname
p3034
VJoseph Burke
p3035
sa(dp3036
Vlink
p3037
Vhttp://www.imdb.com/name/nm0455516/?ref_=tt_cl_t4
p3038
sVimage
p3039
g3
sVcharacter
p3040
g3
sVname
p3041
VFlorida Kingsley
p3042
sasVlength
p3043
V20
p3044
sVrating_count
p3045
g3
sVstoryline
p3046
VA middle-aged couple find their rural lives in disarray when they inherit eighty-nine million dollars.
p3047
sVstars
p3048
(lp3049
VOlin Howland
p3050
aVFlorence Dixon
p3051
aVJoseph Burke
p3052
asVyear
p3053
V1918
p3054
sVgenre
p3055
(lp3056
VComedy
p3057
aVShort
p3058
asVtrailer
p3059
(lp3060
sVmetadata
p3061
(dp3062
Vasp_retio
p3063
V1.33 : 1
p3064
sVsound_mix
p3065
(lp3066
VSilent
p3067
asVgross
p3068
g3
sVcountries
p3069
(lp3070
VUSA
p3071
asVbudget
p3072
g3
sVlanguages
p3073
(lp3074
VEnglish
p3075
asVfilming_locations
p3076
(lp3077
sValso_known_as
p3078
(lp3079
ssa(dp3080
Vrating
p3081
g3
sVdescription
p3082
g3
sVtitle
p3083
g3
sVurl
p3084
(dp3085
Vurl
p3086
Vhttp://www.imdb.com/title/tt9228
p3087
ssVposter
p3088
(dp3089
Vlarge
p3090
V_V1_.jpg
p3091
sVthumb
p3092
g3
ssVrelease_date
p3093
g3
sVcontent_rating
p3094
g3
sVoriginal_title
p3095
g3
sVwriters
p3096
(lp3097
sVimdb_id
p3098
g3
sVdirector
p3099
g3
sVcast
p3100
(lp3101
sVlength
p3102
g3
sVrating_count
p3103
g3
sVstoryline
p3104
g3
sVstars
p3105
(lp3106
sVyear
p3107
g3
sVgenre
p3108
(lp3109
sVtrailer
p3110
(lp3111
sVmetadata
p3112
(dp3113
Vasp_retio
p3114
g3
sVsound_mix
p3115
(lp3116
sVgross
p3117
g3
sVcountries
p3118
(lp3119
sVbudget
p3120
g3
sVlanguages
p3121
(lp3122
sVfilming_locations
p3123
(lp3124
sValso_known_as
p3125
(lp3126
ssa(dp3127
Vrating
p3128
g3
sVdescription
p3129
g3
sVtitle
p3130
VInside the Lines
p3131
sVurl
p3132
(dp3133
Vurl
p3134
Vhttp://www.imdb.com/title/tt9229
p3135
ssVposter
p3136
(dp3137
Vlarge
p3138
Vhttps://images-na.ssl-images-amazon.com/images/M/MV5BMGZkNGZiNmMtNTIxYy00ZjU5LWJiZGQtZmU2YjE5NmRmYjY5XkEyXkFqcGdeQXVyMjUxODE0MDY@._V1_.jpg
p3139
sVthumb
p3140
Vhttps://images-na.ssl-images-amazon.com/images/M/MV5BMGZkNGZiNmMtNTIxYy00ZjU5LWJiZGQtZmU2YjE5NmRmYjY5XkEyXkFqcGdeQXVyMjUxODE0MDY@._V1_UY268_CR10,0,182,268_AL_.jpg
p3141
ssVrelease_date
p3142
V1918-08-26
p3143
sVcontent_rating
p3144
g3
sVoriginal_title
p3145
g3
sVwriters
p3146
(lp3147
VEarl Derr Biggers
p3148
asVimdb_id
p3149
Vtt0009229
p3150
sVdirector
p3151
VDavid Hartford
p3152
sVcast
p3153
(lp3154
(dp3155
Vlink
p3156
Vhttp://www.imdb.com/name/nm0832011/?ref_=tt_cl_t1
p3157
sVimage
p3158
Vhttps://images-na.ssl-images-amazon.com/images/M/MV5BMjEwMDQyMjIzMl5BMl5BanBnXkFtZTgwNzc3MTI1MzE@._V1._CR97,133,560,741_UY44_CR0,0,32,44_AL_.jpg
p3159
sVcharacter
p3160
VCaptain Cavendish
p3161
sVname
p3162
VLewis Stone
p3163
sa(dp3164
Vlink
p3165
Vhttp://www.imdb.com/name/nm0165744/?ref_=tt_cl_t2
p3166
sVimage
p3167
Vhttps://images-na.ssl-images-amazon.com/images/M/MV5BMzllMjU4ODMtNmUyZC00ZWNmLWE1MTgtZWIwMTM5Yzg2ZGM1XkEyXkFqcGdeQXVyMDUyOTUyNQ@@._V1_UY44_CR10,0,32,44_AL_.jpg
p3168
sVcharacter
p3169
VJane Gerson
p3170
sVname
p3171
VMarguerite Clayton
p3172
sa(dp3173
Vlink
p3174
Vhttp://www.imdb.com/name/nm0275941/?ref_=tt_cl_t3
p3175
sVimage
p3176
g3
sVcharacter
p3177
VDa'mihr
p3178
sVname
p3179
VGeorge Field
p3180
sa(dp3181
Vlink
p3182
Vhttp://www.imdb.com/name/nm0020109/?ref_=tt_cl_t4
p3183
sVimage
p3184
Vhttps://images-na.ssl-images-amazon.com/images/M/MV5BYmZlZWVkMzYtNjM0ZS00OWE0LThhOTYtZThmNDFjYzViMDZhXkEyXkFqcGdeQXVyMzI5NDcxNzI@._UY317_CR16,0,214,317_AL_.jpg
p3185
sVcharacter
p3186
VBilly Copper
p3187
sVname
p3188
VArthur Allardt
p3189
sa(dp3190
Vlink
p3191
Vhttp://www.imdb.com/name/nm0366689/?ref_=tt_cl_t5
p3192
sVimage
p3193
Vhttps://images-na.ssl-images-amazon.com/images/M/MV5BMjNhMzc5YzEtODA4ZS00ODRjLWI4Y2EtZTU0ZDhkM2MwN2IxXkEyXkFqcGdeQXVyMzI5NDcxNzI@._V1_UY44_CR3,0,32,44_AL_.jpg
p3194
sVcharacter
p3195
VDr. Emil Koch
p3196
sVname
p3197
VDavid Hartford
p3198
sa(dp3199
Vlink
p3200
Vhttp://www.imdb.com/name/nm0802309/?ref_=tt_cl_t6
p3201
sVimage
p3202
g3
sVcharacter
p3203
VMajor Gen
p3204
sVname
p3205
VJoseph Singleton
p3206
sa(dp3207
Vlink
p3208
Vhttp://www.imdb.com/name/nm0241838/?ref_=tt_cl_t7
p3209
sVimage
p3210
Vhttps://images-na.ssl-images-amazon.com/images/M/MV5BZDFlNmI2YmYtNmJkNC00MDU0LTg0NDYtYjdiNDljNjliNGZiL2ltYWdlL2ltYWdlXkEyXkFqcGdeQXVyMzI5NDcxNzI@._V1_UY44_CR6,0,32,44_AL_.jpg
p3211
sVcharacter
p3212
VMrs. Crandall
p3213
sVname
p3214
VHelen Dunbar
p3215
sa(dp3216
Vlink
p3217
Vhttp://www.imdb.com/name/nm0915654/?ref_=tt_cl_t8
p3218
sVimage
p3219
g3
sVcharacter
p3220
VCaptain Woodhouse
p3221
sVname
p3222
VWillard Wayne
p3223
sa(dp3224
Vlink
p3225
Vhttp://www.imdb.com/name/nm0243665/?ref_=tt_cl_t9
p3226
sVimage
p3227
g3
sVcharacter
p3228
VJoseph Almer
p3229
sVname
p3230
VWilliam Durall
p3231
sa(dp3232
Vlink
p3233
Vhttp://www.imdb.com/name/nm0902377/?ref_=tt_cl_t10
p3234
sVimage
p3235
g3
sVcharacter
p3236
VKarl Hellinger
p3237
sVname
p3238
VFritz von Hardenberg
p3239
sa(dp3240
Vlink
p3241
Vhttp://www.imdb.com/name/nm0169088/?ref_=tt_cl_t11
p3242
sVimage
p3243
g3
sVcharacter
p3244
VHenry Sherman
p3245
sVname
p3246
VNick Cogley
p3247
sa(dp3248
Vlink
p3249
Vhttp://www.imdb.com/name/nm0507275/?ref_=tt_cl_t12
p3250
sVimage
p3251
g3
sVcharacter
p3252
VMrs. Henry Sherman
p3253
sVname
p3254
VIda Lewis
p3255
sa(dp3256
Vlink
p3257
Vhttp://www.imdb.com/name/nm0379064/?ref_=tt_cl_t13
p3258
sVimage
p3259
g3
sVcharacter
p3260
g3
sVname
p3261
VCarl Herlinger
p3262
sasVlength
p3263
g3
sVrating_count
p3264
g3
sVstoryline
p3265
g3
sVstars
p3266
(lp3267
VLewis Stone
p3268
aVMarguerite Clayton
p3269
aVGeorge Field
p3270
asVyear
p3271
V1918
p3272
sVgenre
p3273
(lp3274
VDrama
p3275
aVWar
p3276
asVtrailer
p3277
(lp3278
sVmetadata
p3279
(dp3280
Vasp_retio
p3281
V1.33 : 1
p3282
sVsound_mix
p3283
(lp3284
VSilent
p3285
asVgross
p3286
g3
sVcountries
p3287
(lp3288
VUSA
p3289
asVbudget
p3290
g3
sVlanguages
p3291
(lp3292
sVfilming_locations
p3293
(lp3294
sValso_known_as
p3295
(lp3296
ssa(dp3297
Vrating
p3298
g3
sVdescription
p3299
g3
sVtitle
p3300
VLos intereses creados
p3301
sVurl
p3302
(dp3303
Vurl
p3304
Vhttp://www.imdb.com/title/tt9230
p3305
ssVposter
p3306
(dp3307
Vlarge
p3308
Vhttp://ia.media-imdb.com/images/G/01/imdb/images/logos/imdb_fb_logo-1730868325._CB514892123_.png_V1_.jpg
p3309
sVthumb
p3310
g3
ssVrelease_date
p3311
V1919-01-07
p3312
sVcontent_rating
p3313
g3
sVoriginal_title
p3314
g3
sVwriters
p3315
(lp3316
VJacinto Benavente
p3317
aVJacinto Benavente
p3318
asVimdb_id
p3319
Vtt0009230
p3320
sVdirector
p3321
VJacinto Benavente Ricardo Puga
p3322
sVcast
p3323
(lp3324
(dp3325
Vlink
p3326
Vhttp://www.imdb.com/name/nm0700003/?ref_=tt_cl_t1
p3327
sVimage
p3328
g3
sVcharacter
p3329
VCrispin
p3330
sVname
p3331
VRicardo Puga
p3332
sa(dp3333
Vlink
p3334
Vhttp://www.imdb.com/name/nm0207193/?ref_=tt_cl_t2
p3335
sVimage
p3336
g3
sVcharacter
p3337
VLeandro
p3338
sVname
p3339
VRaymonde de Bach
p3340
sa(dp3341
Vlink
p3342
Vhttp://www.imdb.com/name/nm0037385/?ref_=tt_cl_t3
p3343
sVimage
p3344
g3
sVcharacter
p3345
VSilva
p3346
sVname
p3347
VTeresa Arroniz
p3348
sa(dp3349
Vlink
p3350
Vhttp://www.imdb.com/name/nm0269175/?ref_=tt_cl_t4
p3351
sVimage
p3352
g3
sVcharacter
p3353
VColombina
p3354
sVname
p3355
VIsabel Faure
p3356
sa(dp3357
Vlink
p3358
Vhttp://www.imdb.com/name/nm0581816/?ref_=tt_cl_t5
p3359
sVimage
p3360
g3
sVcharacter
p3361
VDo&#241;a Violante
p3362
sVname
p3363
VEmilio Mesejo
p3364
sa(dp3365
Vlink
p3366
Vhttp://www.imdb.com/name/nm0692359/?ref_=tt_cl_t6
p3367
sVimage
p3368
g3
sVcharacter
p3369
VPolichinela
p3370
sVname
p3371
VJos Portes
p3372
sa(dp3373
Vlink
p3374
Vhttp://www.imdb.com/name/nm0784724/?ref_=tt_cl_t7
p3375
sVimage
p3376
g3
sVcharacter
p3377
VPantalon
p3378
sVname
p3379
Vngel Seplveda
p3380
sa(dp3381
Vlink
p3382
Vhttp://www.imdb.com/name/nm0844900/?ref_=tt_cl_t8
p3383
sVimage
p3384
g3
sVcharacter
p3385
VDo&#241;a Sirena
p3386
sVname
p3387
VElisa Snchez
p3388
sa(dp3389
Vlink
p3390
Vhttp://www.imdb.com/name/nm0118272/?ref_=tt_cl_t9
p3391
sVimage
p3392
Vhttps://images-na.ssl-images-amazon.com/images/M/MV5BMDJhMjg2MGItODY0My00YjUzLWFiZDItMTljYTk4MjgxZTFlXkEyXkFqcGdeQXVyNTUyMTMyMDg@._UY317_CR16,0,214,317_AL_.jpg
p3393
sVcharacter
p3394
VArlequin
p3395
sVname
p3396
VJos Buchs
p3397
sa(dp3398
Vlink
p3399
Vhttp://www.imdb.com/name/nm0884588/?ref_=tt_cl_t10
p3400
sVimage
p3401
g3
sVcharacter
p3402
VSe&#241;ora de Polichinela
p3403
sVname
p3404
VDolores Valero
p3405
sa(dp3406
Vlink
p3407
Vhttp://www.imdb.com/name/nm3884795/?ref_=tt_cl_t11
p3408
sVimage
p3409
g3
sVcharacter
p3410
VCapit&#225;n
p3411
sVname
p3412
VManolo Gonzlez
p3413
sa(dp3414
Vlink
p3415
Vhttp://www.imdb.com/name/nm3884779/?ref_=tt_cl_t12
p3416
sVimage
p3417
g3
sVcharacter
p3418
VHostelero
p3419
sVname
p3420
VMarchante
p3421
sasVlength
p3422
g3
sVrating_count
p3423
g3
sVstoryline
p3424
g3
sVstars
p3425
(lp3426
VRicardo Puga
p3427
aVRaymonde de Bach
p3428
aVTeresa Arroniz
p3429
asVyear
p3430
V1919
p3431
sVgenre
p3432
(lp3433
VComedy
p3434
asVtrailer
p3435
(lp3436
sVmetadata
p3437
(dp3438
Vasp_retio
p3439
V1.33 : 1
p3440
sVsound_mix
p3441
(lp3442
VSilent
p3443
asVgross
p3444
g3
sVcountries
p3445
(lp3446
VSpain
p3447
asVbudget
p3448
g3
sVlanguages
p3449
(lp3450
VSpanish
p3451
asVfilming_locations
p3452
(lp3453
sValso_known_as
p3454
(lp3455
ssa(dp3456
Vrating
p3457
g3
sVdescription
p3458
g3
sVtitle
p3459
VThe Interloper
p3460
sVurl
p3461
(dp3462
Vurl
p3463
Vhttp://www.imdb.com/title/tt9231
p3464
ssVposter
p3465
(dp3466
Vlarge
p3467
Vhttp://ia.media-imdb.com/images/G/01/imdb/images/logos/imdb_fb_logo-1730868325._CB514892123_.png_V1_.jpg
p3468
sVthumb
p3469
g3
ssVrelease_date
p3470
V1918-06-03
p3471
sVcontent_rating
p3472
g3
sVoriginal_title
p3473
g3
sVwriters
p3474
(lp3475
VClara Beranger
p3476
aVWallace Clifton
p3477
asVimdb_id
p3478
Vtt0009231
p3479
sVdirector
p3480
VOscar Apfel
p3481
sVcast
p3482
(lp3483
(dp3484
Vlink
p3485
Vhttp://www.imdb.com/name/nm0330373/?ref_=tt_cl_t1
p3486
sVimage
p3487
Vhttps://images-na.ssl-images-amazon.com/images/M/MV5BMTg2MjY2Mzg4Ml5BMl5BanBnXkFtZTgwNjQ4NDk3MTE@._V1._CR28.883331298828125,30.533340454101562,312,438_UX32_CR0,0,32,44_AL_.jpg
p3488
sVcharacter
p3489
VJane Cameron
p3490
sVname
p3491
VKitty Gordon
p3492
sa(dp3493
Vlink
p3494
Vhttp://www.imdb.com/name/nm0191899/?ref_=tt_cl_t2
p3495
sVimage
p3496
Vhttps://images-na.ssl-images-amazon.com/images/M/MV5BNTE3NmM1ZTUtYmJjZS00Yjc3LWFiOTgtNjM5N2FlN2U5NTc5XkEyXkFqcGdeQXVyMDUyOTUyNQ@@._UY317_CR16,0,214,317_AL_.jpg
p3497
sVcharacter
p3498
VPaul Whitney
p3499
sVname
p3500
VIrving Cummings
p3501
sa(dp3502
Vlink
p3503
Vhttp://www.imdb.com/name/nm0177330/?ref_=tt_cl_t3
p3504
sVimage
p3505
g3
sVcharacter
p3506
VWhitney Pere
p3507
sVname
p3508
VWarren Cook
p3509
sa(dp3510
Vlink
p3511
Vhttp://www.imdb.com/name/nm0078543/?ref_=tt_cl_t4
p3512
sVimage
p3513
g3
sVcharacter
p3514
VMrs. Whitney       (as Isabelle Berwin)
p3515
sVname
p3516
VIsabel Berwin
p3517
sa(dp3518
Vlink
p3519
Vhttp://www.imdb.com/name/nm0085756/?ref_=tt_cl_t5
p3520
sVimage
p3521
g3
sVcharacter
p3522
VAunt Patricia
p3523
sVname
p3524
VJune Blackman
p3525
sa(dp3526
Vlink
p3527
Vhttp://www.imdb.com/name/nm0562866/?ref_=tt_cl_t6
p3528
sVimage
p3529
Vhttps://images-na.ssl-images-amazon.com/images/M/MV5BMWNkMDNkMTItNGY1NC00OTIzLTg2NjUtZWQ2MTFhNzk0NGU1XkEyXkFqcGdeQXVyMzI5NDcxNzI@._V1_UY44_CR0,0,32,44_AL_.jpg
p3530
sVcharacter
p3531
VEdmond Knapp
p3532
sVname
p3533
VFrank Mayo
p3534
sa(dp3535
Vlink
p3536
Vhttp://www.imdb.com/name/nm0534255/?ref_=tt_cl_t7
p3537
sVimage
p3538
Vhttps://images-na.ssl-images-amazon.com/images/M/MV5BMmU1YzBlNDctMDk1ZC00ZGM0LWJlODgtNDlmNDY2NGI4N2FhXkEyXkFqcGdeQXVyMzI5NDcxNzI@._V1_UY44_CR3,0,32,44_AL_.jpg
p3539
sVcharacter
p3540
VCourtney Carvel
p3541
sVname
p3542
VGeorge MacQuarrie
p3543
sa(dp3544
Vlink
p3545
Vhttp://www.imdb.com/name/nm0125989/?ref_=tt_cl_t8
p3546
sVimage
p3547
g3
sVcharacter
p3548
VEph
p3549
sVname
p3550
VAnthony Byrd
p3551
sa(dp3552
Vlink
p3553
Vhttp://www.imdb.com/name/nm0704531/?ref_=tt_cl_t9
p3554
sVimage
p3555
g3
sVcharacter
p3556
VKamoto
p3557
sVname
p3558
VI. Quong
p3559
sa(dp3560
Vlink
p3561
Vhttp://www.imdb.com/name/nm0131745/?ref_=tt_cl_t10
p3562
sVimage
p3563
g3
sVcharacter
p3564
VThe Whitney's Butler
p3565
sVname
p3566
VTom Cameron
p3567
sasVlength
p3568
V50
p3569
sVrating_count
p3570
g3
sVstoryline
p3571
g3
sVstars
p3572
(lp3573
VKitty Gordon
p3574
aVIrving Cummings
p3575
aVWarren Cook
p3576
asVyear
p3577
V1918
p3578
sVgenre
p3579
(lp3580
VDrama
p3581
asVtrailer
p3582
(lp3583
sVmetadata
p3584
(dp3585
Vasp_retio
p3586
V1.33 : 1
p3587
sVsound_mix
p3588
(lp3589
VSilent
p3590
asVgross
p3591
g3
sVcountries
p3592
(lp3593
VUSA
p3594
asVbudget
p3595
g3
sVlanguages
p3596
(lp3597
sVfilming_locations
p3598
(lp3599
sValso_known_as
p3600
(lp3601
VHer Great Moment
p3602
assa(dp3603
Vrating
p3604
g3
sVdescription
p3605
g3
sVtitle
p3606
g3
sVurl
p3607
(dp3608
Vurl
p3609
Vhttp://www.imdb.com/title/tt9232
p3610
ssVposter
p3611
(dp3612
Vlarge
p3613
V_V1_.jpg
p3614
sVthumb
p3615
g3
ssVrelease_date
p3616
g3
sVcontent_rating
p3617
g3
sVoriginal_title
p3618
g3
sVwriters
p3619
(lp3620
sVimdb_id
p3621
g3
sVdirector
p3622
g3
sVcast
p3623
(lp3624
sVlength
p3625
g3
sVrating_count
p3626
g3
sVstoryline
p3627
g3
sVstars
p3628
(lp3629
sVyear
p3630
g3
sVgenre
p3631
(lp3632
sVtrailer
p3633
(lp3634
sVmetadata
p3635
(dp3636
Vasp_retio
p3637
g3
sVsound_mix
p3638
(lp3639
sVgross
p3640
g3
sVcountries
p3641
(lp3642
sVbudget
p3643
g3
sVlanguages
p3644
(lp3645
sVfilming_locations
p3646
(lp3647
sValso_known_as
p3648
(lp3649
ssa(dp3650
Vrating
p3651
g3
sVdescription
p3652
g3
sVtitle
p3653
g3
sVurl
p3654
(dp3655
Vurl
p3656
Vhttp://www.imdb.com/title/tt9233
p3657
ssVposter
p3658
(dp3659
Vlarge
p3660
V_V1_.jpg
p3661
sVthumb
p3662
g3
ssVrelease_date
p3663
g3
sVcontent_rating
p3664
g3
sVoriginal_title
p3665
g3
sVwriters
p3666
(lp3667
sVimdb_id
p3668
g3
sVdirector
p3669
g3
sVcast
p3670
(lp3671
sVlength
p3672
g3
sVrating_count
p3673
g3
sVstoryline
p3674
g3
sVstars
p3675
(lp3676
sVyear
p3677
g3
sVgenre
p3678
(lp3679
sVtrailer
p3680
(lp3681
sVmetadata
p3682
(dp3683
Vasp_retio
p3684
g3
sVsound_mix
p3685
(lp3686
sVgross
p3687
g3
sVcountries
p3688
(lp3689
sVbudget
p3690
g3
sVlanguages
p3691
(lp3692
sVfilming_locations
p3693
(lp3694
sValso_known_as
p3695
(lp3696
ssa(dp3697
Vrating
p3698
g3
sVdescription
p3699
g3
sVtitle
p3700
g3
sVurl
p3701
(dp3702
Vurl
p3703
Vhttp://www.imdb.com/title/tt9234
p3704
ssVposter
p3705
(dp3706
Vlarge
p3707
V_V1_.jpg
p3708
sVthumb
p3709
g3
ssVrelease_date
p3710
g3
sVcontent_rating
p3711
g3
sVoriginal_title
p3712
g3
sVwriters
p3713
(lp3714
sVimdb_id
p3715
g3
sVdirector
p3716
g3
sVcast
p3717
(lp3718
sVlength
p3719
g3
sVrating_count
p3720
g3
sVstoryline
p3721
g3
sVstars
p3722
(lp3723
sVyear
p3724
g3
sVgenre
p3725
(lp3726
sVtrailer
p3727
(lp3728
sVmetadata
p3729
(dp3730
Vasp_retio
p3731
g3
sVsound_mix
p3732
(lp3733
sVgross
p3734
g3
sVcountries
p3735
(lp3736
sVbudget
p3737
g3
sVlanguages
p3738
(lp3739
sVfilming_locations
p3740
(lp3741
sValso_known_as
p3742
(lp3743
ssa(dp3744
Vrating
p3745
g3
sVdescription
p3746
g3
sVtitle
p3747
g3
sVurl
p3748
(dp3749
Vurl
p3750
Vhttp://www.imdb.com/title/tt9235
p3751
ssVposter
p3752
(dp3753
Vlarge
p3754
V_V1_.jpg
p3755
sVthumb
p3756
g3
ssVrelease_date
p3757
g3
sVcontent_rating
p3758
g3
sVoriginal_title
p3759
g3
sVwriters
p3760
(lp3761
sVimdb_id
p3762
g3
sVdirector
p3763
g3
sVcast
p3764
(lp3765
sVlength
p3766
g3
sVrating_count
p3767
g3
sVstoryline
p3768
g3
sVstars
p3769
(lp3770
sVyear
p3771
g3
sVgenre
p3772
(lp3773
sVtrailer
p3774
(lp3775
sVmetadata
p3776
(dp3777
Vasp_retio
p3778
g3
sVsound_mix
p3779
(lp3780
sVgross
p3781
g3
sVcountries
p3782
(lp3783
sVbudget
p3784
g3
sVlanguages
p3785
(lp3786
sVfilming_locations
p3787
(lp3788
sValso_known_as
p3789
(lp3790
ssa(dp3791
Vrating
p3792
g3
sVdescription
p3793
g3
sVtitle
p3794
g3
sVurl
p3795
(dp3796
Vurl
p3797
Vhttp://www.imdb.com/title/tt9236
p3798
ssVposter
p3799
(dp3800
Vlarge
p3801
V_V1_.jpg
p3802
sVthumb
p3803
g3
ssVrelease_date
p3804
g3
sVcontent_rating
p3805
g3
sVoriginal_title
p3806
g3
sVwriters
p3807
(lp3808
sVimdb_id
p3809
g3
sVdirector
p3810
g3
sVcast
p3811
(lp3812
sVlength
p3813
g3
sVrating_count
p3814
g3
sVstoryline
p3815
g3
sVstars
p3816
(lp3817
sVyear
p3818
g3
sVgenre
p3819
(lp3820
sVtrailer
p3821
(lp3822
sVmetadata
p3823
(dp3824
Vasp_retio
p3825
g3
sVsound_mix
p3826
(lp3827
sVgross
p3828
g3
sVcountries
p3829
(lp3830
sVbudget
p3831
g3
sVlanguages
p3832
(lp3833
sVfilming_locations
p3834
(lp3835
sValso_known_as
p3836
(lp3837
ssa(dp3838
Vrating
p3839
g3
sVdescription
p3840
g3
sVtitle
p3841
g3
sVurl
p3842
(dp3843
Vurl
p3844
Vhttp://www.imdb.com/title/tt9237
p3845
ssVposter
p3846
(dp3847
Vlarge
p3848
V_V1_.jpg
p3849
sVthumb
p3850
g3
ssVrelease_date
p3851
g3
sVcontent_rating
p3852
g3
sVoriginal_title
p3853
g3
sVwriters
p3854
(lp3855
sVimdb_id
p3856
g3
sVdirector
p3857
g3
sVcast
p3858
(lp3859
sVlength
p3860
g3
sVrating_count
p3861
g3
sVstoryline
p3862
g3
sVstars
p3863
(lp3864
sVyear
p3865
g3
sVgenre
p3866
(lp3867
sVtrailer
p3868
(lp3869
sVmetadata
p3870
(dp3871
Vasp_retio
p3872
g3
sVsound_mix
p3873
(lp3874
sVgross
p3875
g3
sVcountries
p3876
(lp3877
sVbudget
p3878
g3
sVlanguages
p3879
(lp3880
sVfilming_locations
p3881
(lp3882
sValso_known_as
p3883
(lp3884
ssa(dp3885
Vrating
p3886
g3
sVdescription
p3887
g3
sVtitle
p3888
VJettchen Gebert's Story
p3889
sVurl
p3890
(dp3891
Vurl
p3892
Vhttp://www.imdb.com/title/tt9238
p3893
ssVposter
p3894
(dp3895
Vlarge
p3896
Vhttps://images-na.ssl-images-amazon.com/images/M/MV5BZWIxN2E5NWEtYTNlNy00OTRlLTkwMzQtZjhmZTk0ZDI0MDg0L2ltYWdlL2ltYWdlXkEyXkFqcGdeQXVyMjUxODE0MDY@._V1_.jpg
p3897
sVthumb
p3898
Vhttps://images-na.ssl-images-amazon.com/images/M/MV5BZWIxN2E5NWEtYTNlNy00OTRlLTkwMzQtZjhmZTk0ZDI0MDg0L2ltYWdlL2ltYWdlXkEyXkFqcGdeQXVyMjUxODE0MDY@._V1_UY268_CR7,0,182,268_AL_.jpg
p3899
ssVrelease_date
p3900
V1918-11-08
p3901
sVcontent_rating
p3902
g3
sVoriginal_title
p3903
VJettchen Geberts Geschichte 1 - Jettchen Gebert
p3904
sVwriters
p3905
(lp3906
VGeorg Hermann
p3907
aVRichard Oswald
p3908
asVimdb_id
p3909
Vtt0009238
p3910
sVdirector
p3911
VRichard Oswald
p3912
sVcast
p3913
(lp3914
(dp3915
Vlink
p3916
Vhttp://www.imdb.com/name/nm0857350/?ref_=tt_cl_t1
p3917
sVimage
p3918
g3
sVcharacter
p3919
VJettchen Gebert
p3920
sVname
p3921
VMechthildis Thein
p3922
sa(dp3923
Vlink
p3924
Vhttp://www.imdb.com/name/nm0891998/?ref_=tt_cl_t2
p3925
sVimage
p3926
Vhttps://images-na.ssl-images-amazon.com/images/M/MV5BNDQyMTk3OTM1OV5BMl5BanBnXkFtZTcwNDc5MzQ3OA@@._V1_UY44_CR0,0,32,44_AL_.jpg
p3927
sVcharacter
p3928
VDoktor Friedrich K&#246;stling
p3929
sVname
p3930
VConrad Veidt
p3931
sa(dp3932
Vlink
p3933
Vhttp://www.imdb.com/name/nm0174925/?ref_=tt_cl_t3
p3934
sVimage
p3935
g3
sVcharacter
p3936
VSalomon Gebert
p3937
sVname
p3938
VLeo Connard
p3939
sa(dp3940
Vlink
p3941
Vhttp://www.imdb.com/name/nm0450602/?ref_=tt_cl_t4
p3942
sVimage
p3943
g3
sVcharacter
p3944
VFerdinand Gebert
p3945
sVname
p3946
VMartin Kettner
p3947
sa(dp3948
Vlink
p3949
Vhttp://www.imdb.com/name/nm0818609/?ref_=tt_cl_t5
p3950
sVimage
p3951
g3
sVcharacter
p3952
VJason Gebert
p3953
sVname
p3954
VJulius Spielmann
p3955
sa(dp3956
Vlink
p3957
Vhttp://www.imdb.com/name/nm0687223/?ref_=tt_cl_t6
p3958
sVimage
p3959
g3
sVcharacter
p3960
VRikchen, Salomons Frau
p3961
sVname
p3962
VClementine Plessner
p3963
sa(dp3964
Vlink
p3965
Vhttp://www.imdb.com/name/nm0126617/?ref_=tt_cl_t7
p3966
sVimage
p3967
g3
sVcharacter
p3968
VHannchen, Ferdinands Frau
p3969
sVname
p3970
VElse Bck
p3971
sa(dp3972
Vlink
p3973
Vhttp://www.imdb.com/name/nm0347520/?ref_=tt_cl_t8
p3974
sVimage
p3975
g3
sVcharacter
p3976
VOnkel Eli
p3977
sVname
p3978
VMax Glstorff
p3979
sa(dp3980
Vlink
p3981
Vhttp://www.imdb.com/name/nm0726413/?ref_=tt_cl_t9
p3982
sVimage
p3983
g3
sVcharacter
p3984
VTante Minchen
p3985
sVname
p3986
VHelene Rietz
p3987
sa(dp3988
Vlink
p3989
Vhttp://www.imdb.com/name/nm0465899/?ref_=tt_cl_t10
p3990
sVimage
p3991
g3
sVcharacter
p3992
VJulius Jakoby aus Bentschen
p3993
sVname
p3994
VRobert Koppel
p3995
sa(dp3996
Vlink
p3997
Vhttp://www.imdb.com/name/nm0439168/?ref_=tt_cl_t11
p3998
sVimage
p3999
g3
sVcharacter
p4000
VPinchen, Julius Schwester
p4001
sVname
p4002
VIlka Karen
p4003
sa(dp4004
Vlink
p4005
Vhttp://www.imdb.com/name/nm0246842/?ref_=tt_cl_t12
p4006
sVimage
p4007
g3
sVcharacter
p4008
VOnkel Naphtali
p4009
sVname
p4010
VHugo Dblin
p4011
sa(dp4012
Vlink
p4013
Vhttp://www.imdb.com/name/nm0723802/?ref_=tt_cl_t13
p4014
sVimage
p4015
g3
sVcharacter
p4016
g3
sVname
p4017
VFritz Richard
p4018
sasVlength
p4019
g3
sVrating_count
p4020
g3
sVstoryline
p4021
g3
sVstars
p4022
(lp4023
VMechthildis Thein
p4024
aVConrad Veidt
p4025
aVLeo Connard
p4026
asVyear
p4027
V1918
p4028
sVgenre
p4029
(lp4030
sVtrailer
p4031
(lp4032
sVmetadata
p4033
(dp4034
Vasp_retio
p4035
V1.33 : 1
p4036
sVsound_mix
p4037
(lp4038
VSilent
p4039
asVgross
p4040
g3
sVcountries
p4041
(lp4042
VGermany
p4043
asVbudget
p4044
g3
sVlanguages
p4045
(lp4046
VGerman
p4047
asVfilming_locations
p4048
(lp4049
sValso_known_as
p4050
(lp4051
VJettchen Gebert's Story
p4052
assa(dp4053
Vrating
p4054
g3
sVdescription
p4055
VYoung Janet Barnes is jilted by fiance Ernest Morgan for Suzette Sparks, who comes from a rich family. Angered, Janet sends him a photo of the elaborate and elegant mansion next to her ...\u000a                    See full summary
p4056
sVtitle
p4057
VJilted Janet
p4058
sVurl
p4059
(dp4060
Vurl
p4061
Vhttp://www.imdb.com/title/tt9239
p4062
ssVposter
p4063
(dp4064
Vlarge
p4065
Vhttp://ia.media-imdb.com/images/G/01/imdb/images/logos/imdb_fb_logo-1730868325._CB514892123_.png_V1_.jpg
p4066
sVthumb
p4067
g3
ssVrelease_date
p4068
V1918-02-11
p4069
sVcontent_rating
p4070
VAPPROVED
p4071
sVoriginal_title
p4072
g3
sVwriters
p4073
(lp4074
VElizabeth Mahoney
p4075
aVBeatrice Van
p4076
asVimdb_id
p4077
Vtt0009239
p4078
sVdirector
p4079
VLloyd Ingraham
p4080
sVcast
p4081
(lp4082
(dp4083
Vlink
p4084
Vhttp://www.imdb.com/name/nm0279038/?ref_=tt_cl_t1
p4085
sVimage
p4086
Vhttps://images-na.ssl-images-amazon.com/images/M/MV5BMjAwMjM1NjA2OV5BMl5BanBnXkFtZTYwMDU1MDU2._V1_UY44_CR1,0,32,44_AL_.jpg
p4087
sVcharacter
p4088
VJanet Barnes
p4089
sVname
p4090
VMargarita Fischer
p4091
sa(dp4092
Vlink
p4093
Vhttp://www.imdb.com/name/nm0610268/?ref_=tt_cl_t2
p4094
sVimage
p4095
Vhttps://images-na.ssl-images-amazon.com/images/M/MV5BNzBiODI2YWMtZmJiYy00ODMwLTg1NDAtN2Y2ZTJiNGE5YmMxXkEyXkFqcGdeQXVyMzI5NDcxNzI@._V1_UY44_CR1,0,32,44_AL_.jpg
p4096
sVcharacter
p4097
VJules Graham
p4098
sVname
p4099
VJack Mower
p4100
sa(dp4101
Vlink
p4102
Vhttp://www.imdb.com/name/nm0081361/?ref_=tt_cl_t3
p4103
sVimage
p4104
Vhttps://images-na.ssl-images-amazon.com/images/M/MV5BYzllZDIzMWItZGI5Mi00NGU0LWI5NGUtMDQ3ZDkzNTY4MWQwXkEyXkFqcGdeQXVyMzI5NDcxNzI@._V1_UY44_CR1,0,32,44_AL_.jpg
p4105
sVcharacter
p4106
VErnest Morgan       (as Edward Peil)
p4107
sVname
p4108
VEdward Peil Sr.
p4109
sa(dp4110
Vlink
p4111
Vhttp://www.imdb.com/name/nm0534584/?ref_=tt_cl_t4
p4112
sVimage
p4113
g3
sVcharacter
p4114
VSuzette Sparks
p4115
sVname
p4116
VGolda Madden
p4117
sa(dp4118
Vlink
p4119
Vhttp://www.imdb.com/name/nm0397229/?ref_=tt_cl_t5
p4120
sVimage
p4121
g3
sVcharacter
p4122
VPratt Barnes
p4123
sVname
p4124
VDavid Howard
p4125
sa(dp4126
Vlink
p4127
Vhttp://www.imdb.com/name/nm0730379/?ref_=tt_cl_t6
p4128
sVimage
p4129
g3
sVcharacter
p4130
VMercedes       (as Jean Robbins)
p4131
sVname
p4132
VJeanne Robbins
p4133
sa(dp4134
Vlink
p4135
Vhttp://www.imdb.com/name/nm0808237/?ref_=tt_cl_t7
p4136
sVimage
p4137
g3
sVcharacter
p4138
VLeon
p4139
sVname
p4140
VFred Smith
p4141
sasVlength
p4142
g3
sVrating_count
p4143
g3
sVstoryline
p4144
VYoung Janet Barnes is jilted by fiance Ernest Morgan for Suzette Sparks, who comes from a rich family. Angered, Janet sends him a photo of the elaborate and elegant mansion next to her house, implying that is actually her home. Ernest replies that he and his new wife want to stop by for a visit on their honeymoon. Janet finds out that the mansion's owners are out of town and arranges with the estate's caretakers to use the mansion while Ernest and his wife come to town. Her charade comes off so well that Ernest begins to regret leaving Janet and makes a pass for her. To complicate matters, the mansion's real owner unexpectedly returns home early. Complications ensue.
p4145
sVstars
p4146
(lp4147
VMargarita Fischer
p4148
aVJack Mower
p4149
aVEdward Peil Sr.
p4150
asVyear
p4151
V1918
p4152
sVgenre
p4153
(lp4154
VComedy
p4155
asVtrailer
p4156
(lp4157
sVmetadata
p4158
(dp4159
Vasp_retio
p4160
V1.33 : 1
p4161
sVsound_mix
p4162
(lp4163
VSilent
p4164
asVgross
p4165
g3
sVcountries
p4166
(lp4167
VUSA
p4168
asVbudget
p4169
g3
sVlanguages
p4170
(lp4171
sVfilming_locations
p4172
(lp4173
sValso_known_as
p4174
(lp4175
VDen forsmaaede Miss Jackie
p4176
assa(dp4177
Vrating
p4178
V5.9
p4179
sVdescription
p4180
VJoan of Plattsburg is a 1918 American comedy drama film by William Humphrey and George Loane Tucker.Its survival status is classified as unknown right now.it is be lived that the film is lost.
p4181
sVtitle
p4182
VJoan of Plattsburg
p4183
sVurl
p4184
(dp4185
Vurl
p4186
Vhttp://www.imdb.com/title/tt9240
p4187
ssVposter
p4188
(dp4189
Vlarge
p4190
Vhttps://images-na.ssl-images-amazon.com/images/M/MV5BMTM5NDY3ODkwM15BMl5BanBnXkFtZTYwMTE1ODU2._V1_.jpg
p4191
sVthumb
p4192
Vhttps://images-na.ssl-images-amazon.com/images/M/MV5BMTM5NDY3ODkwM15BMl5BanBnXkFtZTYwMTE1ODU2._V1_UY268_CR83,0,182,268_AL_.jpg
p4193
ssVrelease_date
p4194
V1918-05-05
p4195
sVcontent_rating
p4196
g3
sVoriginal_title
p4197
g3
sVwriters
p4198
(lp4199
VPorter Emerson Browne
p4200
aVGeorge Loane Tucker
p4201
asVimdb_id
p4202
Vtt0009240
p4203
sVdirector
p4204
VWilliam Humphrey George Loane Tucker
p4205
sVcast
p4206
(lp4207
(dp4208
Vlink
p4209
Vhttp://www.imdb.com/name/nm0635667/?ref_=tt_cl_t1
p4210
sVimage
p4211
Vhttps://images-na.ssl-images-amazon.com/images/M/MV5BMjEzMzI3ODI3Nl5BMl5BanBnXkFtZTgwMDAxMTkzMjE@._V1_UY44_CR3,0,32,44_AL_.jpg
p4212
sVcharacter
p4213
VJoan
p4214
sVname
p4215
VMabel Normand
p4216
sa(dp4217
Vlink
p4218
Vhttp://www.imdb.com/name/nm0254609/?ref_=tt_cl_t2
p4219
sVimage
p4220
Vhttps://images-na.ssl-images-amazon.com/images/M/MV5BMjRiMzcyMTAtZDBmYS00ODhkLWFjMzgtYTBlMDYxN2QyZjMyXkEyXkFqcGdeQXVyMzI5NDcxNzI@._V1_UY44_CR1,0,32,44_AL_.jpg
p4221
sVcharacter
p4222
VCapt. Lane
p4223
sVname
p4224
VRobert Elliott
p4225
sa(dp4226
Vlink
p4227
Vhttp://www.imdb.com/name/nm0292756/?ref_=tt_cl_t3
p4228
sVimage
p4229
g3
sVcharacter
p4230
VSupt. Fisher       (as William Fredericks)
p4231
sVname
p4232
VWilliam Frederic
p4233
sa(dp4234
Vlink
p4235
Vhttp://www.imdb.com/name/nm0806961/?ref_=tt_cl_t4
p4236
sVimage
p4237
Vhttps://images-na.ssl-images-amazon.com/images/M/MV5BMzMzM2FjYjAtNmM0MC00NTU2LWFiMWYtYzRlNTQ4NWU5MDgxXkEyXkFqcGdeQXVyMDUyOTUyNQ@@._UY317_CR16,0,214,317_AL_.jpg
p4238
sVcharacter
p4239
VIngleton
p4240
sVname
p4241
VJoseph W. Smiley
p4242
sa(dp4243
Vlink
p4244
Vhttp://www.imdb.com/name/nm0253815/?ref_=tt_cl_t5
p4245
sVimage
p4246
g3
sVcharacter
p4247
VSilverstein
p4248
sVname
p4249
VEdward Elkas
p4250
sa(dp4251
Vlink
p4252
Vhttp://www.imdb.com/name/nm0227022/?ref_=tt_cl_t6
p4253
sVimage
p4254
g3
sVcharacter
p4255
VMiggs       (as John Webb Dillon)
p4256
sVname
p4257
VJohn Webb Dillion
p4258
sa(dp4259
Vlink
p4260
Vhttp://www.imdb.com/name/nm0201994/?ref_=tt_cl_t7
p4261
sVimage
p4262
g3
sVcharacter
p4263
VColonel
p4264
sVname
p4265
VWillard Dashiell
p4266
sa(dp4267
Vlink
p4268
Vhttp://www.imdb.com/name/nm0564023/?ref_=tt_cl_t8
p4269
sVimage
p4270
g3
sVcharacter
p4271
VMrs. Lane
p4272
sVname
p4273
VEdith McAlpin
p4274
sa(dp4275
Vlink
p4276
Vhttp://www.imdb.com/name/nm0894679/?ref_=tt_cl_t9
p4277
sVimage
p4278
g3
sVcharacter
p4279
VMrs. Miggs
p4280
sVname
p4281
VIsabel Vernon
p4282
sasVlength
p4283
V60
p4284
sVrating_count
p4285
V14
p4286
sVstoryline
p4287
VJoan of Plattsburg is a 1918 American comedy drama film by William Humphrey and George Loane Tucker.Its survival status is classified as unknown right now.it is be lived that the film is lost.
p4288
sVstars
p4289
(lp4290
VMabel Normand
p4291
aVRobert Elliott
p4292
aVWilliam Frederic
p4293
asVyear
p4294
V1918
p4295
sVgenre
p4296
(lp4297
VComedy
p4298
aVDrama
p4299
asVtrailer
p4300
(lp4301
sVmetadata
p4302
(dp4303
Vasp_retio
p4304
V1.33 : 1
p4305
sVsound_mix
p4306
(lp4307
VSilent
p4308
asVgross
p4309
g3
sVcountries
p4310
(lp4311
VUSA
p4312
asVbudget
p4313
g3
sVlanguages
p4314
(lp4315
sVfilming_locations
p4316
(lp4317
sValso_known_as
p4318
(lp4319
ssa(dp4320
Vrating
p4321
V6.6
p4322
sVdescription
p4323
VA young girl, stifling on her father's backwoods farm, is reinvigorated by the arrival of an army regiment, come to train in the area.
p4324
sVtitle
p4325
VJohanna Enlists
p4326
sVurl
p4327
(dp4328
Vurl
p4329
Vhttp://www.imdb.com/title/tt9241
p4330
ssVposter
p4331
(dp4332
Vlarge
p4333
Vhttps://images-na.ssl-images-amazon.com/images/M/MV5BMTAyODUzODI3NjJeQTJeQWpwZ15BbWU4MDI2MDc2MDIx._V1_.jpg
p4334
sVthumb
p4335
Vhttps://images-na.ssl-images-amazon.com/images/M/MV5BMTAyODUzODI3NjJeQTJeQWpwZ15BbWU4MDI2MDc2MDIx._V1_UX182_CR0,0,182,268_AL_.jpg
p4336
ssVrelease_date
p4337
V1918-09-15
p4338
sVcontent_rating
p4339
g3
sVoriginal_title
p4340
g3
sVwriters
p4341
(lp4342
VRupert Hughes
p4343
aVFrances Marion
p4344
asVimdb_id
p4345
Vtt0009241
p4346
sVdirector
p4347
VWilliam Desmond Taylor
p4348
sVcast
p4349
(lp4350
(dp4351
Vlink
p4352
Vhttp://www.imdb.com/name/nm0681933/?ref_=tt_cl_t1
p4353
sVimage
p4354
Vhttps://images-na.ssl-images-amazon.com/images/M/MV5BMTcxODkxOTExMl5BMl5BanBnXkFtZTgwMDIzNTQwMjE@._V1_UY44_CR1,0,32,44_AL_.jpg
p4355
sVcharacter
p4356
VJohanna Renssaller
p4357
sVname
p4358
VMary Pickford
p4359
sa(dp4360
Vlink
p4361
Vhttp://www.imdb.com/name/nm0769584/?ref_=tt_cl_t2
p4362
sVimage
p4363
Vhttps://images-na.ssl-images-amazon.com/images/M/MV5BZWQ1OTQ2MTktNWNjOC00NDJlLWFhMmUtZjY0MWQzMzc1OWE5XkEyXkFqcGdeQXVyMDUyOTUyNQ@@._V1_UY44_CR14,0,32,44_AL_.jpg
p4364
sVcharacter
p4365
VMa Renssaller
p4366
sVname
p4367
VAnne Schaefer
p4368
sa(dp4369
Vlink
p4370
Vhttp://www.imdb.com/name/nm0403151/?ref_=tt_cl_t3
p4371
sVimage
p4372
g3
sVcharacter
p4373
VPa Renssaller
p4374
sVname
p4375
VFred Huntley
p4376
sa(dp4377
Vlink
p4378
Vhttp://www.imdb.com/name/nm0089524/?ref_=tt_cl_t4
p4379
sVimage
p4380
Vhttps://images-na.ssl-images-amazon.com/images/M/MV5BNzgwOGIyOWUtMzNhMi00NTA0LThkODItNTUzNDYwNWZhN2IyXkEyXkFqcGdeQXVyMDMxMjQwMw@@._V1_UY44_CR14,0,32,44_AL_.jpg
p4381
sVcharacter
p4382
VPvt. Vibbard
p4383
sVname
p4384
VMonte Blue
p4385
sa(dp4386
Vlink
p4387
Vhttp://www.imdb.com/name/nm0533764/?ref_=tt_cl_t5
p4388
sVimage
p4389
Vhttps://images-na.ssl-images-amazon.com/images/M/MV5BNmEzZDc0YzMtNjJhNy00NDZmLWJiNDQtZTVkZmY5MDQ4OTM1XkEyXkFqcGdeQXVyMzI5NDcxNzI@._V1_UY44_CR1,0,32,44_AL_.jpg
p4390
sVcharacter
p4391
VCapt. Archie van Renssaller
p4392
sVname
p4393
VDouglas MacLean
p4394
sa(dp4395
Vlink
p4396
Vhttp://www.imdb.com/name/nm0425049/?ref_=tt_cl_t6
p4397
sVimage
p4398
Vhttps://images-na.ssl-images-amazon.com/images/M/MV5BYjc2OTNmMzEtZGI1NC00ZjRhLWEyNTItMDVkNzU2NDE4MTI5XkEyXkFqcGdeQXVyMzI5NDcxNzI@._V1_UY44_CR2,0,32,44_AL_.jpg
p4399
sVcharacter
p4400
VLt. Frank Le Roy
p4401
sVname
p4402
VEmory Johnson
p4403
sa(dp4404
Vlink
p4405
Vhttp://www.imdb.com/name/nm0827385/?ref_=tt_cl_t7
p4406
sVimage
p4407
Vhttps://images-na.ssl-images-amazon.com/images/M/MV5BZjlhNGEzNDktMTE2Zi00MTQzLWIzNGEtYjAyMzM3N2MyNzFmL2ltYWdlL2ltYWdlXkEyXkFqcGdeQXVyMDUyOTUyNQ@@._V1_UY44_CR14,0,32,44_AL_.jpg
p4408
sVcharacter
p4409
VMaj. Wappington
p4410
sVname
p4411
VJohn Steppling
p4412
sa(dp4413
Vlink
p4414
Vhttp://www.imdb.com/name/nm0000891/?ref_=tt_cl_t8
p4415
sVimage
p4416
Vhttps://images-na.ssl-images-amazon.com/images/M/MV5BMTIxOTI0OTM1NF5BMl5BanBnXkFtZTYwNjUwMTM2._V1_UY44_CR1,0,32,44_AL_.jpg
p4417
sVcharacter
p4418
VCol. Fanner
p4419
sVname
p4420
VWallace Beery
p4421
sa(dp4422
Vlink
p4423
Vhttp://www.imdb.com/name/nm0058191/?ref_=tt_cl_t9
p4424
sVimage
p4425
g3
sVcharacter
p4426
VJohanna's Brother
p4427
sVname
p4428
VWesley Barry
p4429
sa(dp4430
Vlink
p4431
Vhttp://www.imdb.com/name/nm0696030/?ref_=tt_cl_t10
p4432
sVimage
p4433
g3
sVcharacter
p4434
VTwin, Johanna's Sister
p4435
sVname
p4436
VJune Prentis
p4437
sa(dp4438
Vlink
p4439
Vhttp://www.imdb.com/name/nm0696029/?ref_=tt_cl_t11
p4440
sVimage
p4441
g3
sVcharacter
p4442
VTwin, Johanna's Sister
p4443
sVname
p4444
VJean Prentis
p4445
sasVlength
p4446
V72
p4447
sVrating_count
p4448
V561
p4449
sVstoryline
p4450
VA young girl, stifling on her father's backwoods farm, is reinvigorated by the arrival of an army regiment, come to train in the area.
p4451
sVstars
p4452
(lp4453
VMary Pickford
p4454
aVAnne Schaefer
p4455
aVFred Huntley
p4456
asVyear
p4457
V1918
p4458
sVgenre
p4459
(lp4460
VComedy
p4461
aVRomance
p4462
asVtrailer
p4463
(lp4464
sVmetadata
p4465
(dp4466
Vasp_retio
p4467
V1.33 : 1
p4468
sVsound_mix
p4469
(lp4470
VSilent
p4471
asVgross
p4472
g3
sVcountries
p4473
(lp4474
VUSA
p4475
asVbudget
p4476
g3
sVlanguages
p4477
(lp4478
VEnglish
p4479
asVfilming_locations
p4480
(lp4481
sValso_known_as
p4482
(lp4483
VMobilizing of Johanna
p4484
assa(dp4485
Vrating
p4486
g3
sVdescription
p4487
g3
sVtitle
p4488
VJoining the Tanks
p4489
sVurl
p4490
(dp4491
Vurl
p4492
Vhttp://www.imdb.com/title/tt9242
p4493
ssVposter
p4494
(dp4495
Vlarge
p4496
Vhttps://images-na.ssl-images-amazon.com/images/M/MV5BODhkMzU2NDMtYWFkNS00MWQ2LTk3NTgtMzQ0NjY5ZTM5NjkzXkEyXkFqcGdeQXVyMDUyOTUyNQ@@._V1_.jpg
p4497
sVthumb
p4498
Vhttps://images-na.ssl-images-amazon.com/images/M/MV5BODhkMzU2NDMtYWFkNS00MWQ2LTk3NTgtMzQ0NjY5ZTM5NjkzXkEyXkFqcGdeQXVyMDUyOTUyNQ@@._V1_UY268_CR0,0,182,268_AL_.jpg
p4499
ssVrelease_date
p4500
V1918-08-04
p4501
sVcontent_rating
p4502
VPASSED
p4503
sVoriginal_title
p4504
g3
sVwriters
p4505
(lp4506
VBud Fisher
p4507
asVimdb_id
p4508
Vtt0009242
p4509
sVdirector
p4510
VBud Fisher
p4511
sVcast
p4512
(lp4513
sVlength
p4514
g3
sVrating_count
p4515
g3
sVstoryline
p4516
g3
sVstars
p4517
(lp4518
sVyear
p4519
V1918
p4520
sVgenre
p4521
(lp4522
VAnimation
p4523
aVComedy
p4524
aVShort
p4525
asVtrailer
p4526
(lp4527
sVmetadata
p4528
(dp4529
Vasp_retio
p4530
V1.33 : 1
p4531
sVsound_mix
p4532
(lp4533
VSilent
p4534
asVgross
p4535
g3
sVcountries
p4536
(lp4537
VUSA
p4538
asVbudget
p4539
g3
sVlanguages
p4540
(lp4541
sVfilming_locations
p4542
(lp4543
sValso_known_as
p4544
(lp4545
ssa(dp4546
Vrating
p4547
g3
sVdescription
p4548
g3
sVtitle
p4549
VJourney's End
p4550
sVurl
p4551
(dp4552
Vurl
p4553
Vhttp://www.imdb.com/title/tt9243
p4554
ssVposter
p4555
(dp4556
Vlarge
p4557
Vhttps://images-na.ssl-images-amazon.com/images/M/MV5BN2FmYTc2MWMtOWNkYS00OGZiLWE4MTEtNDdmMDJkMjUyY2ZlXkEyXkFqcGdeQXVyMDUyOTUyNQ@@._V1_.jpg
p4558
sVthumb
p4559
Vhttps://images-na.ssl-images-amazon.com/images/M/MV5BN2FmYTc2MWMtOWNkYS00OGZiLWE4MTEtNDdmMDJkMjUyY2ZlXkEyXkFqcGdeQXVyMDUyOTUyNQ@@._V1_UY268_CR83,0,182,268_AL_.jpg
p4560
ssVrelease_date
p4561
V1918-05-13
p4562
sVcontent_rating
p4563
VAPPROVED
p4564
sVoriginal_title
p4565
g3
sVwriters
p4566
(lp4567
VRoy S. Sensabaugh
p4568
asVimdb_id
p4569
Vtt0009243
p4570
sVdirector
p4571
VTravers Vale
p4572
sVcast
p4573
(lp4574
(dp4575
Vlink
p4576
Vhttp://www.imdb.com/name/nm0165691/?ref_=tt_cl_t1
p4577
sVimage
p4578
Vhttps://images-na.ssl-images-amazon.com/images/M/MV5BMTgyOTg3NDQzNF5BMl5BanBnXkFtZTgwNzQxODY3MTE@._V1._CR29.883331298828125,29.533340454101562,300,440_UX32_CR0,0,32,44_AL_.jpg
p4579
sVcharacter
p4580
VAline Marsden
p4581
sVname
p4582
VEthel Clayton
p4583
sa(dp4584
Vlink
p4585
Vhttp://www.imdb.com/name/nm0101071/?ref_=tt_cl_t2
p4586
sVimage
p4587
Vhttps://images-na.ssl-images-amazon.com/images/M/MV5BMTMyYjgyMTktMTViMi00ZDk4LThjOTEtODU0NmUzNTAyNjNmXkEyXkFqcGdeQXVyMzI5NDcxNzI@._V1_UY44_CR0,0,32,44_AL_.jpg
p4588
sVcharacter
p4589
VPhil Marsden
p4590
sVname
p4591
VJohn Bowers
p4592
sa(dp4593
Vlink
p4594
Vhttp://www.imdb.com/name/nm0652479/?ref_=tt_cl_t3
p4595
sVimage
p4596
Vhttps://images-na.ssl-images-amazon.com/images/M/MV5BNDY3MjNmNWYtOGNlZC00ZDZmLWFhZjctZjZiOTQwMDdkZGZhXkEyXkFqcGdeQXVyMzI5NDcxNzI@._UY317_CR16,0,214,317_AL_.jpg
p4597
sVcharacter
p4598
VJess Alden
p4599
sVname
p4600
VMuriel Ostriche
p4601
sa(dp4602
Vlink
p4603
Vhttp://www.imdb.com/name/nm0238532/?ref_=tt_cl_t4
p4604
sVimage
p4605
g3
sVcharacter
p4606
VPop Moore
p4607
sVname
p4608
VJack Drumier
p4609
sa(dp4610
Vlink
p4611
Vhttp://www.imdb.com/name/nm0883898/?ref_=tt_cl_t5
p4612
sVimage
p4613
Vhttps://images-na.ssl-images-amazon.com/images/M/MV5BMTdjZmY5MDItNjY2OS00YjY3LWEzN2EtODNkY2UzM2E0MmFkXkEyXkFqcGdeQXVyMDUyOTUyNQ@@._V1_UY44_CR14,0,32,44_AL_.jpg
p4614
sVcharacter
p4615
VBernice De Armond
p4616
sVname
p4617
VLouise Vale
p4618
sa(dp4619
Vlink
p4620
Vhttp://www.imdb.com/name/nm0562866/?ref_=tt_cl_t6
p4621
sVimage
p4622
Vhttps://images-na.ssl-images-amazon.com/images/M/MV5BMWNkMDNkMTItNGY1NC00OTIzLTg2NjUtZWQ2MTFhNzk0NGU1XkEyXkFqcGdeQXVyMzI5NDcxNzI@._V1_UY44_CR0,0,32,44_AL_.jpg
p4623
sVcharacter
p4624
VWayne Annis
p4625
sVname
p4626
VFrank Mayo
p4627
sa(dp4628
Vlink
p4629
Vhttp://www.imdb.com/name/nm0447855/?ref_=tt_cl_t7
p4630
sVimage
p4631
g3
sVcharacter
p4632
VH.E. Barnet
p4633
sVname
p4634
VVictor Kennard
p4635
sa(dp4636
Vlink
p4637
Vhttp://www.imdb.com/name/nm0517340/?ref_=tt_cl_t8
p4638
sVimage
p4639
g3
sVcharacter
p4640
VBernice's Maid       (as Jean Lowe)
p4641
sVname
p4642
VJeanne Loew
p4643
sasVlength
p4644
g3
sVrating_count
p4645
g3
sVstoryline
p4646
g3
sVstars
p4647
(lp4648
VEthel Clayton
p4649
aVJohn Bowers
p4650
aVMuriel Ostriche
p4651
asVyear
p4652
V1918
p4653
sVgenre
p4654
(lp4655
VComedy
p4656
aVDrama
p4657
asVtrailer
p4658
(lp4659
sVmetadata
p4660
(dp4661
Vasp_retio
p4662
V1.33 : 1
p4663
sVsound_mix
p4664
(lp4665
VSilent
p4666
asVgross
p4667
g3
sVcountries
p4668
(lp4669
VUSA
p4670
asVbudget
p4671
g3
sVlanguages
p4672
(lp4673
sVfilming_locations
p4674
(lp4675
VFlorida
p4676
aVUSA
p4677
asValso_known_as
p4678
(lp4679
ssa(dp4680
Vrating
p4681
g3
sVdescription
p4682
g3
sVtitle
p4683
VJules of the Strong Heart
p4684
sVurl
p4685
(dp4686
Vurl
p4687
Vhttp://www.imdb.com/title/tt9244
p4688
ssVposter
p4689
(dp4690
Vlarge
p4691
Vhttp://ia.media-imdb.com/images/G/01/imdb/images/logos/imdb_fb_logo-1730868325._CB514892123_.png_V1_.jpg
p4692
sVthumb
p4693
g3
ssVrelease_date
p4694
V1918-01-14
p4695
sVcontent_rating
p4696
VAPPROVED
p4697
sVoriginal_title
p4698
g3
sVwriters
p4699
(lp4700
VWilliam Merriam Rouse
p4701
aVFrank X. Finnegan
p4702
asVimdb_id
p4703
Vtt0009244
p4704
sVdirector
p4705
VDonald Crisp
p4706
sVcast
p4707
(lp4708
(dp4709
Vlink
p4710
Vhttp://www.imdb.com/name/nm0064819/?ref_=tt_cl_t1
p4711
sVimage
p4712
g3
sVcharacter
p4713
VJules Lemaire
p4714
sVname
p4715
VGeorge Beban
p4716
sa(dp4717
Vlink
p4718
Vhttp://www.imdb.com/name/nm0248890/?ref_=tt_cl_t2
p4719
sVimage
p4720
Vhttps://images-na.ssl-images-amazon.com/images/M/MV5BMjM2MDk3NjcyN15BMl5BanBnXkFtZTgwNTMyNjc3MTE@._V1._CR53.883331298828125,58.53334045410156,888,1245_UX32_CR0,0,32,44_AL_.jpg
p4721
sVcharacter
p4722
VJoy Farnsworth
p4723
sVname
p4724
VHelen Jerome Eddy
p4725
sa(dp4726
Vlink
p4727
Vhttp://www.imdb.com/name/nm0644728/?ref_=tt_cl_t3
p4728
sVimage
p4729
Vhttps://images-na.ssl-images-amazon.com/images/M/MV5BOGZmOTI3ZDctYTNkYS00YTc0LWFjZDYtMDY1ZGNlNDUyODhjXkEyXkFqcGdeQXVyMDUyOTUyNQ@@._V1_UY44_CR11,0,32,44_AL_.jpg
p4730
sVcharacter
p4731
VTom Farnsworth
p4732
sVname
p4733
VCharles Ogle
p4734
sa(dp4735
Vlink
p4736
Vhttp://www.imdb.com/name/nm0369058/?ref_=tt_cl_t4
p4737
sVimage
p4738
Vhttps://images-na.ssl-images-amazon.com/images/M/MV5BYzZjODYwYTktNjVkMC00MmJiLTk5ZmEtNjg5MzNiOWZlZmQyXkEyXkFqcGdeQXVyMzI5NDcxNzI@._V1_UY44_CR1,0,32,44_AL_.jpg
p4739
sVcharacter
p4740
VTed Kendall
p4741
sVname
p4742
VRaymond Hatton
p4743
sa(dp4744
Vlink
p4745
Vhttp://www.imdb.com/name/nm0646851/?ref_=tt_cl_t5
p4746
sVimage
p4747
Vhttps://images-na.ssl-images-amazon.com/images/M/MV5BZjBmNTdjZWEtZWE2My00NTI4LTkyYTktOTJmZjIzZDg1MDliXkEyXkFqcGdeQXVyMzI5NDcxNzI@._V1_UY44_CR1,0,32,44_AL_.jpg
p4748
sVcharacter
p4749
VBig Jim Burgess
p4750
sVname
p4751
VGuy Oliver
p4752
sa(dp4753
Vlink
p4754
Vhttp://www.imdb.com/name/nm0431414/?ref_=tt_cl_t6
p4755
sVimage
p4756
g3
sVcharacter
p4757
VJack Liggitt
p4758
sVname
p4759
VErnest Joy
p4760
sa(dp4761
Vlink
p4762
Vhttp://www.imdb.com/name/nm0139356/?ref_=tt_cl_t7
p4763
sVimage
p4764
Vhttps://images-na.ssl-images-amazon.com/images/M/MV5BMTkyZTAxNGQtZTM4MC00NWUzLWE2OGItM2NiOGJjY2Y2MzFkXkEyXkFqcGdeQXVyMzI5NDcxNzI@._UY317_CR16,0,214,317_AL_.jpg
p4765
sVcharacter
p4766
VLouis the 'Red Fox'
p4767
sVname
p4768
VHorace B. Carpenter
p4769
sa(dp4770
Vlink
p4771
Vhttp://www.imdb.com/name/nm0552239/?ref_=tt_cl_t8
p4772
sVimage
p4773
g3
sVcharacter
p4774
VHead of the Trapping Company
p4775
sVname
p4776
VEdward Martin
p4777
sa(dp4778
Vlink
p4779
Vhttp://www.imdb.com/name/nm0624735/?ref_=tt_cl_t9
p4780
sVimage
p4781
Vhttps://images-na.ssl-images-amazon.com/images/M/MV5BN2QyMzIwYjQtMzM2Ni00YTE2LTk4N2UtODU4ODBjMDMxMmFhL2ltYWdlL2ltYWdlXkEyXkFqcGdeQXVyMzI5NDcxNzI@._UY317_CR16,0,214,317_AL_.jpg
p4782
sVcharacter
p4783
VSommerville
p4784
sVname
p4785
VJames Neill
p4786
sasVlength
p4787
V50
p4788
sVrating_count
p4789
g3
sVstoryline
p4790
g3
sVstars
p4791
(lp4792
VGeorge Beban
p4793
aVHelen Jerome Eddy
p4794
aVCharles Ogle
p4795
asVyear
p4796
V1918
p4797
sVgenre
p4798
(lp4799
VDrama
p4800
asVtrailer
p4801
(lp4802
sVmetadata
p4803
(dp4804
Vasp_retio
p4805
V1.33 : 1
p4806
sVsound_mix
p4807
(lp4808
VSilent
p4809
asVgross
p4810
g3
sVcountries
p4811
(lp4812
VUSA
p4813
asVbudget
p4814
g3
sVlanguages
p4815
(lp4816
sVfilming_locations
p4817
(lp4818
VSanta Cruz
p4819
aVCalifornia
p4820
aVUSA
p4821
asValso_known_as
p4822
(lp4823
ssa(dp4824
Vrating
p4825
g3
sVdescription
p4826
g3
sVtitle
p4827
g3
sVurl
p4828
(dp4829
Vurl
p4830
Vhttp://www.imdb.com/title/tt9245
p4831
ssVposter
p4832
(dp4833
Vlarge
p4834
V_V1_.jpg
p4835
sVthumb
p4836
g3
ssVrelease_date
p4837
g3
sVcontent_rating
p4838
g3
sVoriginal_title
p4839
g3
sVwriters
p4840
(lp4841
sVimdb_id
p4842
g3
sVdirector
p4843
g3
sVcast
p4844
(lp4845
sVlength
p4846
g3
sVrating_count
p4847
g3
sVstoryline
p4848
g3
sVstars
p4849
(lp4850
sVyear
p4851
g3
sVgenre
p4852
(lp4853
sVtrailer
p4854
(lp4855
sVmetadata
p4856
(dp4857
Vasp_retio
p4858
g3
sVsound_mix
p4859
(lp4860
sVgross
p4861
g3
sVcountries
p4862
(lp4863
sVbudget
p4864
g3
sVlanguages
p4865
(lp4866
sVfilming_locations
p4867
(lp4868
sValso_known_as
p4869
(lp4870
ssa(dp4871
Vrating
p4872
g3
sVdescription
p4873
g3
sVtitle
p4874
g3
sVurl
p4875
(dp4876
Vurl
p4877
Vhttp://www.imdb.com/title/tt9246
p4878
ssVposter
p4879
(dp4880
Vlarge
p4881
V_V1_.jpg
p4882
sVthumb
p4883
g3
ssVrelease_date
p4884
g3
sVcontent_rating
p4885
g3
sVoriginal_title
p4886
g3
sVwriters
p4887
(lp4888
sVimdb_id
p4889
g3
sVdirector
p4890
g3
sVcast
p4891
(lp4892
sVlength
p4893
g3
sVrating_count
p4894
g3
sVstoryline
p4895
g3
sVstars
p4896
(lp4897
sVyear
p4898
g3
sVgenre
p4899
(lp4900
sVtrailer
p4901
(lp4902
sVmetadata
p4903
(dp4904
Vasp_retio
p4905
g3
sVsound_mix
p4906
(lp4907
sVgross
p4908
g3
sVcountries
p4909
(lp4910
sVbudget
p4911
g3
sVlanguages
p4912
(lp4913
sVfilming_locations
p4914
(lp4915
sValso_known_as
p4916
(lp4917
ssa(dp4918
Vrating
p4919
g3
sVdescription
p4920
g3
sVtitle
p4921
g3
sVurl
p4922
(dp4923
Vurl
p4924
Vhttp://www.imdb.com/title/tt9247
p4925
ssVposter
p4926
(dp4927
Vlarge
p4928
V_V1_.jpg
p4929
sVthumb
p4930
g3
ssVrelease_date
p4931
g3
sVcontent_rating
p4932
g3
sVoriginal_title
p4933
g3
sVwriters
p4934
(lp4935
sVimdb_id
p4936
g3
sVdirector
p4937
g3
sVcast
p4938
(lp4939
sVlength
p4940
g3
sVrating_count
p4941
g3
sVstoryline
p4942
g3
sVstars
p4943
(lp4944
sVyear
p4945
g3
sVgenre
p4946
(lp4947
sVtrailer
p4948
(lp4949
sVmetadata
p4950
(dp4951
Vasp_retio
p4952
g3
sVsound_mix
p4953
(lp4954
sVgross
p4955
g3
sVcountries
p4956
(lp4957
sVbudget
p4958
g3
sVlanguages
p4959
(lp4960
sVfilming_locations
p4961
(lp4962
sValso_known_as
p4963
(lp4964
ssa(dp4965
Vrating
p4966
g3
sVdescription
p4967
VA documentary of C.L. Chester's expedition into the jungles of British Guiana to photograph an enormous waterfall, five times the height of Niagara.
p4968
sVtitle
p4969
VKaieteur, the Perfect Cataract
p4970
sVurl
p4971
(dp4972
Vurl
p4973
Vhttp://www.imdb.com/title/tt9248
p4974
ssVposter
p4975
(dp4976
Vlarge
p4977
Vhttp://ia.media-imdb.com/images/G/01/imdb/images/logos/imdb_fb_logo-1730868325._CB514892123_.png_V1_.jpg
p4978
sVthumb
p4979
g3
ssVrelease_date
p4980
V1918-04-22
p4981
sVcontent_rating
p4982
g3
sVoriginal_title
p4983
g3
sVwriters
p4984
(lp4985
sVimdb_id
p4986
Vtt0009248
p4987
sVdirector
p4988
VC.L. Chester
p4989
sVcast
p4990
(lp4991
sVlength
p4992
g3
sVrating_count
p4993
g3
sVstoryline
p4994
VA documentary of C.L. Chester's expedition into the jungles of British Guiana to photograph an enormous waterfall, five times the height of Niagara.
p4995
sVstars
p4996
(lp4997
sVyear
p4998
V1918
p4999
sVgenre
p5000
(lp5001
VDocumentary
p5002
aVShort
p5003
asVtrailer
p5004
(lp5005
sVmetadata
p5006
(dp5007
Vasp_retio
p5008
V1.33 : 1
p5009
sVsound_mix
p5010
(lp5011
VSilent
p5012
asVgross
p5013
g3
sVcountries
p5014
(lp5015
VUSA
p5016
asVbudget
p5017
g3
sVlanguages
p5018
(lp5019
sVfilming_locations
p5020
(lp5021
VKaieteur Falls
p5022
aVGuyana
p5023
asValso_known_as
p5024
(lp5025
ssa(dp5026
Vrating
p5027
g3
sVdescription
p5028
g3
sVtitle
p5029
g3
sVurl
p5030
(dp5031
Vurl
p5032
Vhttp://www.imdb.com/title/tt9249
p5033
ssVposter
p5034
(dp5035
Vlarge
p5036
V_V1_.jpg
p5037
sVthumb
p5038
g3
ssVrelease_date
p5039
g3
sVcontent_rating
p5040
g3
sVoriginal_title
p5041
g3
sVwriters
p5042
(lp5043
sVimdb_id
p5044
g3
sVdirector
p5045
g3
sVcast
p5046
(lp5047
sVlength
p5048
g3
sVrating_count
p5049
g3
sVstoryline
p5050
g3
sVstars
p5051
(lp5052
sVyear
p5053
g3
sVgenre
p5054
(lp5055
sVtrailer
p5056
(lp5057
sVmetadata
p5058
(dp5059
Vasp_retio
p5060
g3
sVsound_mix
p5061
(lp5062
sVgross
p5063
g3
sVcountries
p5064
(lp5065
sVbudget
p5066
g3
sVlanguages
p5067
(lp5068
sVfilming_locations
p5069
(lp5070
sValso_known_as
p5071
(lp5072
ssa(dp5073
Vrating
p5074
g3
sVdescription
p5075
g3
sVtitle
p5076
g3
sVurl
p5077
(dp5078
Vurl
p5079
Vhttp://www.imdb.com/title/tt9250
p5080
ssVposter
p5081
(dp5082
Vlarge
p5083
V_V1_.jpg
p5084
sVthumb
p5085
g3
ssVrelease_date
p5086
g3
sVcontent_rating
p5087
g3
sVoriginal_title
p5088
g3
sVwriters
p5089
(lp5090
sVimdb_id
p5091
g3
sVdirector
p5092
g3
sVcast
p5093
(lp5094
sVlength
p5095
g3
sVrating_count
p5096
g3
sVstoryline
p5097
g3
sVstars
p5098
(lp5099
sVyear
p5100
g3
sVgenre
p5101
(lp5102
sVtrailer
p5103
(lp5104
sVmetadata
p5105
(dp5106
Vasp_retio
p5107
g3
sVsound_mix
p5108
(lp5109
sVgross
p5110
g3
sVcountries
p5111
(lp5112
sVbudget
p5113
g3
sVlanguages
p5114
(lp5115
sVfilming_locations
p5116
(lp5117
sValso_known_as
p5118
(lp5119
ssa(dp5120
Vrating
p5121
g3
sVdescription
p5122
g3
sVtitle
p5123
g3
sVurl
p5124
(dp5125
Vurl
p5126
Vhttp://www.imdb.com/title/tt9251
p5127
ssVposter
p5128
(dp5129
Vlarge
p5130
V_V1_.jpg
p5131
sVthumb
p5132
g3
ssVrelease_date
p5133
g3
sVcontent_rating
p5134
g3
sVoriginal_title
p5135
g3
sVwriters
p5136
(lp5137
sVimdb_id
p5138
g3
sVdirector
p5139
g3
sVcast
p5140
(lp5141
sVlength
p5142
g3
sVrating_count
p5143
g3
sVstoryline
p5144
g3
sVstars
p5145
(lp5146
sVyear
p5147
g3
sVgenre
p5148
(lp5149
sVtrailer
p5150
(lp5151
sVmetadata
p5152
(dp5153
Vasp_retio
p5154
g3
sVsound_mix
p5155
(lp5156
sVgross
p5157
g3
sVcountries
p5158
(lp5159
sVbudget
p5160
g3
sVlanguages
p5161
(lp5162
sVfilming_locations
p5163
(lp5164
sValso_known_as
p5165
(lp5166
ssa(dp5167
Vrating
p5168
g3
sVdescription
p5169
g3
sVtitle
p5170
g3
sVurl
p5171
(dp5172
Vurl
p5173
Vhttp://www.imdb.com/title/tt9252
p5174
ssVposter
p5175
(dp5176
Vlarge
p5177
V_V1_.jpg
p5178
sVthumb
p5179
g3
ssVrelease_date
p5180
g3
sVcontent_rating
p5181
g3
sVoriginal_title
p5182
g3
sVwriters
p5183
(lp5184
sVimdb_id
p5185
g3
sVdirector
p5186
g3
sVcast
p5187
(lp5188
sVlength
p5189
g3
sVrating_count
p5190
g3
sVstoryline
p5191
g3
sVstars
p5192
(lp5193
sVyear
p5194
g3
sVgenre
p5195
(lp5196
sVtrailer
p5197
(lp5198
sVmetadata
p5199
(dp5200
Vasp_retio
p5201
g3
sVsound_mix
p5202
(lp5203
sVgross
p5204
g3
sVcountries
p5205
(lp5206
sVbudget
p5207
g3
sVlanguages
p5208
(lp5209
sVfilming_locations
p5210
(lp5211
sValso_known_as
p5212
(lp5213
ssa(dp5214
Vrating
p5215
g3
sVdescription
p5216
g3
sVtitle
p5217
VKeimendes Leben, Teil 1
p5218
sVurl
p5219
(dp5220
Vurl
p5221
Vhttp://www.imdb.com/title/tt9253
p5222
ssVposter
p5223
(dp5224
Vlarge
p5225
Vhttp://ia.media-imdb.com/images/G/01/imdb/images/logos/imdb_fb_logo-1730868325._CB514892123_.png_V1_.jpg
p5226
sVthumb
p5227
g3
ssVrelease_date
p5228
V1918-11-11
p5229
sVcontent_rating
p5230
g3
sVoriginal_title
p5231
g3
sVwriters
p5232
(lp5233
VGeorg Jacoby
p5234
aVPaul Meissner
p5235
asVimdb_id
p5236
Vtt0009253
p5237
sVdirector
p5238
VGeorg Jacoby
p5239
sVcast
p5240
(lp5241
(dp5242
Vlink
p5243
Vhttp://www.imdb.com/name/nm0417837/?ref_=tt_cl_t1
p5244
sVimage
p5245
Vhttps://images-na.ssl-images-amazon.com/images/M/MV5BMTg3NzYyNTQ1Nl5BMl5BanBnXkFtZTgwMjc4NjcwMzE@._V1_UY44_CR1,0,32,44_AL_.jpg
p5246
sVcharacter
p5247
VJames Fraenkel, B&#246;rsenmarktler /              John Smith, amerikanischer Ingenieur
p5248
sVname
p5249
VEmil Jannings
p5250
sa(dp5251
Vlink
p5252
Vhttp://www.imdb.com/name/nm0707765/?ref_=tt_cl_t2
p5253
sVimage
p5254
Vhttps://images-na.ssl-images-amazon.com/images/M/MV5BMTUwMDUwNzI4MV5BMl5BanBnXkFtZTgwMDg4ODUxMzE@._UY317_CR16,0,214,317_AL_.jpg
p5255
sVcharacter
p5256
VMarietta Fraenkel, Fabrikbesitzer
p5257
sVname
p5258
VHanna Ralph
p5259
sa(dp5260
Vlink
p5261
Vhttp://www.imdb.com/name/nm0432721/?ref_=tt_cl_t3
p5262
sVimage
p5263
g3
sVcharacter
p5264
VFriedrich Wechmar
p5265
sVname
p5266
VHans Junkermann
p5267
sa(dp5268
Vlink
p5269
Vhttp://www.imdb.com/name/nm0029806/?ref_=tt_cl_t4
p5270
sVimage
p5271
g3
sVcharacter
p5272
VFrau Wechmar       (as Maja Angerstein)
p5273
sVname
p5274
VMartha Angerstein-Licho
p5275
sa(dp5276
Vlink
p5277
Vhttp://www.imdb.com/name/nm1430158/?ref_=tt_cl_t5
p5278
sVimage
p5279
g3
sVcharacter
p5280
VFrau von Borowicz
p5281
sVname
p5282
VMarga Lindt
p5283
sa(dp5284
Vlink
p5285
Vhttp://www.imdb.com/name/nm0458635/?ref_=tt_cl_t6
p5286
sVimage
p5287
g3
sVcharacter
p5288
VDr. Thiel, Hausarzt bei Wechmars
p5289
sVname
p5290
VAdolf Klein
p5291
sa(dp5292
Vlink
p5293
Vhttp://www.imdb.com/name/nm0226087/?ref_=tt_cl_t7
p5294
sVimage
p5295
g3
sVcharacter
p5296
VLiese Br&#228;er
p5297
sVname
p5298
VGrete Diercks
p5299
sa(dp5300
Vlink
p5301
Vhttp://www.imdb.com/name/nm1801409/?ref_=tt_cl_t8
p5302
sVimage
p5303
g3
sVcharacter
p5304
VAnna Beckmann
p5305
sVname
p5306
VGrete Sellin
p5307
sa(dp5308
Vlink
p5309
Vhttp://www.imdb.com/name/nm0956661/?ref_=tt_cl_t9
p5310
sVimage
p5311
g3
sVcharacter
p5312
VKarl Beckmann
p5313
sVname
p5314
VToni Zimmerer
p5315
sa(dp5316
Vlink
p5317
Vhttp://www.imdb.com/name/nm0418131/?ref_=tt_cl_t10
p5318
sVimage
p5319
g3
sVcharacter
p5320
VGraf Moros
p5321
sVname
p5322
VVictor Janson
p5323
sa(dp5324
Vlink
p5325
Vhttp://www.imdb.com/name/nm0475470/?ref_=tt_cl_t11
p5326
sVimage
p5327
g3
sVcharacter
p5328
g3
sVname
p5329
VMargarete Kupfer
p5330
sa(dp5331
Vlink
p5332
Vhttp://www.imdb.com/name/nm0508985/?ref_=tt_cl_t12
p5333
sVimage
p5334
g3
sVcharacter
p5335
VTreugold, Literat       (as Adolf Edgar Licho)
p5336
sVname
p5337
VAdolf E. Licho
p5338
sasVlength
p5339
g3
sVrating_count
p5340
g3
sVstoryline
p5341
g3
sVstars
p5342
(lp5343
VEmil Jannings
p5344
aVHanna Ralph
p5345
aVHans Junkermann
p5346
asVyear
p5347
V1918
p5348
sVgenre
p5349
(lp5350
sVtrailer
p5351
(lp5352
sVmetadata
p5353
(dp5354
Vasp_retio
p5355
V1.33 : 1
p5356
sVsound_mix
p5357
(lp5358
VSilent
p5359
asVgross
p5360
g3
sVcountries
p5361
(lp5362
VGermany
p5363
asVbudget
p5364
g3
sVlanguages
p5365
(lp5366
VGerman
p5367
asVfilming_locations
p5368
(lp5369
sValso_known_as
p5370
(lp5371
VFakad&#243; &#233;let
p5372
assa(dp5373
Vrating
p5374
g3
sVdescription
p5375
g3
sVtitle
p5376
VThe Key to Power
p5377
sVurl
p5378
(dp5379
Vurl
p5380
Vhttp://www.imdb.com/title/tt9254
p5381
ssVposter
p5382
(dp5383
Vlarge
p5384
Vhttp://ia.media-imdb.com/images/G/01/imdb/images/logos/imdb_fb_logo-1730868325._CB514892123_.png_V1_.jpg
p5385
sVthumb
p5386
g3
ssVrelease_date
p5387
V1920-01
p5388
sVcontent_rating
p5389
g3
sVoriginal_title
p5390
g3
sVwriters
p5391
(lp5392
VTom Cushing
p5393
aVCaroline Gentry
p5394
asVimdb_id
p5395
Vtt0009254
p5396
sVdirector
p5397
VWilliam Parke Frederick A. Thomson
p5398
sVcast
p5399
(lp5400
(dp5401
Vlink
p5402
Vhttp://www.imdb.com/name/nm0860216/?ref_=tt_cl_t1
p5403
sVimage
p5404
Vhttps://images-na.ssl-images-amazon.com/images/M/MV5BZDIwN2U0NmEtNjcyNC00ZDA2LThiZjItZmVkNTIzZTc4ODdjXkEyXkFqcGdeQXVyMzI5NDcxNzI@._V1_UY44_CR2,0,32,44_AL_.jpg
p5405
sVcharacter
p5406
VBruce Wendell
p5407
sVname
p5408
VHugh Thompson
p5409
sa(dp5410
Vlink
p5411
Vhttp://www.imdb.com/name/nm0010845/?ref_=tt_cl_t2
p5412
sVimage
p5413
Vhttps://images-na.ssl-images-amazon.com/images/M/MV5BMjE2NDYzODI4M15BMl5BanBnXkFtZTgwMjA3NjY3MTE@._V1._CR112.88333129882812,148.53334045410156,1261.7166748046875,1744.1999969482422_UX32_CR0,0,32,44_AL_.jpg
p5414
sVcharacter
p5415
VAnn Blair
p5416
sVname
p5417
VClaire Adams
p5418
sa(dp5419
Vlink
p5420
Vhttp://www.imdb.com/name/nm0319599/?ref_=tt_cl_t3
p5421
sVimage
p5422
Vhttps://images-na.ssl-images-amazon.com/images/M/MV5BMGI1OTkyNjktMzE1OC00YjBmLTgwM2UtNWQzMTBjZTBiYmQ1XkEyXkFqcGdeQXVyMDUyOTUyNQ@@._V1_UY44_CR12,0,32,44_AL_.jpg
p5423
sVcharacter
p5424
VGeneral Blair
p5425
sVname
p5426
VJ.H. Gilmour
p5427
sa(dp5428
Vlink
p5429
Vhttp://www.imdb.com/name/nm0636678/?ref_=tt_cl_t4
p5430
sVimage
p5431
g3
sVcharacter
p5432
VBobbie Blair
p5433
sVname
p5434
VFrazier Nounnan
p5435
sa(dp5436
Vlink
p5437
Vhttp://www.imdb.com/name/nm0123177/?ref_=tt_cl_t5
p5438
sVimage
p5439
g3
sVcharacter
p5440
VPresident Parrish
p5441
sVname
p5442
VTom Burrough
p5443
sa(dp5444
Vlink
p5445
Vhttp://www.imdb.com/name/nm0242635/?ref_=tt_cl_t6
p5446
sVimage
p5447
g3
sVcharacter
p5448
VJames Wendell       (as J.J. Dunn)
p5449
sVname
p5450
VJohn J. Dunn
p5451
sa(dp5452
Vlink
p5453
Vhttp://www.imdb.com/name/nm0705359/?ref_=tt_cl_t7
p5454
sVimage
p5455
g3
sVcharacter
p5456
VLieutenant Parrish
p5457
sVname
p5458
VFred Radcliffe
p5459
sa(dp5460
Vlink
p5461
Vhttp://www.imdb.com/name/nm0667439/?ref_=tt_cl_t8
p5462
sVimage
p5463
g3
sVcharacter
p5464
VVon Bernstorff
p5465
sVname
p5466
VGeorge Pauncefort
p5467
sa(dp5468
Vlink
p5469
Vhttp://www.imdb.com/name/nm0336025/?ref_=tt_cl_t9
p5470
sVimage
p5471
Vhttps://images-na.ssl-images-amazon.com/images/M/MV5BZmRmMzhjOWYtOGQ3OS00YTI1LWFmYmItOGUxYzM4MTcxNDQ3XkEyXkFqcGdeQXVyMzI5NDcxNzI@._V1_UY44_CR2,0,32,44_AL_.jpg
p5472
sVcharacter
p5473
VMeyer       (as Stephen Gratton)
p5474
sVname
p5475
VStephen Grattan
p5476
sa(dp5477
Vlink
p5478
Vhttp://www.imdb.com/name/nm0448176/?ref_=tt_cl_t10
p5479
sVimage
p5480
g3
sVcharacter
p5481
VGross       (as L.F. Kennedy)
p5482
sVname
p5483
VLem F. Kennedy
p5484
sa(dp5485
Vlink
p5486
Vhttp://www.imdb.com/name/nm0139862/?ref_=tt_cl_t11
p5487
sVimage
p5488
g3
sVcharacter
p5489
g3
sVname
p5490
VStephen Carr
p5491
sa(dp5492
Vlink
p5493
Vhttp://www.imdb.com/name/nm0653098/?ref_=tt_cl_t12
p5494
sVimage
p5495
g3
sVcharacter
p5496
g3
sVname
p5497
VHenri Rolf Otte
p5498
sasVlength
p5499
g3
sVrating_count
p5500
g3
sVstoryline
p5501
g3
sVstars
p5502
(lp5503
VHugh Thompson
p5504
aVClaire Adams
p5505
aVJ.H. Gilmour
p5506
asVyear
p5507
V1920
p5508
sVgenre
p5509
(lp5510
VDrama
p5511
asVtrailer
p5512
(lp5513
sVmetadata
p5514
(dp5515
Vasp_retio
p5516
V1.33 : 1
p5517
sVsound_mix
p5518
(lp5519
VSilent
p5520
asVgross
p5521
g3
sVcountries
p5522
(lp5523
VUSA
p5524
asVbudget
p5525
g3
sVlanguages
p5526
(lp5527
VEnglish
p5528
asVfilming_locations
p5529
(lp5530
sValso_known_as
p5531
(lp5532
VThe Romance of Coal
p5533
assa(dp5534
Vrating
p5535
g3
sVdescription
p5536
g3
sVtitle
p5537
g3
sVurl
p5538
(dp5539
Vurl
p5540
Vhttp://www.imdb.com/title/tt9255
p5541
ssVposter
p5542
(dp5543
Vlarge
p5544
V_V1_.jpg
p5545
sVthumb
p5546
g3
ssVrelease_date
p5547
g3
sVcontent_rating
p5548
g3
sVoriginal_title
p5549
g3
sVwriters
p5550
(lp5551
sVimdb_id
p5552
g3
sVdirector
p5553
g3
sVcast
p5554
(lp5555
sVlength
p5556
g3
sVrating_count
p5557
g3
sVstoryline
p5558
g3
sVstars
p5559
(lp5560
sVyear
p5561
g3
sVgenre
p5562
(lp5563
sVtrailer
p5564
(lp5565
sVmetadata
p5566
(dp5567
Vasp_retio
p5568
g3
sVsound_mix
p5569
(lp5570
sVgross
p5571
g3
sVcountries
p5572
(lp5573
sVbudget
p5574
g3
sVlanguages
p5575
(lp5576
sVfilming_locations
p5577
(lp5578
sValso_known_as
p5579
(lp5580
ssa(dp5581
Vrating
p5582
g3
sVdescription
p5583
VOur hero has a dream, while in the trenches at the front, that he is in Berlin rescuing a Red Cross nurse from the hands of the Kaiser and his henchmen.
p5584
sVtitle
p5585
VKicking the Germ Out of Germany
p5586
sVurl
p5587
(dp5588
Vurl
p5589
Vhttp://www.imdb.com/title/tt9256
p5590
ssVposter
p5591
(dp5592
Vlarge
p5593
Vhttps://images-na.ssl-images-amazon.com/images/M/MV5BOTFmNTA3ZDItMzYzMi00Yjc2LTljYWQtNjVmYTBkOTZiYzZhXkEyXkFqcGdeQXVyMjUxODE0MDY@._V1_.jpg
p5594
sVthumb
p5595
Vhttps://images-na.ssl-images-amazon.com/images/M/MV5BOTFmNTA3ZDItMzYzMi00Yjc2LTljYWQtNjVmYTBkOTZiYzZhXkEyXkFqcGdeQXVyMjUxODE0MDY@._V1_UY268_CR2,0,182,268_AL_.jpg
p5596
ssVrelease_date
p5597
V1918-07-21
p5598
sVcontent_rating
p5599
g3
sVoriginal_title
p5600
g3
sVwriters
p5601
(lp5602
sVimdb_id
p5603
Vtt0009256
p5604
sVdirector
p5605
VAlfred J. Goulding
p5606
sVcast
p5607
(lp5608
(dp5609
Vlink
p5610
Vhttp://www.imdb.com/name/nm0516001/?ref_=tt_cl_t1
p5611
sVimage
p5612
Vhttps://images-na.ssl-images-amazon.com/images/M/MV5BMjA0ODc5MTIyOV5BMl5BanBnXkFtZTgwNDgxODIwMjE@._V1_UY44_CR1,0,32,44_AL_.jpg
p5613
sVcharacter
p5614
g3
sVname
p5615
VHarold Lloyd
p5616
sa(dp5617
Vlink
p5618
Vhttp://www.imdb.com/name/nm0689444/?ref_=tt_cl_t2
p5619
sVimage
p5620
Vhttps://images-na.ssl-images-amazon.com/images/M/MV5BMTA1NTM2NTAzODdeQTJeQWpwZ15BbWU4MDkzOTM3MDIx._V1_UY44_CR1,0,32,44_AL_.jpg
p5621
sVcharacter
p5622
g3
sVname
p5623
V'Snub' Pollard
p5624
sa(dp5625
Vlink
p5626
Vhttp://www.imdb.com/name/nm0199841/?ref_=tt_cl_t3
p5627
sVimage
p5628
Vhttps://images-na.ssl-images-amazon.com/images/M/MV5BMTU3OTI5NDc5M15BMl5BanBnXkFtZTYwMjY1MjI2._V1_UY44_CR1,0,32,44_AL_.jpg
p5629
sVcharacter
p5630
g3
sVname
p5631
VBebe Daniels
p5632
sa(dp5633
Vlink
p5634
g3
sVimage
p5635
g3
sVcharacter
p5636
g3
sVname
p5637
g3
sa(dp5638
Vlink
p5639
Vhttp://www.imdb.com/name/nm0174789/?ref_=tt_cl_t4
p5640
sVimage
p5641
Vhttps://images-na.ssl-images-amazon.com/images/M/MV5BMzdkZDEzOGQtMWQyNS00YThhLWExMjEtMDU0ZjE1YjExMDU4XkEyXkFqcGdeQXVyMzI5NDcxNzI@._V1_UY44_CR0,0,32,44_AL_.jpg
p5642
sVcharacter
p5643
V(as Lige Cromley)
p5644
sVname
p5645
VLige Conley
p5646
sa(dp5647
Vlink
p5648
Vhttp://www.imdb.com/name/nm0285383/?ref_=tt_cl_t5
p5649
sVimage
p5650
g3
sVcharacter
p5651
g3
sVname
p5652
VMildred Forbes
p5653
sa(dp5654
Vlink
p5655
Vhttp://www.imdb.com/name/nm0318981/?ref_=tt_cl_t6
p5656
sVimage
p5657
Vhttps://images-na.ssl-images-amazon.com/images/M/MV5BYWE0ZWZjMWItN2EwMC00NjA0LTgzOGUtNzc4ZjY2OGVmN2M4XkEyXkFqcGdeQXVyMTk2MzI2Ng@@._V1_UY44_CR13,0,32,44_AL_.jpg
p5658
sVcharacter
p5659
g3
sVname
p5660
VWilliam Gillespie
p5661
sa(dp5662
Vlink
p5663
Vhttp://www.imdb.com/name/nm0319532/?ref_=tt_cl_t7
p5664
sVimage
p5665
Vhttps://images-na.ssl-images-amazon.com/images/M/MV5BZjI1ZGE4N2ItNjI0Ny00ZjYzLTg3YmUtM2YzM2QxNmI3ODVjXkEyXkFqcGdeQXVyMzI5NDcxNzI@._V1_UY44_CR2,0,32,44_AL_.jpg
p5666
sVcharacter
p5667
g3
sVname
p5668
VHelen Gilmore
p5669
sa(dp5670
Vlink
p5671
Vhttp://www.imdb.com/name/nm0357468/?ref_=tt_cl_t8
p5672
sVimage
p5673
g3
sVcharacter
p5674
g3
sVname
p5675
VMax Hamburger
p5676
sa(dp5677
Vlink
p5678
Vhttp://www.imdb.com/name/nm0365582/?ref_=tt_cl_t9
p5679
sVimage
p5680
g3
sVcharacter
p5681
g3
sVname
p5682
VEstelle Harrison
p5683
sa(dp5684
Vlink
p5685
Vhttp://www.imdb.com/name/nm0367612/?ref_=tt_cl_t10
p5686
sVimage
p5687
g3
sVcharacter
p5688
g3
sVname
p5689
VLew Harvey
p5690
sa(dp5691
Vlink
p5692
Vhttp://www.imdb.com/name/nm0397907/?ref_=tt_cl_t11
p5693
sVimage
p5694
g3
sVcharacter
p5695
g3
sVname
p5696
VWallace Howe
p5697
sa(dp5698
Vlink
p5699
Vhttp://www.imdb.com/name/nm0417168/?ref_=tt_cl_t12
p5700
sVimage
p5701
Vhttps://images-na.ssl-images-amazon.com/images/M/MV5BYjM2OGQ1YzEtZDE2OS00NzViLTg5YWUtMjNhMjBhZWI1MzlhXkEyXkFqcGdeQXVyMzI5NDcxNzI@._V1_UY44_CR1,0,32,44_AL_.jpg
p5702
sVcharacter
p5703
g3
sVname
p5704
VBud Jamison
p5705
sa(dp5706
Vlink
p5707
Vhttp://www.imdb.com/name/nm0483970/?ref_=tt_cl_t13
p5708
sVimage
p5709
g3
sVcharacter
p5710
g3
sVname
p5711
VDee Lampton
p5712
sa(dp5713
Vlink
p5714
Vhttp://www.imdb.com/name/nm1077151/?ref_=tt_cl_t14
p5715
sVimage
p5716
g3
sVcharacter
p5717
g3
sVname
p5718
VOscar Larson
p5719
sa(dp5720
Vlink
p5721
Vhttp://www.imdb.com/name/nm0489961/?ref_=tt_cl_t15
p5722
sVimage
p5723
g3
sVcharacter
p5724
V(as M.A. Laswell)
p5725
sVname
p5726
VMaynard Laswell
p5727
sasVlength
p5728
g3
sVrating_count
p5729
g3
sVstoryline
p5730
VOur hero has a dream, while in the trenches at the front, that he is in Berlin rescuing a Red Cross nurse from the hands of the Kaiser and his henchmen.
p5731
sVstars
p5732
(lp5733
VHarold Lloyd
p5734
aV'Snub' Pollard
p5735
aVBebe Daniels
p5736
asVyear
p5737
V1918
p5738
sVgenre
p5739
(lp5740
VComedy
p5741
aVShort
p5742
asVtrailer
p5743
(lp5744
sVmetadata
p5745
(dp5746
Vasp_retio
p5747
V1.33 : 1
p5748
sVsound_mix
p5749
(lp5750
VSilent
p5751
asVgross
p5752
g3
sVcountries
p5753
(lp5754
VUSA
p5755
asVbudget
p5756
g3
sVlanguages
p5757
(lp5758
VEnglish
p5759
asVfilming_locations
p5760
(lp5761
sValso_known_as
p5762
(lp5763
ssa(dp5764
Vrating
p5765
g3
sVdescription
p5766
g3
sVtitle
p5767
g3
sVurl
p5768
(dp5769
Vurl
p5770
Vhttp://www.imdb.com/title/tt9257
p5771
ssVposter
p5772
(dp5773
Vlarge
p5774
V_V1_.jpg
p5775
sVthumb
p5776
g3
ssVrelease_date
p5777
g3
sVcontent_rating
p5778
g3
sVoriginal_title
p5779
g3
sVwriters
p5780
(lp5781
sVimdb_id
p5782
g3
sVdirector
p5783
g3
sVcast
p5784
(lp5785
sVlength
p5786
g3
sVrating_count
p5787
g3
sVstoryline
p5788
g3
sVstars
p5789
(lp5790
sVyear
p5791
g3
sVgenre
p5792
(lp5793
sVtrailer
p5794
(lp5795
sVmetadata
p5796
(dp5797
Vasp_retio
p5798
g3
sVsound_mix
p5799
(lp5800
sVgross
p5801
g3
sVcountries
p5802
(lp5803
sVbudget
p5804
g3
sVlanguages
p5805
(lp5806
sVfilming_locations
p5807
(lp5808
sValso_known_as
p5809
(lp5810
ssa(dp5811
Vrating
p5812
g3
sVdescription
p5813
g3
sVtitle
p5814
g3
sVurl
p5815
(dp5816
Vurl
p5817
Vhttp://www.imdb.com/title/tt9258
p5818
ssVposter
p5819
(dp5820
Vlarge
p5821
V_V1_.jpg
p5822
sVthumb
p5823
g3
ssVrelease_date
p5824
g3
sVcontent_rating
p5825
g3
sVoriginal_title
p5826
g3
sVwriters
p5827
(lp5828
sVimdb_id
p5829
g3
sVdirector
p5830
g3
sVcast
p5831
(lp5832
sVlength
p5833
g3
sVrating_count
p5834
g3
sVstoryline
p5835
g3
sVstars
p5836
(lp5837
sVyear
p5838
g3
sVgenre
p5839
(lp5840
sVtrailer
p5841
(lp5842
sVmetadata
p5843
(dp5844
Vasp_retio
p5845
g3
sVsound_mix
p5846
(lp5847
sVgross
p5848
g3
sVcountries
p5849
(lp5850
sVbudget
p5851
g3
sVlanguages
p5852
(lp5853
sVfilming_locations
p5854
(lp5855
sValso_known_as
p5856
(lp5857
ssa(dp5858
Vrating
p5859
V4.2
p5860
sVdescription
p5861
g3
sVtitle
p5862
VKids
p5863
sVurl
p5864
(dp5865
Vurl
p5866
Vhttp://www.imdb.com/title/tt9259
p5867
ssVposter
p5868
(dp5869
Vlarge
p5870
Vhttp://ia.media-imdb.com/images/G/01/imdb/images/logos/imdb_fb_logo-1730868325._CB514892123_.png_V1_.jpg
p5871
sVthumb
p5872
g3
ssVrelease_date
p5873
V1918-07-07
p5874
sVcontent_rating
p5875
g3
sVoriginal_title
p5876
g3
sVwriters
p5877
(lp5878
VAl Christie
p5879
asVimdb_id
p5880
Vtt0009259
p5881
sVdirector
p5882
VAl Christie
p5883
sVcast
p5884
(lp5885
sVlength
p5886
g3
sVrating_count
p5887
V6
p5888
sVstoryline
p5889
g3
sVstars
p5890
(lp5891
sVyear
p5892
V1918
p5893
sVgenre
p5894
(lp5895
VComedy
p5896
aVShort
p5897
asVtrailer
p5898
(lp5899
sVmetadata
p5900
(dp5901
Vasp_retio
p5902
V1.33 : 1
p5903
sVsound_mix
p5904
(lp5905
VSilent
p5906
asVgross
p5907
g3
sVcountries
p5908
(lp5909
VUSA
p5910
asVbudget
p5911
g3
sVlanguages
p5912
(lp5913
sVfilming_locations
p5914
(lp5915
sValso_known_as
p5916
(lp5917
ssa(dp5918
Vrating
p5919
g3
sVdescription
p5920
g3
sVtitle
p5921
g3
sVurl
p5922
(dp5923
Vurl
p5924
Vhttp://www.imdb.com/title/tt9260
p5925
ssVposter
p5926
(dp5927
Vlarge
p5928
V_V1_.jpg
p5929
sVthumb
p5930
g3
ssVrelease_date
p5931
g3
sVcontent_rating
p5932
g3
sVoriginal_title
p5933
g3
sVwriters
p5934
(lp5935
sVimdb_id
p5936
g3
sVdirector
p5937
g3
sVcast
p5938
(lp5939
sVlength
p5940
g3
sVrating_count
p5941
g3
sVstoryline
p5942
g3
sVstars
p5943
(lp5944
sVyear
p5945
g3
sVgenre
p5946
(lp5947
sVtrailer
p5948
(lp5949
sVmetadata
p5950
(dp5951
Vasp_retio
p5952
g3
sVsound_mix
p5953
(lp5954
sVgross
p5955
g3
sVcountries
p5956
(lp5957
sVbudget
p5958
g3
sVlanguages
p5959
(lp5960
sVfilming_locations
p5961
(lp5962
sValso_known_as
p5963
(lp5964
ssa(dp5965
Vrating
p5966
g3
sVdescription
p5967
g3
sVtitle
p5968
g3
sVurl
p5969
(dp5970
Vurl
p5971
Vhttp://www.imdb.com/title/tt9261
p5972
ssVposter
p5973
(dp5974
Vlarge
p5975
V_V1_.jpg
p5976
sVthumb
p5977
g3
ssVrelease_date
p5978
g3
sVcontent_rating
p5979
g3
sVoriginal_title
p5980
g3
sVwriters
p5981
(lp5982
sVimdb_id
p5983
g3
sVdirector
p5984
g3
sVcast
p5985
(lp5986
sVlength
p5987
g3
sVrating_count
p5988
g3
sVstoryline
p5989
g3
sVstars
p5990
(lp5991
sVyear
p5992
g3
sVgenre
p5993
(lp5994
sVtrailer
p5995
(lp5996
sVmetadata
p5997
(dp5998
Vasp_retio
p5999
g3
sVsound_mix
p6000
(lp6001
sVgross
p6002
g3
sVcountries
p6003
(lp6004
sVbudget
p6005
g3
sVlanguages
p6006
(lp6007
sVfilming_locations
p6008
(lp6009
sValso_known_as
p6010
(lp6011
ssa(dp6012
Vrating
p6013
g3
sVdescription
p6014
g3
sVtitle
p6015
VKing Social Briars
p6016
sVurl
p6017
(dp6018
Vurl
p6019
Vhttp://www.imdb.com/title/tt9262
p6020
ssVposter
p6021
(dp6022
Vlarge
p6023
Vhttps://images-na.ssl-images-amazon.com/images/M/MV5BYTQ5NGM0NGItZDc2Zi00ZTk2LTljYWMtZWIwOWQ4OWNjMDM2XkEyXkFqcGdeQXVyMzI2NjEzNDE@._V1_.jpg
p6024
sVthumb
p6025
Vhttps://images-na.ssl-images-amazon.com/images/M/MV5BYTQ5NGM0NGItZDc2Zi00ZTk2LTljYWMtZWIwOWQ4OWNjMDM2XkEyXkFqcGdeQXVyMzI2NjEzNDE@._V1_UY268_CR87,0,182,268_AL_.jpg
p6026
ssVrelease_date
p6027
g3
sVcontent_rating
p6028
g3
sVoriginal_title
p6029
g3
sVwriters
p6030
(lp6031
sVimdb_id
p6032
Vtt0009262
p6033
sVdirector
p6034
VHenry King
p6035
sVcast
p6036
(lp6037
sVlength
p6038
g3
sVrating_count
p6039
g3
sVstoryline
p6040
g3
sVstars
p6041
(lp6042
sVyear
p6043
V1918
p6044
sVgenre
p6045
(lp6046
sVtrailer
p6047
(lp6048
sVmetadata
p6049
(dp6050
Vasp_retio
p6051
V1.33 : 1
p6052
sVsound_mix
p6053
(lp6054
VSilent
p6055
asVgross
p6056
g3
sVcountries
p6057
(lp6058
VUSA
p6059
asVbudget
p6060
g3
sVlanguages
p6061
(lp6062
sVfilming_locations
p6063
(lp6064
sValso_known_as
p6065
(lp6066
ssa(dp6067
Vrating
p6068
g3
sVdescription
p6069
g3
sVtitle
p6070
g3
sVurl
p6071
(dp6072
Vurl
p6073
Vhttp://www.imdb.com/title/tt9263
p6074
ssVposter
p6075
(dp6076
Vlarge
p6077
V_V1_.jpg
p6078
sVthumb
p6079
g3
ssVrelease_date
p6080
g3
sVcontent_rating
p6081
g3
sVoriginal_title
p6082
g3
sVwriters
p6083
(lp6084
sVimdb_id
p6085
g3
sVdirector
p6086
g3
sVcast
p6087
(lp6088
sVlength
p6089
g3
sVrating_count
p6090
g3
sVstoryline
p6091
g3
sVstars
p6092
(lp6093
sVyear
p6094
g3
sVgenre
p6095
(lp6096
sVtrailer
p6097
(lp6098
sVmetadata
p6099
(dp6100
Vasp_retio
p6101
g3
sVsound_mix
p6102
(lp6103
sVgross
p6104
g3
sVcountries
p6105
(lp6106
sVbudget
p6107
g3
sVlanguages
p6108
(lp6109
sVfilming_locations
p6110
(lp6111
sValso_known_as
p6112
(lp6113
ssa(dp6114
Vrating
p6115
g3
sVdescription
p6116
g3
sVtitle
p6117
g3
sVurl
p6118
(dp6119
Vurl
p6120
Vhttp://www.imdb.com/title/tt9264
p6121
ssVposter
p6122
(dp6123
Vlarge
p6124
V_V1_.jpg
p6125
sVthumb
p6126
g3
ssVrelease_date
p6127
g3
sVcontent_rating
p6128
g3
sVoriginal_title
p6129
g3
sVwriters
p6130
(lp6131
sVimdb_id
p6132
g3
sVdirector
p6133
g3
sVcast
p6134
(lp6135
sVlength
p6136
g3
sVrating_count
p6137
g3
sVstoryline
p6138
g3
sVstars
p6139
(lp6140
sVyear
p6141
g3
sVgenre
p6142
(lp6143
sVtrailer
p6144
(lp6145
sVmetadata
p6146
(dp6147
Vasp_retio
p6148
g3
sVsound_mix
p6149
(lp6150
sVgross
p6151
g3
sVcountries
p6152
(lp6153
sVbudget
p6154
g3
sVlanguages
p6155
(lp6156
sVfilming_locations
p6157
(lp6158
sValso_known_as
p6159
(lp6160
ssa(dp6161
Vrating
p6162
g3
sVdescription
p6163
g3
sVtitle
p6164
VKiss or Kill
p6165
sVurl
p6166
(dp6167
Vurl
p6168
Vhttp://www.imdb.com/title/tt9265
p6169
ssVposter
p6170
(dp6171
Vlarge
p6172
Vhttp://ia.media-imdb.com/images/G/01/imdb/images/logos/imdb_fb_logo-1730868325._CB514892123_.png_V1_.jpg
p6173
sVthumb
p6174
g3
ssVrelease_date
p6175
V1918-10-21
p6176
sVcontent_rating
p6177
g3
sVoriginal_title
p6178
g3
sVwriters
p6179
(lp6180
VMax Brand
p6181
aVElmer Clifton
p6182
asVimdb_id
p6183
Vtt0009265
p6184
sVdirector
p6185
VElmer Clifton
p6186
sVcast
p6187
(lp6188
(dp6189
Vlink
p6190
Vhttp://www.imdb.com/name/nm0712660/?ref_=tt_cl_t1
p6191
sVimage
p6192
Vhttps://images-na.ssl-images-amazon.com/images/M/MV5BNmJkZjhlN2EtYWYzNi00NGE3LTgzMWYtNjFjNGM1MTU1NGViXkEyXkFqcGdeQXVyMzI2MDEwNA@@._V1_UY44_CR2,0,32,44_AL_.jpg
p6193
sVcharacter
p6194
VHenry Warner
p6195
sVname
p6196
VHerbert Rawlinson
p6197
sa(dp6198
Vlink
p6199
Vhttp://www.imdb.com/name/nm0212912/?ref_=tt_cl_t2
p6200
sVimage
p6201
Vhttps://images-na.ssl-images-amazon.com/images/M/MV5BMjYxMzQwOTQ3OF5BMl5BanBnXkFtZTgwOTEzODY3MTE@._V1._CR109.88333129882812,113.53334045410156,866,1198_UX32_CR0,0,32,44_AL_.jpg
p6202
sVcharacter
p6203
VRuth Orton
p6204
sVname
p6205
VPriscilla Dean
p6206
sa(dp6207
Vlink
p6208
Vhttp://www.imdb.com/name/nm0141650/?ref_=tt_cl_t3
p6209
sVimage
p6210
g3
sVcharacter
p6211
VCraig
p6212
sVname
p6213
VHarry Carter
p6214
sa(dp6215
Vlink
p6216
Vhttp://www.imdb.com/name/nm0020251/?ref_=tt_cl_t4
p6217
sVimage
p6218
Vhttps://images-na.ssl-images-amazon.com/images/M/MV5BYTI1ODY5ZDctMGQ2YS00YWM0LWI5NzItYTE5MzllM2E1MTg1XkEyXkFqcGdeQXVyMzI5NDcxNzI@._V1_UY44_CR1,0,32,44_AL_.jpg
p6219
sVcharacter
p6220
VMiddleton
p6221
sVname
p6222
VAlfred Allen
p6223
sasVlength
p6224
g3
sVrating_count
p6225
g3
sVstoryline
p6226
g3
sVstars
p6227
(lp6228
VHerbert Rawlinson
p6229
aVPriscilla Dean
p6230
aVHarry Carter
p6231
asVyear
p6232
V1918
p6233
sVgenre
p6234
(lp6235
VCrime
p6236
aVDrama
p6237
asVtrailer
p6238
(lp6239
sVmetadata
p6240
(dp6241
Vasp_retio
p6242
g3
sVsound_mix
p6243
(lp6244
VSilent
p6245
asVgross
p6246
g3
sVcountries
p6247
(lp6248
VUSA
p6249
asVbudget
p6250
g3
sVlanguages
p6251
(lp6252
sVfilming_locations
p6253
(lp6254
sValso_known_as
p6255
(lp6256
VAmour r&#233;dempteur
p6257
assa(dp6258
Vrating
p6259
g3
sVdescription
p6260
g3
sVtitle
p6261
VThe Kitchen Lady
p6262
sVurl
p6263
(dp6264
Vurl
p6265
Vhttp://www.imdb.com/title/tt9266
p6266
ssVposter
p6267
(dp6268
Vlarge
p6269
Vhttps://images-na.ssl-images-amazon.com/images/M/MV5BNjdlNmU4ZjgtZWY3YS00NzhmLWFkZjItY2RmYzM4NTZjZmFjXkEyXkFqcGdeQXVyMDUyOTUyNQ@@._V1_.jpg
p6270
sVthumb
p6271
Vhttps://images-na.ssl-images-amazon.com/images/M/MV5BNjdlNmU4ZjgtZWY3YS00NzhmLWFkZjItY2RmYzM4NTZjZmFjXkEyXkFqcGdeQXVyMDUyOTUyNQ@@._V1_UY268_CR3,0,182,268_AL_.jpg
p6272
ssVrelease_date
p6273
V1918-01-13
p6274
sVcontent_rating
p6275
g3
sVoriginal_title
p6276
g3
sVwriters
p6277
(lp6278
VMack Sennett
p6279
asVimdb_id
p6280
Vtt0009266
p6281
sVdirector
p6282
VEdward F. Cline
p6283
sVcast
p6284
(lp6285
(dp6286
Vlink
p6287
Vhttp://www.imdb.com/name/nm0269771/?ref_=tt_cl_t1
p6288
sVimage
p6289
Vhttps://images-na.ssl-images-amazon.com/images/M/MV5BMjI3MTM1MDE4OF5BMl5BanBnXkFtZTgwNjQ4MzM4MTE@._V1._CR87.88333129882812,108.53334045410156,854,1107_UY44_CR1,0,32,44_AL_.jpg
p6290
sVcharacter
p6291
VGwendolyn Hogan - the Kitchen Lady
p6292
sVname
p6293
VLouise Fazenda
p6294
sa(dp6295
Vlink
p6296
Vhttp://www.imdb.com/name/nm0838843/?ref_=tt_cl_t2
p6297
sVimage
p6298
Vhttps://images-na.ssl-images-amazon.com/images/M/MV5BMTM2MTg1OTA3OV5BMl5BanBnXkFtZTcwMDYxODkxOA@@._UY317_CR16,0,214,317_AL_.jpg
p6299
sVcharacter
p6300
VThe Landlady's Son
p6301
sVname
p6302
VSlim Summerville
p6303
sa(dp6304
Vlink
p6305
Vhttp://www.imdb.com/name/nm0857118/?ref_=tt_cl_t3
p6306
sVimage
p6307
g3
sVcharacter
p6308
VThe Landlady
p6309
sVname
p6310
VEva Thatcher
p6311
sa(dp6312
Vlink
p6313
Vhttp://www.imdb.com/name/nm0147070/?ref_=tt_cl_t4
p6314
sVimage
p6315
Vhttps://images-na.ssl-images-amazon.com/images/M/MV5BMDY1MzM1NDMtYTUxYS00NWEzLTlmZDMtMzc3ODg4N2U0NWU4XkEyXkFqcGdeQXVyMDUyOTUyNQ@@._V1_UY44_CR17,0,32,44_AL_.jpg
p6316
sVcharacter
p6317
VThe Lion Tamer
p6318
sVname
p6319
VGlen Cavender
p6320
sa(dp6321
Vlink
p6322
Vhttp://www.imdb.com/name/nm0537897/?ref_=tt_cl_t5
p6323
sVimage
p6324
g3
sVcharacter
p6325
VThe Star Boarder
p6326
sVname
p6327
VAlice Maison
p6328
sa(dp6329
Vlink
p6330
Vhttp://www.imdb.com/name/nm0642722/?ref_=tt_cl_t6
p6331
sVimage
p6332
g3
sVcharacter
p6333
VAunt Mary       (as Tony O'Sullivan)
p6334
sVname
p6335
VAnthony O'Sullivan
p6336
sa(dp6337
Vlink
p6338
Vhttp://www.imdb.com/name/nm1627993/?ref_=tt_cl_t7
p6339
sVimage
p6340
g3
sVcharacter
p6341
VPepper the Cat
p6342
sVname
p6343
VPepper the Cat
p6344
sasVlength
p6345
V20
p6346
sVrating_count
p6347
g3
sVstoryline
p6348
g3
sVstars
p6349
(lp6350
VLouise Fazenda
p6351
aVSlim Summerville
p6352
aVEva Thatcher
p6353
asVyear
p6354
V1918
p6355
sVgenre
p6356
(lp6357
VShort
p6358
aVComedy
p6359
asVtrailer
p6360
(lp6361
sVmetadata
p6362
(dp6363
Vasp_retio
p6364
V1.33 : 1
p6365
sVsound_mix
p6366
(lp6367
VSilent
p6368
asVgross
p6369
g3
sVcountries
p6370
(lp6371
VUSA
p6372
asVbudget
p6373
g3
sVlanguages
p6374
(lp6375
VEnglish
p6376
asVfilming_locations
p6377
(lp6378
sValso_known_as
p6379
(lp6380
VPhilom&#232;ne fille de salle
p6381
assa(dp6382
Vrating
p6383
g3
sVdescription
p6384
g3
sVtitle
p6385
g3
sVurl
p6386
(dp6387
Vurl
p6388
Vhttp://www.imdb.com/title/tt9267
p6389
ssVposter
p6390
(dp6391
Vlarge
p6392
V_V1_.jpg
p6393
sVthumb
p6394
g3
ssVrelease_date
p6395
g3
sVcontent_rating
p6396
g3
sVoriginal_title
p6397
g3
sVwriters
p6398
(lp6399
sVimdb_id
p6400
g3
sVdirector
p6401
g3
sVcast
p6402
(lp6403
sVlength
p6404
g3
sVrating_count
p6405
g3
sVstoryline
p6406
g3
sVstars
p6407
(lp6408
sVyear
p6409
g3
sVgenre
p6410
(lp6411
sVtrailer
p6412
(lp6413
sVmetadata
p6414
(dp6415
Vasp_retio
p6416
g3
sVsound_mix
p6417
(lp6418
sVgross
p6419
g3
sVcountries
p6420
(lp6421
sVbudget
p6422
g3
sVlanguages
p6423
(lp6424
sVfilming_locations
p6425
(lp6426
sValso_known_as
p6427
(lp6428
ssa(dp6429
Vrating
p6430
g3
sVdescription
p6431
g3
sVtitle
p6432
g3
sVurl
p6433
(dp6434
Vurl
p6435
Vhttp://www.imdb.com/title/tt9268
p6436
ssVposter
p6437
(dp6438
Vlarge
p6439
V_V1_.jpg
p6440
sVthumb
p6441
g3
ssVrelease_date
p6442
g3
sVcontent_rating
p6443
g3
sVoriginal_title
p6444
g3
sVwriters
p6445
(lp6446
sVimdb_id
p6447
g3
sVdirector
p6448
g3
sVcast
p6449
(lp6450
sVlength
p6451
g3
sVrating_count
p6452
g3
sVstoryline
p6453
g3
sVstars
p6454
(lp6455
sVyear
p6456
g3
sVgenre
p6457
(lp6458
sVtrailer
p6459
(lp6460
sVmetadata
p6461
(dp6462
Vasp_retio
p6463
g3
sVsound_mix
p6464
(lp6465
sVgross
p6466
g3
sVcountries
p6467
(lp6468
sVbudget
p6469
g3
sVlanguages
p6470
(lp6471
sVfilming_locations
p6472
(lp6473
sValso_known_as
p6474
(lp6475
ssa(dp6476
Vrating
p6477
g3
sVdescription
p6478
g3
sVtitle
p6479
g3
sVurl
p6480
(dp6481
Vurl
p6482
Vhttp://www.imdb.com/title/tt9269
p6483
ssVposter
p6484
(dp6485
Vlarge
p6486
V_V1_.jpg
p6487
sVthumb
p6488
g3
ssVrelease_date
p6489
g3
sVcontent_rating
p6490
g3
sVoriginal_title
p6491
g3
sVwriters
p6492
(lp6493
sVimdb_id
p6494
g3
sVdirector
p6495
g3
sVcast
p6496
(lp6497
sVlength
p6498
g3
sVrating_count
p6499
g3
sVstoryline
p6500
g3
sVstars
p6501
(lp6502
sVyear
p6503
g3
sVgenre
p6504
(lp6505
sVtrailer
p6506
(lp6507
sVmetadata
p6508
(dp6509
Vasp_retio
p6510
g3
sVsound_mix
p6511
(lp6512
sVgross
p6513
g3
sVcountries
p6514
(lp6515
sVbudget
p6516
g3
sVlanguages
p6517
(lp6518
sVfilming_locations
p6519
(lp6520
sValso_known_as
p6521
(lp6522
ssa(dp6523
Vrating
p6524
g3
sVdescription
p6525
g3
sVtitle
p6526
VKultur
p6527
sVurl
p6528
(dp6529
Vurl
p6530
Vhttp://www.imdb.com/title/tt9270
p6531
ssVposter
p6532
(dp6533
Vlarge
p6534
Vhttp://ia.media-imdb.com/images/G/01/imdb/images/logos/imdb_fb_logo-1730868325._CB514892123_.png_V1_.jpg
p6535
sVthumb
p6536
g3
ssVrelease_date
p6537
V1918-09-22
p6538
sVcontent_rating
p6539
g3
sVoriginal_title
p6540
g3
sVwriters
p6541
(lp6542
VJ. Grubb Alexander
p6543
aVFred Myton
p6544
asVimdb_id
p6545
Vtt0009270
p6546
sVdirector
p6547
VEdward LeSaint
p6548
sVcast
p6549
(lp6550
(dp6551
Vlink
p6552
Vhttp://www.imdb.com/name/nm0110755/?ref_=tt_cl_t1
p6553
sVimage
p6554
Vhttps://images-na.ssl-images-amazon.com/images/M/MV5BNTk0MTE4N2ItMjE1Ny00Mzg1LWFjY2UtMjk4NDJhZDA4N2ExXkEyXkFqcGdeQXVyMDUyOTUyNQ@@._UY317_CR16,0,214,317_AL_.jpg
p6555
sVcharacter
p6556
VCountess Griselda von Arenburg
p6557
sVname
p6558
VGladys Brockwell
p6559
sa(dp6560
Vlink
p6561
Vhttp://www.imdb.com/name/nm0940883/?ref_=tt_cl_t2
p6562
sVimage
p6563
g3
sVcharacter
p6564
VEliska
p6565
sVname
p6566
VGeorgia Woodthorpe
p6567
sa(dp6568
Vlink
p6569
Vhttp://www.imdb.com/name/nm0779914/?ref_=tt_cl_t3
p6570
sVimage
p6571
Vhttps://images-na.ssl-images-amazon.com/images/M/MV5BMmYzZjc3MjEtZDQ0ZS00YzY3LTlmYjAtMTFkNGM1M2NkNjkyL2ltYWdlXkEyXkFqcGdeQXVyMDUyOTUyNQ@@._V1_UY44_CR16,0,32,44_AL_.jpg
p6572
sVcharacter
p6573
VRen&#233; de Bornay
p6574
sVname
p6575
VWilliam Scott
p6576
sa(dp6577
Vlink
p6578
Vhttp://www.imdb.com/name/nm0521919/?ref_=tt_cl_t4
p6579
sVimage
p6580
Vhttps://images-na.ssl-images-amazon.com/images/M/MV5BMjBhN2Q3ZDgtYWVkZS00YTkxLTg0ZWQtNWI2OGYwN2RmMGRjXkEyXkFqcGdeQXVyMzI5NDcxNzI@._V1_UY44_CR1,0,32,44_AL_.jpg
p6581
sVcharacter
p6582
VBaron von Zeller
p6583
sVname
p6584
VWillard Louis
p6585
sa(dp6586
Vlink
p6587
Vhttp://www.imdb.com/name/nm0165134/?ref_=tt_cl_t5
p6588
sVimage
p6589
Vhttps://images-na.ssl-images-amazon.com/images/M/MV5BYmFmNTU3YmEtZDE0ZC00Yjc2LWJlMjktZGMzZGJhZmNkMDM1XkEyXkFqcGdeQXVyMzI5NDcxNzI@._V1_UY44_CR0,0,32,44_AL_.jpg
p6590
sVcharacter
p6591
VArchduke Franz Ferdinand
p6592
sVname
p6593
VCharles Clary
p6594
sa(dp6595
Vlink
p6596
Vhttp://www.imdb.com/name/nm0207637/?ref_=tt_cl_t6
p6597
sVimage
p6598
Vhttps://images-na.ssl-images-amazon.com/images/M/MV5BYTkyNGQxYzEtZTE2ZS00MTNiLTk2MTMtZjI2ZTUwYzk4ODliXkEyXkFqcGdeQXVyMzI5NDcxNzI@._V1_UY44_CR2,0,32,44_AL_.jpg
p6599
sVcharacter
p6600
VDanilo       (as Nigel De Brullier)
p6601
sVname
p6602
VNigel De Brulier
p6603
sa(dp6604
Vlink
p6605
Vhttp://www.imdb.com/name/nm0123106/?ref_=tt_cl_t7
p6606
sVimage
p6607
g3
sVcharacter
p6608
VThe Kaiser
p6609
sVname
p6610
VWilliam Burress
p6611
sa(dp6612
Vlink
p6613
Vhttp://www.imdb.com/name/nm0294019/?ref_=tt_cl_t8
p6614
sVimage
p6615
g3
sVcharacter
p6616
VEmperor Franz Josef       (as Alfred Fremont)
p6617
sVname
p6618
VAl Fremont
p6619
sasVlength
p6620
g3
sVrating_count
p6621
g3
sVstoryline
p6622
g3
sVstars
p6623
(lp6624
VGladys Brockwell
p6625
aVGeorgia Woodthorpe
p6626
aVWilliam Scott
p6627
asVyear
p6628
V1918
p6629
sVgenre
p6630
(lp6631
VDrama
p6632
aVWar
p6633
asVtrailer
p6634
(lp6635
sVmetadata
p6636
(dp6637
Vasp_retio
p6638
V1.33 : 1
p6639
sVsound_mix
p6640
(lp6641
VSilent
p6642
asVgross
p6643
g3
sVcountries
p6644
(lp6645
VUSA
p6646
asVbudget
p6647
g3
sVlanguages
p6648
(lp6649
sVfilming_locations
p6650
(lp6651
sValso_known_as
p6652
(lp6653
ssa(dp6654
Vrating
p6655
g3
sVdescription
p6656
g3
sVtitle
p6657
g3
sVurl
p6658
(dp6659
Vurl
p6660
Vhttp://www.imdb.com/title/tt9271
p6661
ssVposter
p6662
(dp6663
Vlarge
p6664
V_V1_.jpg
p6665
sVthumb
p6666
g3
ssVrelease_date
p6667
g3
sVcontent_rating
p6668
g3
sVoriginal_title
p6669
g3
sVwriters
p6670
(lp6671
sVimdb_id
p6672
g3
sVdirector
p6673
g3
sVcast
p6674
(lp6675
sVlength
p6676
g3
sVrating_count
p6677
g3
sVstoryline
p6678
g3
sVstars
p6679
(lp6680
sVyear
p6681
g3
sVgenre
p6682
(lp6683
sVtrailer
p6684
(lp6685
sVmetadata
p6686
(dp6687
Vasp_retio
p6688
g3
sVsound_mix
p6689
(lp6690
sVgross
p6691
g3
sVcountries
p6692
(lp6693
sVbudget
p6694
g3
sVlanguages
p6695
(lp6696
sVfilming_locations
p6697
(lp6698
sValso_known_as
p6699
(lp6700
ssa(dp6701
Vrating
p6702
g3
sVdescription
p6703
g3
sVtitle
p6704
g3
sVurl
p6705
(dp6706
Vurl
p6707
Vhttp://www.imdb.com/title/tt9272
p6708
ssVposter
p6709
(dp6710
Vlarge
p6711
V_V1_.jpg
p6712
sVthumb
p6713
g3
ssVrelease_date
p6714
g3
sVcontent_rating
p6715
g3
sVoriginal_title
p6716
g3
sVwriters
p6717
(lp6718
sVimdb_id
p6719
g3
sVdirector
p6720
g3
sVcast
p6721
(lp6722
sVlength
p6723
g3
sVrating_count
p6724
g3
sVstoryline
p6725
g3
sVstars
p6726
(lp6727
sVyear
p6728
g3
sVgenre
p6729
(lp6730
sVtrailer
p6731
(lp6732
sVmetadata
p6733
(dp6734
Vasp_retio
p6735
g3
sVsound_mix
p6736
(lp6737
sVgross
p6738
g3
sVcountries
p6739
(lp6740
sVbudget
p6741
g3
sVlanguages
p6742
(lp6743
sVfilming_locations
p6744
(lp6745
sValso_known_as
p6746
(lp6747
ssa(dp6748
Vrating
p6749
g3
sVdescription
p6750
g3
sVtitle
p6751
g3
sVurl
p6752
(dp6753
Vurl
p6754
Vhttp://www.imdb.com/title/tt9273
p6755
ssVposter
p6756
(dp6757
Vlarge
p6758
V_V1_.jpg
p6759
sVthumb
p6760
g3
ssVrelease_date
p6761
g3
sVcontent_rating
p6762
g3
sVoriginal_title
p6763
g3
sVwriters
p6764
(lp6765
sVimdb_id
p6766
g3
sVdirector
p6767
g3
sVcast
p6768
(lp6769
sVlength
p6770
g3
sVrating_count
p6771
g3
sVstoryline
p6772
g3
sVstars
p6773
(lp6774
sVyear
p6775
g3
sVgenre
p6776
(lp6777
sVtrailer
p6778
(lp6779
sVmetadata
p6780
(dp6781
Vasp_retio
p6782
g3
sVsound_mix
p6783
(lp6784
sVgross
p6785
g3
sVcountries
p6786
(lp6787
sVbudget
p6788
g3
sVlanguages
p6789
(lp6790
sVfilming_locations
p6791
(lp6792
sValso_known_as
p6793
(lp6794
ssa(dp6795
Vrating
p6796
g3
sVdescription
p6797
g3
sVtitle
p6798
g3
sVurl
p6799
(dp6800
Vurl
p6801
Vhttp://www.imdb.com/title/tt9274
p6802
ssVposter
p6803
(dp6804
Vlarge
p6805
V_V1_.jpg
p6806
sVthumb
p6807
g3
ssVrelease_date
p6808
g3
sVcontent_rating
p6809
g3
sVoriginal_title
p6810
g3
sVwriters
p6811
(lp6812
sVimdb_id
p6813
g3
sVdirector
p6814
g3
sVcast
p6815
(lp6816
sVlength
p6817
g3
sVrating_count
p6818
g3
sVstoryline
p6819
g3
sVstars
p6820
(lp6821
sVyear
p6822
g3
sVgenre
p6823
(lp6824
sVtrailer
p6825
(lp6826
sVmetadata
p6827
(dp6828
Vasp_retio
p6829
g3
sVsound_mix
p6830
(lp6831
sVgross
p6832
g3
sVcountries
p6833
(lp6834
sVbudget
p6835
g3
sVlanguages
p6836
(lp6837
sVfilming_locations
p6838
(lp6839
sValso_known_as
p6840
(lp6841
ssa(dp6842
Vrating
p6843
g3
sVdescription
p6844
g3
sVtitle
p6845
g3
sVurl
p6846
(dp6847
Vurl
p6848
Vhttp://www.imdb.com/title/tt9275
p6849
ssVposter
p6850
(dp6851
Vlarge
p6852
V_V1_.jpg
p6853
sVthumb
p6854
g3
ssVrelease_date
p6855
g3
sVcontent_rating
p6856
g3
sVoriginal_title
p6857
g3
sVwriters
p6858
(lp6859
sVimdb_id
p6860
g3
sVdirector
p6861
g3
sVcast
p6862
(lp6863
sVlength
p6864
g3
sVrating_count
p6865
g3
sVstoryline
p6866
g3
sVstars
p6867
(lp6868
sVyear
p6869
g3
sVgenre
p6870
(lp6871
sVtrailer
p6872
(lp6873
sVmetadata
p6874
(dp6875
Vasp_retio
p6876
g3
sVsound_mix
p6877
(lp6878
sVgross
p6879
g3
sVcountries
p6880
(lp6881
sVbudget
p6882
g3
sVlanguages
p6883
(lp6884
sVfilming_locations
p6885
(lp6886
sValso_known_as
p6887
(lp6888
ssa(dp6889
Vrating
p6890
g3
sVdescription
p6891
g3
sVtitle
p6892
g3
sVurl
p6893
(dp6894
Vurl
p6895
Vhttp://www.imdb.com/title/tt9276
p6896
ssVposter
p6897
(dp6898
Vlarge
p6899
V_V1_.jpg
p6900
sVthumb
p6901
g3
ssVrelease_date
p6902
g3
sVcontent_rating
p6903
g3
sVoriginal_title
p6904
g3
sVwriters
p6905
(lp6906
sVimdb_id
p6907
g3
sVdirector
p6908
g3
sVcast
p6909
(lp6910
sVlength
p6911
g3
sVrating_count
p6912
g3
sVstoryline
p6913
g3
sVstars
p6914
(lp6915
sVyear
p6916
g3
sVgenre
p6917
(lp6918
sVtrailer
p6919
(lp6920
sVmetadata
p6921
(dp6922
Vasp_retio
p6923
g3
sVsound_mix
p6924
(lp6925
sVgross
p6926
g3
sVcountries
p6927
(lp6928
sVbudget
p6929
g3
sVlanguages
p6930
(lp6931
sVfilming_locations
p6932
(lp6933
sValso_known_as
p6934
(lp6935
ssa(dp6936
Vrating
p6937
g3
sVdescription
p6938
g3
sVtitle
p6939
g3
sVurl
p6940
(dp6941
Vurl
p6942
Vhttp://www.imdb.com/title/tt9277
p6943
ssVposter
p6944
(dp6945
Vlarge
p6946
V_V1_.jpg
p6947
sVthumb
p6948
g3
ssVrelease_date
p6949
g3
sVcontent_rating
p6950
g3
sVoriginal_title
p6951
g3
sVwriters
p6952
(lp6953
sVimdb_id
p6954
g3
sVdirector
p6955
g3
sVcast
p6956
(lp6957
sVlength
p6958
g3
sVrating_count
p6959
g3
sVstoryline
p6960
g3
sVstars
p6961
(lp6962
sVyear
p6963
g3
sVgenre
p6964
(lp6965
sVtrailer
p6966
(lp6967
sVmetadata
p6968
(dp6969
Vasp_retio
p6970
g3
sVsound_mix
p6971
(lp6972
sVgross
p6973
g3
sVcountries
p6974
(lp6975
sVbudget
p6976
g3
sVlanguages
p6977
(lp6978
sVfilming_locations
p6979
(lp6980
sValso_known_as
p6981
(lp6982
ssa(dp6983
Vrating
p6984
g3
sVdescription
p6985
g3
sVtitle
p6986
g3
sVurl
p6987
(dp6988
Vurl
p6989
Vhttp://www.imdb.com/title/tt9278
p6990
ssVposter
p6991
(dp6992
Vlarge
p6993
V_V1_.jpg
p6994
sVthumb
p6995
g3
ssVrelease_date
p6996
g3
sVcontent_rating
p6997
g3
sVoriginal_title
p6998
g3
sVwriters
p6999
(lp7000
sVimdb_id
p7001
g3
sVdirector
p7002
g3
sVcast
p7003
(lp7004
sVlength
p7005
g3
sVrating_count
p7006
g3
sVstoryline
p7007
g3
sVstars
p7008
(lp7009
sVyear
p7010
g3
sVgenre
p7011
(lp7012
sVtrailer
p7013
(lp7014
sVmetadata
p7015
(dp7016
Vasp_retio
p7017
g3
sVsound_mix
p7018
(lp7019
sVgross
p7020
g3
sVcountries
p7021
(lp7022
sVbudget
p7023
g3
sVlanguages
p7024
(lp7025
sVfilming_locations
p7026
(lp7027
sValso_known_as
p7028
(lp7029
ssa(dp7030
Vrating
p7031
g3
sVdescription
p7032
g3
sVtitle
p7033
g3
sVurl
p7034
(dp7035
Vurl
p7036
Vhttp://www.imdb.com/title/tt9279
p7037
ssVposter
p7038
(dp7039
Vlarge
p7040
V_V1_.jpg
p7041
sVthumb
p7042
g3
ssVrelease_date
p7043
g3
sVcontent_rating
p7044
g3
sVoriginal_title
p7045
g3
sVwriters
p7046
(lp7047
sVimdb_id
p7048
g3
sVdirector
p7049
g3
sVcast
p7050
(lp7051
sVlength
p7052
g3
sVrating_count
p7053
g3
sVstoryline
p7054
g3
sVstars
p7055
(lp7056
sVyear
p7057
g3
sVgenre
p7058
(lp7059
sVtrailer
p7060
(lp7061
sVmetadata
p7062
(dp7063
Vasp_retio
p7064
g3
sVsound_mix
p7065
(lp7066
sVgross
p7067
g3
sVcountries
p7068
(lp7069
sVbudget
p7070
g3
sVlanguages
p7071
(lp7072
sVfilming_locations
p7073
(lp7074
sValso_known_as
p7075
(lp7076
ssa(dp7077
Vrating
p7078
g3
sVdescription
p7079
g3
sVtitle
p7080
g3
sVurl
p7081
(dp7082
Vurl
p7083
Vhttp://www.imdb.com/title/tt9280
p7084
ssVposter
p7085
(dp7086
Vlarge
p7087
V_V1_.jpg
p7088
sVthumb
p7089
g3
ssVrelease_date
p7090
g3
sVcontent_rating
p7091
g3
sVoriginal_title
p7092
g3
sVwriters
p7093
(lp7094
sVimdb_id
p7095
g3
sVdirector
p7096
g3
sVcast
p7097
(lp7098
sVlength
p7099
g3
sVrating_count
p7100
g3
sVstoryline
p7101
g3
sVstars
p7102
(lp7103
sVyear
p7104
g3
sVgenre
p7105
(lp7106
sVtrailer
p7107
(lp7108
sVmetadata
p7109
(dp7110
Vasp_retio
p7111
g3
sVsound_mix
p7112
(lp7113
sVgross
p7114
g3
sVcountries
p7115
(lp7116
sVbudget
p7117
g3
sVlanguages
p7118
(lp7119
sVfilming_locations
p7120
(lp7121
sValso_known_as
p7122
(lp7123
ssa(dp7124
Vrating
p7125
g3
sVdescription
p7126
g3
sVtitle
p7127
g3
sVurl
p7128
(dp7129
Vurl
p7130
Vhttp://www.imdb.com/title/tt9281
p7131
ssVposter
p7132
(dp7133
Vlarge
p7134
V_V1_.jpg
p7135
sVthumb
p7136
g3
ssVrelease_date
p7137
g3
sVcontent_rating
p7138
g3
sVoriginal_title
p7139
g3
sVwriters
p7140
(lp7141
sVimdb_id
p7142
g3
sVdirector
p7143
g3
sVcast
p7144
(lp7145
sVlength
p7146
g3
sVrating_count
p7147
g3
sVstoryline
p7148
g3
sVstars
p7149
(lp7150
sVyear
p7151
g3
sVgenre
p7152
(lp7153
sVtrailer
p7154
(lp7155
sVmetadata
p7156
(dp7157
Vasp_retio
p7158
g3
sVsound_mix
p7159
(lp7160
sVgross
p7161
g3
sVcountries
p7162
(lp7163
sVbudget
p7164
g3
sVlanguages
p7165
(lp7166
sVfilming_locations
p7167
(lp7168
sValso_known_as
p7169
(lp7170
ssa(dp7171
Vrating
p7172
g3
sVdescription
p7173
g3
sVtitle
p7174
g3
sVurl
p7175
(dp7176
Vurl
p7177
Vhttp://www.imdb.com/title/tt9282
p7178
ssVposter
p7179
(dp7180
Vlarge
p7181
V_V1_.jpg
p7182
sVthumb
p7183
g3
ssVrelease_date
p7184
g3
sVcontent_rating
p7185
g3
sVoriginal_title
p7186
g3
sVwriters
p7187
(lp7188
sVimdb_id
p7189
g3
sVdirector
p7190
g3
sVcast
p7191
(lp7192
sVlength
p7193
g3
sVrating_count
p7194
g3
sVstoryline
p7195
g3
sVstars
p7196
(lp7197
sVyear
p7198
g3
sVgenre
p7199
(lp7200
sVtrailer
p7201
(lp7202
sVmetadata
p7203
(dp7204
Vasp_retio
p7205
g3
sVsound_mix
p7206
(lp7207
sVgross
p7208
g3
sVcountries
p7209
(lp7210
sVbudget
p7211
g3
sVlanguages
p7212
(lp7213
sVfilming_locations
p7214
(lp7215
sValso_known_as
p7216
(lp7217
ssa(dp7218
Vrating
p7219
g3
sVdescription
p7220
g3
sVtitle
p7221
g3
sVurl
p7222
(dp7223
Vurl
p7224
Vhttp://www.imdb.com/title/tt9283
p7225
ssVposter
p7226
(dp7227
Vlarge
p7228
V_V1_.jpg
p7229
sVthumb
p7230
g3
ssVrelease_date
p7231
g3
sVcontent_rating
p7232
g3
sVoriginal_title
p7233
g3
sVwriters
p7234
(lp7235
sVimdb_id
p7236
g3
sVdirector
p7237
g3
sVcast
p7238
(lp7239
sVlength
p7240
g3
sVrating_count
p7241
g3
sVstoryline
p7242
g3
sVstars
p7243
(lp7244
sVyear
p7245
g3
sVgenre
p7246
(lp7247
sVtrailer
p7248
(lp7249
sVmetadata
p7250
(dp7251
Vasp_retio
p7252
g3
sVsound_mix
p7253
(lp7254
sVgross
p7255
g3
sVcountries
p7256
(lp7257
sVbudget
p7258
g3
sVlanguages
p7259
(lp7260
sVfilming_locations
p7261
(lp7262
sValso_known_as
p7263
(lp7264
ssa(dp7265
Vrating
p7266
g3
sVdescription
p7267
g3
sVtitle
p7268
g3
sVurl
p7269
(dp7270
Vurl
p7271
Vhttp://www.imdb.com/title/tt9284
p7272
ssVposter
p7273
(dp7274
Vlarge
p7275
V_V1_.jpg
p7276
sVthumb
p7277
g3
ssVrelease_date
p7278
g3
sVcontent_rating
p7279
g3
sVoriginal_title
p7280
g3
sVwriters
p7281
(lp7282
sVimdb_id
p7283
g3
sVdirector
p7284
g3
sVcast
p7285
(lp7286
sVlength
p7287
g3
sVrating_count
p7288
g3
sVstoryline
p7289
g3
sVstars
p7290
(lp7291
sVyear
p7292
g3
sVgenre
p7293
(lp7294
sVtrailer
p7295
(lp7296
sVmetadata
p7297
(dp7298
Vasp_retio
p7299
g3
sVsound_mix
p7300
(lp7301
sVgross
p7302
g3
sVcountries
p7303
(lp7304
sVbudget
p7305
g3
sVlanguages
p7306
(lp7307
sVfilming_locations
p7308
(lp7309
sValso_known_as
p7310
(lp7311
ssa(dp7312
Vrating
p7313
g3
sVdescription
p7314
g3
sVtitle
p7315
g3
sVurl
p7316
(dp7317
Vurl
p7318
Vhttp://www.imdb.com/title/tt9285
p7319
ssVposter
p7320
(dp7321
Vlarge
p7322
V_V1_.jpg
p7323
sVthumb
p7324
g3
ssVrelease_date
p7325
g3
sVcontent_rating
p7326
g3
sVoriginal_title
p7327
g3
sVwriters
p7328
(lp7329
sVimdb_id
p7330
g3
sVdirector
p7331
g3
sVcast
p7332
(lp7333
sVlength
p7334
g3
sVrating_count
p7335
g3
sVstoryline
p7336
g3
sVstars
p7337
(lp7338
sVyear
p7339
g3
sVgenre
p7340
(lp7341
sVtrailer
p7342
(lp7343
sVmetadata
p7344
(dp7345
Vasp_retio
p7346
g3
sVsound_mix
p7347
(lp7348
sVgross
p7349
g3
sVcountries
p7350
(lp7351
sVbudget
p7352
g3
sVlanguages
p7353
(lp7354
sVfilming_locations
p7355
(lp7356
sValso_known_as
p7357
(lp7358
ssa(dp7359
Vrating
p7360
g3
sVdescription
p7361
g3
sVtitle
p7362
g3
sVurl
p7363
(dp7364
Vurl
p7365
Vhttp://www.imdb.com/title/tt9286
p7366
ssVposter
p7367
(dp7368
Vlarge
p7369
V_V1_.jpg
p7370
sVthumb
p7371
g3
ssVrelease_date
p7372
g3
sVcontent_rating
p7373
g3
sVoriginal_title
p7374
g3
sVwriters
p7375
(lp7376
sVimdb_id
p7377
g3
sVdirector
p7378
g3
sVcast
p7379
(lp7380
sVlength
p7381
g3
sVrating_count
p7382
g3
sVstoryline
p7383
g3
sVstars
p7384
(lp7385
sVyear
p7386
g3
sVgenre
p7387
(lp7388
sVtrailer
p7389
(lp7390
sVmetadata
p7391
(dp7392
Vasp_retio
p7393
g3
sVsound_mix
p7394
(lp7395
sVgross
p7396
g3
sVcountries
p7397
(lp7398
sVbudget
p7399
g3
sVlanguages
p7400
(lp7401
sVfilming_locations
p7402
(lp7403
sValso_known_as
p7404
(lp7405
ssa(dp7406
Vrating
p7407
g3
sVdescription
p7408
g3
sVtitle
p7409
g3
sVurl
p7410
(dp7411
Vurl
p7412
Vhttp://www.imdb.com/title/tt9287
p7413
ssVposter
p7414
(dp7415
Vlarge
p7416
V_V1_.jpg
p7417
sVthumb
p7418
g3
ssVrelease_date
p7419
g3
sVcontent_rating
p7420
g3
sVoriginal_title
p7421
g3
sVwriters
p7422
(lp7423
sVimdb_id
p7424
g3
sVdirector
p7425
g3
sVcast
p7426
(lp7427
sVlength
p7428
g3
sVrating_count
p7429
g3
sVstoryline
p7430
g3
sVstars
p7431
(lp7432
sVyear
p7433
g3
sVgenre
p7434
(lp7435
sVtrailer
p7436
(lp7437
sVmetadata
p7438
(dp7439
Vasp_retio
p7440
g3
sVsound_mix
p7441
(lp7442
sVgross
p7443
g3
sVcountries
p7444
(lp7445
sVbudget
p7446
g3
sVlanguages
p7447
(lp7448
sVfilming_locations
p7449
(lp7450
sValso_known_as
p7451
(lp7452
ssa(dp7453
Vrating
p7454
g3
sVdescription
p7455
g3
sVtitle
p7456
g3
sVurl
p7457
(dp7458
Vurl
p7459
Vhttp://www.imdb.com/title/tt9288
p7460
ssVposter
p7461
(dp7462
Vlarge
p7463
V_V1_.jpg
p7464
sVthumb
p7465
g3
ssVrelease_date
p7466
g3
sVcontent_rating
p7467
g3
sVoriginal_title
p7468
g3
sVwriters
p7469
(lp7470
sVimdb_id
p7471
g3
sVdirector
p7472
g3
sVcast
p7473
(lp7474
sVlength
p7475
g3
sVrating_count
p7476
g3
sVstoryline
p7477
g3
sVstars
p7478
(lp7479
sVyear
p7480
g3
sVgenre
p7481
(lp7482
sVtrailer
p7483
(lp7484
sVmetadata
p7485
(dp7486
Vasp_retio
p7487
g3
sVsound_mix
p7488
(lp7489
sVgross
p7490
g3
sVcountries
p7491
(lp7492
sVbudget
p7493
g3
sVlanguages
p7494
(lp7495
sVfilming_locations
p7496
(lp7497
sValso_known_as
p7498
(lp7499
ssa(dp7500
Vrating
p7501
g3
sVdescription
p7502
g3
sVtitle
p7503
g3
sVurl
p7504
(dp7505
Vurl
p7506
Vhttp://www.imdb.com/title/tt9289
p7507
ssVposter
p7508
(dp7509
Vlarge
p7510
V_V1_.jpg
p7511
sVthumb
p7512
g3
ssVrelease_date
p7513
g3
sVcontent_rating
p7514
g3
sVoriginal_title
p7515
g3
sVwriters
p7516
(lp7517
sVimdb_id
p7518
g3
sVdirector
p7519
g3
sVcast
p7520
(lp7521
sVlength
p7522
g3
sVrating_count
p7523
g3
sVstoryline
p7524
g3
sVstars
p7525
(lp7526
sVyear
p7527
g3
sVgenre
p7528
(lp7529
sVtrailer
p7530
(lp7531
sVmetadata
p7532
(dp7533
Vasp_retio
p7534
g3
sVsound_mix
p7535
(lp7536
sVgross
p7537
g3
sVcountries
p7538
(lp7539
sVbudget
p7540
g3
sVlanguages
p7541
(lp7542
sVfilming_locations
p7543
(lp7544
sValso_known_as
p7545
(lp7546
ssa(dp7547
Vrating
p7548
g3
sVdescription
p7549
g3
sVtitle
p7550
g3
sVurl
p7551
(dp7552
Vurl
p7553
Vhttp://www.imdb.com/title/tt9290
p7554
ssVposter
p7555
(dp7556
Vlarge
p7557
V_V1_.jpg
p7558
sVthumb
p7559
g3
ssVrelease_date
p7560
g3
sVcontent_rating
p7561
g3
sVoriginal_title
p7562
g3
sVwriters
p7563
(lp7564
sVimdb_id
p7565
g3
sVdirector
p7566
g3
sVcast
p7567
(lp7568
sVlength
p7569
g3
sVrating_count
p7570
g3
sVstoryline
p7571
g3
sVstars
p7572
(lp7573
sVyear
p7574
g3
sVgenre
p7575
(lp7576
sVtrailer
p7577
(lp7578
sVmetadata
p7579
(dp7580
Vasp_retio
p7581
g3
sVsound_mix
p7582
(lp7583
sVgross
p7584
g3
sVcountries
p7585
(lp7586
sVbudget
p7587
g3
sVlanguages
p7588
(lp7589
sVfilming_locations
p7590
(lp7591
sValso_known_as
p7592
(lp7593
ssa(dp7594
Vrating
p7595
g3
sVdescription
p7596
g3
sVtitle
p7597
g3
sVurl
p7598
(dp7599
Vurl
p7600
Vhttp://www.imdb.com/title/tt9291
p7601
ssVposter
p7602
(dp7603
Vlarge
p7604
V_V1_.jpg
p7605
sVthumb
p7606
g3
ssVrelease_date
p7607
g3
sVcontent_rating
p7608
g3
sVoriginal_title
p7609
g3
sVwriters
p7610
(lp7611
sVimdb_id
p7612
g3
sVdirector
p7613
g3
sVcast
p7614
(lp7615
sVlength
p7616
g3
sVrating_count
p7617
g3
sVstoryline
p7618
g3
sVstars
p7619
(lp7620
sVyear
p7621
g3
sVgenre
p7622
(lp7623
sVtrailer
p7624
(lp7625
sVmetadata
p7626
(dp7627
Vasp_retio
p7628
g3
sVsound_mix
p7629
(lp7630
sVgross
p7631
g3
sVcountries
p7632
(lp7633
sVbudget
p7634
g3
sVlanguages
p7635
(lp7636
sVfilming_locations
p7637
(lp7638
sValso_known_as
p7639
(lp7640
ssa(dp7641
Vrating
p7642
g3
sVdescription
p7643
g3
sVtitle
p7644
g3
sVurl
p7645
(dp7646
Vurl
p7647
Vhttp://www.imdb.com/title/tt9292
p7648
ssVposter
p7649
(dp7650
Vlarge
p7651
V_V1_.jpg
p7652
sVthumb
p7653
g3
ssVrelease_date
p7654
g3
sVcontent_rating
p7655
g3
sVoriginal_title
p7656
g3
sVwriters
p7657
(lp7658
sVimdb_id
p7659
g3
sVdirector
p7660
g3
sVcast
p7661
(lp7662
sVlength
p7663
g3
sVrating_count
p7664
g3
sVstoryline
p7665
g3
sVstars
p7666
(lp7667
sVyear
p7668
g3
sVgenre
p7669
(lp7670
sVtrailer
p7671
(lp7672
sVmetadata
p7673
(dp7674
Vasp_retio
p7675
g3
sVsound_mix
p7676
(lp7677
sVgross
p7678
g3
sVcountries
p7679
(lp7680
sVbudget
p7681
g3
sVlanguages
p7682
(lp7683
sVfilming_locations
p7684
(lp7685
sValso_known_as
p7686
(lp7687
ssa(dp7688
Vrating
p7689
g3
sVdescription
p7690
g3
sVtitle
p7691
g3
sVurl
p7692
(dp7693
Vurl
p7694
Vhttp://www.imdb.com/title/tt9293
p7695
ssVposter
p7696
(dp7697
Vlarge
p7698
V_V1_.jpg
p7699
sVthumb
p7700
g3
ssVrelease_date
p7701
g3
sVcontent_rating
p7702
g3
sVoriginal_title
p7703
g3
sVwriters
p7704
(lp7705
sVimdb_id
p7706
g3
sVdirector
p7707
g3
sVcast
p7708
(lp7709
sVlength
p7710
g3
sVrating_count
p7711
g3
sVstoryline
p7712
g3
sVstars
p7713
(lp7714
sVyear
p7715
g3
sVgenre
p7716
(lp7717
sVtrailer
p7718
(lp7719
sVmetadata
p7720
(dp7721
Vasp_retio
p7722
g3
sVsound_mix
p7723
(lp7724
sVgross
p7725
g3
sVcountries
p7726
(lp7727
sVbudget
p7728
g3
sVlanguages
p7729
(lp7730
sVfilming_locations
p7731
(lp7732
sValso_known_as
p7733
(lp7734
ssa(dp7735
Vrating
p7736
g3
sVdescription
p7737
g3
sVtitle
p7738
g3
sVurl
p7739
(dp7740
Vurl
p7741
Vhttp://www.imdb.com/title/tt9294
p7742
ssVposter
p7743
(dp7744
Vlarge
p7745
V_V1_.jpg
p7746
sVthumb
p7747
g3
ssVrelease_date
p7748
g3
sVcontent_rating
p7749
g3
sVoriginal_title
p7750
g3
sVwriters
p7751
(lp7752
sVimdb_id
p7753
g3
sVdirector
p7754
g3
sVcast
p7755
(lp7756
sVlength
p7757
g3
sVrating_count
p7758
g3
sVstoryline
p7759
g3
sVstars
p7760
(lp7761
sVyear
p7762
g3
sVgenre
p7763
(lp7764
sVtrailer
p7765
(lp7766
sVmetadata
p7767
(dp7768
Vasp_retio
p7769
g3
sVsound_mix
p7770
(lp7771
sVgross
p7772
g3
sVcountries
p7773
(lp7774
sVbudget
p7775
g3
sVlanguages
p7776
(lp7777
sVfilming_locations
p7778
(lp7779
sValso_known_as
p7780
(lp7781
ssa(dp7782
Vrating
p7783
g3
sVdescription
p7784
g3
sVtitle
p7785
g3
sVurl
p7786
(dp7787
Vurl
p7788
Vhttp://www.imdb.com/title/tt9295
p7789
ssVposter
p7790
(dp7791
Vlarge
p7792
V_V1_.jpg
p7793
sVthumb
p7794
g3
ssVrelease_date
p7795
g3
sVcontent_rating
p7796
g3
sVoriginal_title
p7797
g3
sVwriters
p7798
(lp7799
sVimdb_id
p7800
g3
sVdirector
p7801
g3
sVcast
p7802
(lp7803
sVlength
p7804
g3
sVrating_count
p7805
g3
sVstoryline
p7806
g3
sVstars
p7807
(lp7808
sVyear
p7809
g3
sVgenre
p7810
(lp7811
sVtrailer
p7812
(lp7813
sVmetadata
p7814
(dp7815
Vasp_retio
p7816
g3
sVsound_mix
p7817
(lp7818
sVgross
p7819
g3
sVcountries
p7820
(lp7821
sVbudget
p7822
g3
sVlanguages
p7823
(lp7824
sVfilming_locations
p7825
(lp7826
sValso_known_as
p7827
(lp7828
ssa(dp7829
Vrating
p7830
g3
sVdescription
p7831
g3
sVtitle
p7832
g3
sVurl
p7833
(dp7834
Vurl
p7835
Vhttp://www.imdb.com/title/tt9296
p7836
ssVposter
p7837
(dp7838
Vlarge
p7839
V_V1_.jpg
p7840
sVthumb
p7841
g3
ssVrelease_date
p7842
g3
sVcontent_rating
p7843
g3
sVoriginal_title
p7844
g3
sVwriters
p7845
(lp7846
sVimdb_id
p7847
g3
sVdirector
p7848
g3
sVcast
p7849
(lp7850
sVlength
p7851
g3
sVrating_count
p7852
g3
sVstoryline
p7853
g3
sVstars
p7854
(lp7855
sVyear
p7856
g3
sVgenre
p7857
(lp7858
sVtrailer
p7859
(lp7860
sVmetadata
p7861
(dp7862
Vasp_retio
p7863
g3
sVsound_mix
p7864
(lp7865
sVgross
p7866
g3
sVcountries
p7867
(lp7868
sVbudget
p7869
g3
sVlanguages
p7870
(lp7871
sVfilming_locations
p7872
(lp7873
sValso_known_as
p7874
(lp7875
ssa(dp7876
Vrating
p7877
g3
sVdescription
p7878
g3
sVtitle
p7879
g3
sVurl
p7880
(dp7881
Vurl
p7882
Vhttp://www.imdb.com/title/tt9297
p7883
ssVposter
p7884
(dp7885
Vlarge
p7886
V_V1_.jpg
p7887
sVthumb
p7888
g3
ssVrelease_date
p7889
g3
sVcontent_rating
p7890
g3
sVoriginal_title
p7891
g3
sVwriters
p7892
(lp7893
sVimdb_id
p7894
g3
sVdirector
p7895
g3
sVcast
p7896
(lp7897
sVlength
p7898
g3
sVrating_count
p7899
g3
sVstoryline
p7900
g3
sVstars
p7901
(lp7902
sVyear
p7903
g3
sVgenre
p7904
(lp7905
sVtrailer
p7906
(lp7907
sVmetadata
p7908
(dp7909
Vasp_retio
p7910
g3
sVsound_mix
p7911
(lp7912
sVgross
p7913
g3
sVcountries
p7914
(lp7915
sVbudget
p7916
g3
sVlanguages
p7917
(lp7918
sVfilming_locations
p7919
(lp7920
sValso_known_as
p7921
(lp7922
ssa(dp7923
Vrating
p7924
g3
sVdescription
p7925
g3
sVtitle
p7926
g3
sVurl
p7927
(dp7928
Vurl
p7929
Vhttp://www.imdb.com/title/tt9298
p7930
ssVposter
p7931
(dp7932
Vlarge
p7933
V_V1_.jpg
p7934
sVthumb
p7935
g3
ssVrelease_date
p7936
g3
sVcontent_rating
p7937
g3
sVoriginal_title
p7938
g3
sVwriters
p7939
(lp7940
sVimdb_id
p7941
g3
sVdirector
p7942
g3
sVcast
p7943
(lp7944
sVlength
p7945
g3
sVrating_count
p7946
g3
sVstoryline
p7947
g3
sVstars
p7948
(lp7949
sVyear
p7950
g3
sVgenre
p7951
(lp7952
sVtrailer
p7953
(lp7954
sVmetadata
p7955
(dp7956
Vasp_retio
p7957
g3
sVsound_mix
p7958
(lp7959
sVgross
p7960
g3
sVcountries
p7961
(lp7962
sVbudget
p7963
g3
sVlanguages
p7964
(lp7965
sVfilming_locations
p7966
(lp7967
sValso_known_as
p7968
(lp7969
ssa(dp7970
Vrating
p7971
g3
sVdescription
p7972
g3
sVtitle
p7973
g3
sVurl
p7974
(dp7975
Vurl
p7976
Vhttp://www.imdb.com/title/tt9299
p7977
ssVposter
p7978
(dp7979
Vlarge
p7980
V_V1_.jpg
p7981
sVthumb
p7982
g3
ssVrelease_date
p7983
g3
sVcontent_rating
p7984
g3
sVoriginal_title
p7985
g3
sVwriters
p7986
(lp7987
sVimdb_id
p7988
g3
sVdirector
p7989
g3
sVcast
p7990
(lp7991
sVlength
p7992
g3
sVrating_count
p7993
g3
sVstoryline
p7994
g3
sVstars
p7995
(lp7996
sVyear
p7997
g3
sVgenre
p7998
(lp7999
sVtrailer
p8000
(lp8001
sVmetadata
p8002
(dp8003
Vasp_retio
p8004
g3
sVsound_mix
p8005
(lp8006
sVgross
p8007
g3
sVcountries
p8008
(lp8009
sVbudget
p8010
g3
sVlanguages
p8011
(lp8012
sVfilming_locations
p8013
(lp8014
sValso_known_as
p8015
(lp8016
ssa.