(lp0
(dp1
Vrating
p2
V
p3
sVdescription
p4
VShark Monroe is the captain of a sealing vessel in Alaskan waters. He takes on Marjorie Hilton and her brother Webster as working passengers when they are left stranded. Though a tough, ...\u000a                    See full summary
p5
sVtitle
p6
VShark Monroe
p7
sVurl
p8
(dp9
Vurl
p10
Vhttp://www.imdb.com/title/tt9600
p11
ssVposter
p12
(dp13
Vlarge
p14
Vhttp://ia.media-imdb.com/images/G/01/imdb/images/logos/imdb_fb_logo-1730868325._CB514892123_.png_V1_.jpg
p15
sVthumb
p16
g3
ssVrelease_date
p17
V1918-06-30
p18
sVcontent_rating
p19
g3
sVoriginal_title
p20
g3
sVwriters
p21
(lp22
VC. Gardner Sullivan
p23
aVC. Gardner Sullivan
p24
asVimdb_id
p25
Vtt0009600
p26
sVdirector
p27
VWilliam S. Hart
p28
sVcast
p29
(lp30
(dp31
Vlink
p32
Vhttp://www.imdb.com/name/nm0366586/?ref_=tt_cl_t1
p33
sVimage
p34
Vhttps://images-na.ssl-images-amazon.com/images/M/MV5BMjE0MzczMTYzM15BMl5BanBnXkFtZTYwMTcyNzM2._V1_UY44_CR1,0,32,44_AL_.jpg
p35
sVcharacter
p36
VShark Monroe
p37
sVname
p38
VWilliam S. Hart
p39
sa(dp40
Vlink
p41
Vhttp://www.imdb.com/name/nm0531806/?ref_=tt_cl_t2
p42
sVimage
p43
Vhttps://images-na.ssl-images-amazon.com/images/M/MV5BZDYxMTkzNWUtOWI3Yy00NTE4LWFjMmMtMTBkZGU5YWIzODhlXkEyXkFqcGdeQXVyMzI5NDcxNzI@._V1_UY44_CR0,0,32,44_AL_.jpg
p44
sVcharacter
p45
VMarjorie Hilton
p46
sVname
p47
VKatherine MacDonald
p48
sa(dp49
Vlink
p50
Vhttp://www.imdb.com/name/nm0802309/?ref_=tt_cl_t3
p51
sVimage
p52
g3
sVcharacter
p53
VBig Baxter
p54
sVname
p55
VJoseph Singleton
p56
sa(dp57
Vlink
p58
Vhttp://www.imdb.com/name/nm0567405/?ref_=tt_cl_t4
p59
sVimage
p60
g3
sVcharacter
p61
VWebster Hilton
p62
sVname
p63
VGeorge A. McDaniel
p64
sa(dp65
Vlink
p66
Vhttp://www.imdb.com/name/nm0819833/?ref_=tt_cl_t5
p67
sVimage
p68
g3
sVcharacter
p69
VOnion McNab
p70
sVname
p71
VBert Sprotte
p72
sasVlength
p73
V50
p74
sVrating_count
p75
g3
sVstoryline
p76
VShark Monroe is the captain of a sealing vessel in Alaskan waters. He takes on Marjorie Hilton and her brother Webster as working passengers when they are left stranded. Though a tough, hard-bitten man, Monroe finds himself mellowing under the influence of Marjorie. He protects her from the unclean desires of the white slaver Big Baxter, and ultimately Marjorie sees the decent man behind Monroe's coarse exterior.
p77
sVstars
p78
(lp79
VWilliam S. Hart
p80
aVKatherine MacDonald
p81
aVJoseph Singleton
p82
asVyear
p83
V1918
p84
sVgenre
p85
(lp86
VAdventure
p87
aVDrama
p88
aVRomance
p89
asVtrailer
p90
(lp91
sVmetadata
p92
(dp93
Vasp_retio
p94
V1.33 : 1
p95
sVsound_mix
p96
(lp97
VSilent
p98
asVgross
p99
g3
sVcountries
p100
(lp101
VUSA
p102
asVbudget
p103
g3
sVlanguages
p104
(lp105
sVfilming_locations
p106
(lp107
VDonner Lake
p108
aVTruckee
p109
aVCalifornia
p110
aVUSA
p111
asValso_known_as
p112
(lp113
VHavs&#246;rnen
p114
assa(dp115
Vrating
p116
g3
sVdescription
p117
VLolette ( Theda Bara ), an exotic and spirited peasant girl lives In the small Spanish village of Juanguera . Although ardently courted by the native swains, and particularly a bandit ...\u000a                    See full summary
p118
sVtitle
p119
VThe She Devil
p120
sVurl
p121
(dp122
Vurl
p123
Vhttp://www.imdb.com/title/tt9601
p124
ssVposter
p125
(dp126
Vlarge
p127
Vhttps://images-na.ssl-images-amazon.com/images/M/MV5BMjE0MTA0NDQyMl5BMl5BanBnXkFtZTgwMzU0MTgxMjE@._V1_.jpg
p128
sVthumb
p129
Vhttps://images-na.ssl-images-amazon.com/images/M/MV5BMjE0MTA0NDQyMl5BMl5BanBnXkFtZTgwMzU0MTgxMjE@._V1_UX182_CR0,0,182,268_AL_.jpg
p130
ssVrelease_date
p131
V1918-11-10
p132
sVcontent_rating
p133
g3
sVoriginal_title
p134
g3
sVwriters
p135
(lp136
VJ. Gordon Edwards
p137
aVGeorge James Hopkins
p138
asVimdb_id
p139
Vtt0009601
p140
sVdirector
p141
VJ. Gordon Edwards
p142
sVcast
p143
(lp144
(dp145
Vlink
p146
Vhttp://www.imdb.com/name/nm0000847/?ref_=tt_cl_t1
p147
sVimage
p148
Vhttps://images-na.ssl-images-amazon.com/images/M/MV5BMTg3ODg4NjQyN15BMl5BanBnXkFtZTgwNTI0OTg0MzE@._UY317_CR16,0,214,317_AL_.jpg
p149
sVcharacter
p150
VLolette
p151
sVname
p152
VTheda Bara
p153
sa(dp154
Vlink
p155
Vhttp://www.imdb.com/name/nm0741182/?ref_=tt_cl_t2
p156
sVimage
p157
Vhttps://images-na.ssl-images-amazon.com/images/M/MV5BZDJhMzI2MGMtODk0ZS00ZGVkLWE1YzMtOTAxOWI3ZDg1YTk5XkEyXkFqcGdeQXVyMTk2MzI2Ng@@._V1_UY44_CR11,0,32,44_AL_.jpg
p158
sVcharacter
p159
VMaurice Taylor       (as Albert Roscoe)
p160
sVname
p161
VAlan Roscoe
p162
sa(dp163
Vlink
p164
Vhttp://www.imdb.com/name/nm8696662/?ref_=tt_cl_t3
p165
sVimage
p166
g3
sVcharacter
p167
VApollo
p168
sVname
p169
VFred Bond
p170
sa(dp171
Vlink
p172
Vhttp://www.imdb.com/name/nm0567405/?ref_=tt_cl_t4
p173
sVimage
p174
g3
sVcharacter
p175
VThe Tiger
p176
sVname
p177
VGeorge A. McDaniel
p178
sasVlength
p179
g3
sVrating_count
p180
g3
sVstoryline
p181
VLolette ( Theda Bara ), an exotic and spirited peasant girl lives In the small Spanish village of Juanguera . Although ardently courted by the native swains, and particularly a bandit called The Tiger, Lolette prefers Maurice Tabor, a French artist who has come to Juanguera to paint. Because he refuses to take her to Paris, Lolette accepts a gift of stolen jewels from The Tiger and follows Maurice to France. With Lolette as his model, Maurice paints brilliantly, and soon she becomes a Paris sensation. One evening, Lolette performs a Spanish dance on stage, and the next day, she signs contracts with a number of impresarios, accepting advance payment from all of them. Fearing her arrest, Maurice urges her to accompany him back to Spain, but The Tiger attacks their coach and imprisons them. At a feast held in her honor, however, Lolette urges The Tiger to drink, and when he is unconscious, she and Maurice escape.
p182
sVstars
p183
(lp184
VTheda Bara
p185
aVAlan Roscoe
p186
aVFred Bond
p187
asVyear
p188
V1918
p189
sVgenre
p190
(lp191
VRomance
p192
asVtrailer
p193
(lp194
sVmetadata
p195
(dp196
Vasp_retio
p197
V1.33 : 1
p198
sVsound_mix
p199
(lp200
VSilent
p201
asVgross
p202
g3
sVcountries
p203
(lp204
VUSA
p205
asVbudget
p206
g3
sVlanguages
p207
(lp208
sVfilming_locations
p209
(lp210
sValso_known_as
p211
(lp212
ssa(dp213
Vrating
p214
g3
sVdescription
p215
g3
sVtitle
p216
VShe Hired a Husband
p217
sVurl
p218
(dp219
Vurl
p220
Vhttp://www.imdb.com/title/tt9602
p221
ssVposter
p222
(dp223
Vlarge
p224
Vhttp://ia.media-imdb.com/images/G/01/imdb/images/logos/imdb_fb_logo-1730868325._CB514892123_.png_V1_.jpg
p225
sVthumb
p226
g3
ssVrelease_date
p227
V1918-12-16
p228
sVcontent_rating
p229
g3
sVoriginal_title
p230
g3
sVwriters
p231
(lp232
VRex Taylor
p233
asVimdb_id
p234
Vtt0009602
p235
sVdirector
p236
VJohn Francis Dillon
p237
sVcast
p238
(lp239
(dp240
Vlink
p241
Vhttp://www.imdb.com/name/nm0212912/?ref_=tt_cl_t1
p242
sVimage
p243
Vhttps://images-na.ssl-images-amazon.com/images/M/MV5BMjYxMzQwOTQ3OF5BMl5BanBnXkFtZTgwOTEzODY3MTE@._V1._CR109.88333129882812,113.53334045410156,866,1198_UX32_CR0,0,32,44_AL_.jpg
p244
sVcharacter
p245
VDaphne Trowbridge
p246
sVname
p247
VPriscilla Dean
p248
sa(dp249
Vlink
p250
Vhttp://www.imdb.com/name/nm0641776/?ref_=tt_cl_t2
p251
sVimage
p252
Vhttps://images-na.ssl-images-amazon.com/images/M/MV5BZmJmNjIyYzctNWI5NS00MTBmLWE2YzctZGVjMGUwN2U0YmVlL2ltYWdlL2ltYWdlXkEyXkFqcGdeQXVyMzI5NDcxNzI@._V1_UY44_CR2,0,32,44_AL_.jpg
p253
sVcharacter
p254
VTom Dunstan
p255
sVname
p256
VPat O'Malley
p257
sa(dp258
Vlink
p259
Vhttp://www.imdb.com/name/nm0804285/?ref_=tt_cl_t3
p260
sVimage
p261
g3
sVcharacter
p262
VMrs. Trowbridge
p263
sVname
p264
VMarian Skinner
p265
sa(dp266
Vlink
p267
Vhttp://www.imdb.com/name/nm0089162/?ref_=tt_cl_t4
p268
sVimage
p269
g3
sVcharacter
p270
VMr. Trowbridge
p271
sVname
p272
VFrederick Vroom
p273
sa(dp274
Vlink
p275
Vhttp://www.imdb.com/name/nm0877548/?ref_=tt_cl_t5
p276
sVimage
p277
g3
sVcharacter
p278
VColonel Dunstan
p279
sVname
p280
VF.A. Turner
p281
sa(dp282
Vlink
p283
Vhttp://www.imdb.com/name/nm0314699/?ref_=tt_cl_t6
p284
sVimage
p285
Vhttps://images-na.ssl-images-amazon.com/images/M/MV5BODU0NzI0MTQtZmFjNS00ZTJjLWI4OTMtOWRmYWY2NTllNDIxXkEyXkFqcGdeQXVyMzI5NDcxNzI@._V1_UY44_CR2,0,32,44_AL_.jpg
p286
sVcharacter
p287
VGerald Grant
p288
sVname
p289
VCharles K. Gerrard
p290
sa(dp291
Vlink
p292
Vhttp://www.imdb.com/name/nm0032221/?ref_=tt_cl_t7
p293
sVimage
p294
g3
sVcharacter
p295
VLe Grand
p296
sVname
p297
VSam Appel
p298
sa(dp299
Vlink
p300
Vhttp://www.imdb.com/name/nm0865178/?ref_=tt_cl_t8
p301
sVimage
p302
Vhttps://images-na.ssl-images-amazon.com/images/M/MV5BMWU2YTQ1Y2EtNTE2MC00ZjI0LWFmMjctZmMzMjhiYmZiYjg3XkEyXkFqcGdeQXVyMzI5NDcxNzI@._V1_UY44_CR5,0,32,44_AL_.jpg
p303
sVcharacter
p304
VJerry Grogan
p305
sVname
p306
VHarry Todd
p307
sasVlength
p308
g3
sVrating_count
p309
g3
sVstoryline
p310
g3
sVstars
p311
(lp312
VPriscilla Dean
p313
aVPat O'Malley
p314
aVMarian Skinner
p315
asVyear
p316
V1918
p317
sVgenre
p318
(lp319
VComedy
p320
aVDrama
p321
asVtrailer
p322
(lp323
sVmetadata
p324
(dp325
Vasp_retio
p326
V1.33 : 1
p327
sVsound_mix
p328
(lp329
VSilent
p330
asVgross
p331
g3
sVcountries
p332
(lp333
VUSA
p334
asVbudget
p335
g3
sVlanguages
p336
(lp337
VEnglish
p338
asVfilming_locations
p339
(lp340
sValso_known_as
p341
(lp342
VUn mari pour Gilberte
p343
assa(dp344
Vrating
p345
g3
sVdescription
p346
g3
sVtitle
p347
VShe Loved Him Plenty
p348
sVurl
p349
(dp350
Vurl
p351
Vhttp://www.imdb.com/title/tt9603
p352
ssVposter
p353
(dp354
Vlarge
p355
Vhttp://ia.media-imdb.com/images/G/01/imdb/images/logos/imdb_fb_logo-1730868325._CB514892123_.png_V1_.jpg
p356
sVthumb
p357
g3
ssVrelease_date
p358
V1918-08-01
p359
sVcontent_rating
p360
g3
sVoriginal_title
p361
g3
sVwriters
p362
(lp363
VHampton Del Ruth
p364
asVimdb_id
p365
Vtt0009603
p366
sVdirector
p367
VHampton Del Ruth F. Richard Jones
p368
sVcast
p369
(lp370
(dp371
Vlink
p372
Vhttp://www.imdb.com/name/nm0878035/?ref_=tt_cl_t1
p373
sVimage
p374
Vhttps://images-na.ssl-images-amazon.com/images/M/MV5BMTUwMzMzMjA0OF5BMl5BanBnXkFtZTgwMjI0OTg0MzE@._V1._CR109,133,531,706_UY44_CR0,0,32,44_AL_.jpg
p375
sVcharacter
p376
V1st Pawnshop Clerk
p377
sVname
p378
VBen Turpin
p379
sa(dp380
Vlink
p381
Vhttp://www.imdb.com/name/nm0174692/?ref_=tt_cl_t2
p382
sVimage
p383
Vhttps://images-na.ssl-images-amazon.com/images/M/MV5BYzFmNGU2MDYtMzBhNC00OTFjLTg5ZTQtMDczYjJmYjRjZDZiXkEyXkFqcGdeQXVyMzI5NDcxNzI@._V1_UY44_CR1,0,32,44_AL_.jpg
p384
sVcharacter
p385
V2nd Pawnshop Clerk       (as Charles Lynn)
p386
sVname
p387
VHeinie Conklin
p388
sa(dp389
Vlink
p390
Vhttp://www.imdb.com/name/nm0602959/?ref_=tt_cl_t3
p391
sVimage
p392
Vhttps://images-na.ssl-images-amazon.com/images/M/MV5BYzVkMTRjNmQtOTllYi00NTAyLTlhNzctNTc5NTBjNWM3YjIxXkEyXkFqcGdeQXVyMzI5NDcxNzI@._V1_UY44_CR0,0,32,44_AL_.jpg
p393
sVcharacter
p394
VRebecca O'Brien - Pawnshop Owner
p395
sVname
p396
VPolly Moran
p397
sa(dp398
Vlink
p399
Vhttp://www.imdb.com/name/nm0448012/?ref_=tt_cl_t4
p400
sVimage
p401
Vhttps://images-na.ssl-images-amazon.com/images/M/MV5BZDE0ZDdlZjktYjVhYi00Y2I0LTk0YjAtZjExZjgzYjc5MTQ2XkEyXkFqcGdeQXVyMDMxMjQwMw@@._V1_UY44_CR7,0,32,44_AL_.jpg
p402
sVcharacter
p403
VAlf
p404
sVname
p405
VEdgar Kennedy
p406
sa(dp407
Vlink
p408
Vhttp://www.imdb.com/name/nm0696679/?ref_=tt_cl_t5
p409
sVimage
p410
Vhttps://images-na.ssl-images-amazon.com/images/M/MV5BMTY0OTU0NTQ5M15BMl5BanBnXkFtZTgwMzI0OTg0MzE@._V1._CR139,182,723,959_UY44_CR0,0,32,44_AL_.jpg
p411
sVcharacter
p412
VAlf's Sweetheart
p413
sVname
p414
VMarie Prevost
p415
sa(dp416
Vlink
p417
Vhttp://www.imdb.com/name/nm0570274/?ref_=tt_cl_t6
p418
sVimage
p419
Vhttps://images-na.ssl-images-amazon.com/images/M/MV5BZWRlYjc5ZTUtMGNlYy00ZmFkLWIzNDYtNTFhODg2MzdiYTYwXkEyXkFqcGdeQXVyMDUyOTUyNQ@@._V1_UY44_CR25,0,32,44_AL_.jpg
p420
sVcharacter
p421
VSuit Customer
p422
sVname
p423
VPaddy McGuire
p424
sa(dp425
Vlink
p426
Vhttp://www.imdb.com/name/nm0871139/?ref_=tt_cl_t7
p427
sVimage
p428
g3
sVcharacter
p429
VMan at Pier
p430
sVname
p431
VWayland Trask
p432
sasVlength
p433
V20
p434
sVrating_count
p435
g3
sVstoryline
p436
g3
sVstars
p437
(lp438
VBen Turpin
p439
aVHeinie Conklin
p440
aVPolly Moran
p441
asVyear
p442
V1918
p443
sVgenre
p444
(lp445
VComedy
p446
aVShort
p447
asVtrailer
p448
(lp449
sVmetadata
p450
(dp451
Vasp_retio
p452
V1.33 : 1
p453
sVsound_mix
p454
(lp455
VSilent
p456
asVgross
p457
g3
sVcountries
p458
(lp459
VUSA
p460
asVbudget
p461
g3
sVlanguages
p462
(lp463
VEnglish
p464
asVfilming_locations
p465
(lp466
sValso_known_as
p467
(lp468
VHock Shop
p469
assa(dp470
Vrating
p471
V6.2
p472
sVdescription
p473
g3
sVtitle
p474
VShe Loves Me Not
p475
sVurl
p476
(dp477
Vurl
p478
Vhttp://www.imdb.com/title/tt9604
p479
ssVposter
p480
(dp481
Vlarge
p482
Vhttps://images-na.ssl-images-amazon.com/images/M/MV5BYTk5NWVkNjEtOGQ3Zi00Y2NiLWE0MzAtY2MxMDgyMTVkYWYzXkEyXkFqcGdeQXVyMjUxODE0MDY@._V1_.jpg
p483
sVthumb
p484
Vhttps://images-na.ssl-images-amazon.com/images/M/MV5BYTk5NWVkNjEtOGQ3Zi00Y2NiLWE0MzAtY2MxMDgyMTVkYWYzXkEyXkFqcGdeQXVyMjUxODE0MDY@._V1_UY268_CR2,0,182,268_AL_.jpg
p485
ssVrelease_date
p486
V1918-12-29
p487
sVcontent_rating
p488
g3
sVoriginal_title
p489
g3
sVwriters
p490
(lp491
sVimdb_id
p492
Vtt0009604
p493
sVdirector
p494
g3
sVcast
p495
(lp496
(dp497
Vlink
p498
Vhttp://www.imdb.com/name/nm0516001/?ref_=tt_cl_t1
p499
sVimage
p500
Vhttps://images-na.ssl-images-amazon.com/images/M/MV5BMjA0ODc5MTIyOV5BMl5BanBnXkFtZTgwNDgxODIwMjE@._V1_UY44_CR1,0,32,44_AL_.jpg
p501
sVcharacter
p502
g3
sVname
p503
VHarold Lloyd
p504
sa(dp505
Vlink
p506
Vhttp://www.imdb.com/name/nm0689444/?ref_=tt_cl_t2
p507
sVimage
p508
Vhttps://images-na.ssl-images-amazon.com/images/M/MV5BMTA1NTM2NTAzODdeQTJeQWpwZ15BbWU4MDkzOTM3MDIx._V1_UY44_CR1,0,32,44_AL_.jpg
p509
sVcharacter
p510
g3
sVname
p511
V'Snub' Pollard
p512
sa(dp513
Vlink
p514
Vhttp://www.imdb.com/name/nm0199841/?ref_=tt_cl_t3
p515
sVimage
p516
Vhttps://images-na.ssl-images-amazon.com/images/M/MV5BMTU3OTI5NDc5M15BMl5BanBnXkFtZTYwMjY1MjI2._V1_UY44_CR1,0,32,44_AL_.jpg
p517
sVcharacter
p518
g3
sVname
p519
VBebe Daniels
p520
sa(dp521
Vlink
p522
g3
sVimage
p523
g3
sVcharacter
p524
g3
sVname
p525
g3
sa(dp526
Vlink
p527
Vhttp://www.imdb.com/name/nm0112239/?ref_=tt_cl_t4
p528
sVimage
p529
g3
sVcharacter
p530
g3
sVname
p531
VSammy Brooks
p532
sa(dp533
Vlink
p534
Vhttp://www.imdb.com/name/nm0269547/?ref_=tt_cl_t5
p535
sVimage
p536
g3
sVcharacter
p537
g3
sVname
p538
VBilly Fay
p539
sa(dp540
Vlink
p541
Vhttp://www.imdb.com/name/nm0318981/?ref_=tt_cl_t6
p542
sVimage
p543
Vhttps://images-na.ssl-images-amazon.com/images/M/MV5BYWE0ZWZjMWItN2EwMC00NjA0LTgzOGUtNzc4ZjY2OGVmN2M4XkEyXkFqcGdeQXVyMTk2MzI2Ng@@._V1_UY44_CR13,0,32,44_AL_.jpg
p544
sVcharacter
p545
g3
sVname
p546
VWilliam Gillespie
p547
sa(dp548
Vlink
p549
Vhttp://www.imdb.com/name/nm0365582/?ref_=tt_cl_t7
p550
sVimage
p551
g3
sVcharacter
p552
g3
sVname
p553
VEstelle Harrison
p554
sa(dp555
Vlink
p556
Vhttp://www.imdb.com/name/nm0367612/?ref_=tt_cl_t8
p557
sVimage
p558
g3
sVcharacter
p559
g3
sVname
p560
VLew Harvey
p561
sa(dp562
Vlink
p563
Vhttp://www.imdb.com/name/nm0417168/?ref_=tt_cl_t9
p564
sVimage
p565
Vhttps://images-na.ssl-images-amazon.com/images/M/MV5BYjM2OGQ1YzEtZDE2OS00NzViLTg5YWUtMjNhMjBhZWI1MzlhXkEyXkFqcGdeQXVyMzI5NDcxNzI@._V1_UY44_CR1,0,32,44_AL_.jpg
p566
sVcharacter
p567
g3
sVname
p568
VBud Jamison
p569
sa(dp570
Vlink
p571
Vhttp://www.imdb.com/name/nm0430865/?ref_=tt_cl_t10
p572
sVimage
p573
Vhttps://images-na.ssl-images-amazon.com/images/M/MV5BODViNDRjNDItOGNiYi00MjZhLWFmNGQtZWQ0ZTI3ZTgyMTE3XkEyXkFqcGdeQXVyMDUyOTUyNQ@@._V1_UY44_CR15,0,32,44_AL_.jpg
p574
sVcharacter
p575
g3
sVname
p576
VMargaret Joslin
p577
sa(dp578
Vlink
p579
Vhttp://www.imdb.com/name/nm0483970/?ref_=tt_cl_t11
p580
sVimage
p581
g3
sVcharacter
p582
g3
sVname
p583
VDee Lampton
p584
sa(dp585
Vlink
p586
Vhttp://www.imdb.com/name/nm1077151/?ref_=tt_cl_t12
p587
sVimage
p588
g3
sVcharacter
p589
g3
sVname
p590
VOscar Larson
p591
sa(dp592
Vlink
p593
Vhttp://www.imdb.com/name/nm0608893/?ref_=tt_cl_t13
p594
sVimage
p595
Vhttps://images-na.ssl-images-amazon.com/images/M/MV5BZDhiZTJhNzAtY2M0MS00ZDA3LTlhNzctZTA2MzIxYTA2ZTg3XkEyXkFqcGdeQXVyMTk2MzI2Ng@@._V1_UY44_CR26,0,32,44_AL_.jpg
p596
sVcharacter
p597
g3
sVname
p598
VMarie Mosquini
p599
sa(dp600
Vlink
p601
Vhttp://www.imdb.com/name/nm0663613/?ref_=tt_cl_t14
p602
sVimage
p603
g3
sVcharacter
p604
g3
sVname
p605
VJames Parrott
p606
sa(dp607
Vlink
p608
Vhttp://www.imdb.com/name/nm0937579/?ref_=tt_cl_t15
p609
sVimage
p610
g3
sVcharacter
p611
g3
sVname
p612
VDorothea Wolbert
p613
sasVlength
p614
g3
sVrating_count
p615
V5
p616
sVstoryline
p617
g3
sVstars
p618
(lp619
VHarold Lloyd
p620
aVBebe Daniels
p621
aV'Snub' Pollard
p622
asVyear
p623
V1918
p624
sVgenre
p625
(lp626
VComedy
p627
aVShort
p628
asVtrailer
p629
(lp630
sVmetadata
p631
(dp632
Vasp_retio
p633
V1.33 : 1
p634
sVsound_mix
p635
(lp636
VSilent
p637
asVgross
p638
g3
sVcountries
p639
(lp640
VUSA
p641
asVbudget
p642
g3
sVlanguages
p643
(lp644
VEnglish
p645
asVfilming_locations
p646
(lp647
sValso_known_as
p648
(lp649
ssa(dp650
Vrating
p651
g3
sVdescription
p652
VA young woman weds a rich and handsome opera singer, only to find out afterwards that he is already married to someone else.
p653
sVtitle
p654
VSheba
p655
sVurl
p656
(dp657
Vurl
p658
Vhttp://www.imdb.com/title/tt9605
p659
ssVposter
p660
(dp661
Vlarge
p662
Vhttp://ia.media-imdb.com/images/G/01/imdb/images/logos/imdb_fb_logo-1730868325._CB514892123_.png_V1_.jpg
p663
sVthumb
p664
g3
ssVrelease_date
p665
V1919-10
p666
sVcontent_rating
p667
g3
sVoriginal_title
p668
g3
sVwriters
p669
(lp670
VBlanche McIntosh
p671
aVRita
p672
asVimdb_id
p673
Vtt0009605
p674
sVdirector
p675
VCecil M. Hepworth
p676
sVcast
p677
(lp678
(dp679
Vlink
p680
Vhttp://www.imdb.com/name/nm0851953/?ref_=tt_cl_t1
p681
sVimage
p682
Vhttps://images-na.ssl-images-amazon.com/images/M/MV5BM2Y0ZDI5NmItOTY0Yi00NmFhLWFlMTYtNGQyZGViZmQ2NzIyXkEyXkFqcGdeQXVyMjU4NzU2OTA@._V1_UY44_CR12,0,32,44_AL_.jpg
p683
sVcharacter
p684
VSheba Ormatroyd
p685
sVname
p686
VAlma Taylor
p687
sa(dp688
Vlink
p689
Vhttp://www.imdb.com/name/nm0024706/?ref_=tt_cl_t2
p690
sVimage
p691
g3
sVcharacter
p692
VPaul Meredith
p693
sVname
p694
VGerald Ames
p695
sa(dp696
Vlink
p697
Vhttp://www.imdb.com/name/nm0136864/?ref_=tt_cl_t3
p698
sVimage
p699
g3
sVcharacter
p700
VLevison
p701
sVname
p702
VJames Carew
p703
sa(dp704
Vlink
p705
Vhttp://www.imdb.com/name/nm0397464/?ref_=tt_cl_t4
p706
sVimage
p707
g3
sVcharacter
p708
VCount Pharamend
p709
sVname
p710
VLionelle Howard
p711
sa(dp712
Vlink
p713
Vhttp://www.imdb.com/name/nm0219349/?ref_=tt_cl_t5
p714
sVimage
p715
g3
sVcharacter
p716
VBessie Saxton
p717
sVname
p718
VEileen Dennes
p719
sa(dp720
Vlink
p721
Vhttp://www.imdb.com/name/nm0225133/?ref_=tt_cl_t6
p722
sVimage
p723
g3
sVcharacter
p724
VRhoda Meredith
p725
sVname
p726
VMary Dibley
p727
sa(dp728
Vlink
p729
Vhttp://www.imdb.com/name/nm0136941/?ref_=tt_cl_t7
p730
sVimage
p731
g3
sVcharacter
p732
VMrs. Ormatroyd
p733
sVname
p734
VDiana Carey
p735
sa(dp736
Vlink
p737
Vhttp://www.imdb.com/name/nm0054879/?ref_=tt_cl_t8
p738
sVimage
p739
g3
sVcharacter
p740
VRex Ormatroyd
p741
sVname
p742
VEric Barker
p743
sa(dp744
Vlink
p745
g3
sVimage
p746
g3
sVcharacter
p747
g3
sVname
p748
g3
sa(dp749
Vlink
p750
Vhttp://www.imdb.com/name/nm5969480/?ref_=tt_cl_t9
p751
sVimage
p752
g3
sVcharacter
p753
VBaby Paul
p754
sVname
p755
VJacky Craine
p756
sasVlength
p757
g3
sVrating_count
p758
g3
sVstoryline
p759
VA young woman weds a rich and handsome opera singer, only to find out afterwards that he is already married to someone else.
p760
sVstars
p761
(lp762
VAlma Taylor
p763
aVGerald Ames
p764
aVJames Carew
p765
asVyear
p766
V1919
p767
sVgenre
p768
(lp769
VDrama
p770
asVtrailer
p771
(lp772
sVmetadata
p773
(dp774
Vasp_retio
p775
V1.33 : 1
p776
sVsound_mix
p777
(lp778
VSilent
p779
asVgross
p780
g3
sVcountries
p781
(lp782
VUK
p783
asVbudget
p784
g3
sVlanguages
p785
(lp786
VEnglish
p787
asVfilming_locations
p788
(lp789
sValso_known_as
p790
(lp791
ssa(dp792
Vrating
p793
g3
sVdescription
p794
g3
sVtitle
p795
VThe Shell Game
p796
sVurl
p797
(dp798
Vurl
p799
Vhttp://www.imdb.com/title/tt9606
p800
ssVposter
p801
(dp802
Vlarge
p803
Vhttp://ia.media-imdb.com/images/G/01/imdb/images/logos/imdb_fb_logo-1730868325._CB514892123_.png_V1_.jpg
p804
sVthumb
p805
g3
ssVrelease_date
p806
V1918-03-04
p807
sVcontent_rating
p808
g3
sVoriginal_title
p809
g3
sVwriters
p810
(lp811
VGeorge D. Baker
p812
aVKenneth Roberts
p813
asVimdb_id
p814
Vtt0009606
p815
sVdirector
p816
VGeorge D. Baker
p817
sVcast
p818
(lp819
(dp820
Vlink
p821
Vhttp://www.imdb.com/name/nm0917575/?ref_=tt_cl_t1
p822
sVimage
p823
Vhttps://images-na.ssl-images-amazon.com/images/M/MV5BMzJmM2NiY2MtMjZlZi00NjVmLTlkOTYtYjkzYTZlMzRmMTYwXkEyXkFqcGdeQXVyNTk5NzQ5Ng@@._V1_UY44_CR3,0,32,44_AL_.jpg
p824
sVcharacter
p825
VZlice Sheldon /              Zelda Gray
p826
sVname
p827
VEmmy Wehlen
p828
sa(dp829
Vlink
p830
Vhttp://www.imdb.com/name/nm0464137/?ref_=tt_cl_t2
p831
sVimage
p832
Vhttps://images-na.ssl-images-amazon.com/images/M/MV5BZDRjMWYxYzItZDNmYS00MmVhLTljNzgtZGQwYzgwYTQ1ZjEzXkEyXkFqcGdeQXVyMzI5NDcxNzI@._UY317_CR16,0,214,317_AL_.jpg
p833
sVcharacter
p834
VLawrence Gray
p835
sVname
p836
VHenry Kolker
p837
sa(dp838
Vlink
p839
Vhttp://www.imdb.com/name/nm0453059/?ref_=tt_cl_t3
p840
sVimage
p841
Vhttps://images-na.ssl-images-amazon.com/images/M/MV5BYWYyNGExNTItYmQ1OC00OTYyLThhMmYtNmM4YzhkOTZhMWE2XkEyXkFqcGdeQXVyMzI5NDcxNzI@._V1_UY44_CR0,0,32,44_AL_.jpg
p842
sVcharacter
p843
V'Silk' Wilkins
p844
sVname
p845
VJoseph Kilgour
p846
sa(dp847
Vlink
p848
Vhttp://www.imdb.com/name/nm0169003/?ref_=tt_cl_t4
p849
sVimage
p850
g3
sVcharacter
p851
VMrs. Wentworth
p852
sVname
p853
VFanny Cogan
p854
sa(dp855
Vlink
p856
Vhttp://www.imdb.com/name/nm0020947/?ref_=tt_cl_t5
p857
sVimage
p858
Vhttps://images-na.ssl-images-amazon.com/images/M/MV5BNDQ1YWM5YTktZDNiNi00NjYwLWJiYTctM2U1YmQxOGI1M2EyXkEyXkFqcGdeQXVyMzI5NDcxNzI@._UY317_CR16,0,214,317_AL_.jpg
p859
sVcharacter
p860
VLandlady
p861
sVname
p862
VRicca Allen
p863
sa(dp864
Vlink
p865
Vhttp://www.imdb.com/name/nm0420292/?ref_=tt_cl_t6
p866
sVimage
p867
g3
sVcharacter
p868
VHeadwaiter
p869
sVname
p870
VHugh Jeffrey
p871
sa(dp872
Vlink
p873
Vhttp://www.imdb.com/name/nm0861587/?ref_=tt_cl_t7
p874
sVimage
p875
g3
sVcharacter
p876
VHotel Manager
p877
sVname
p878
VRichard Thornton
p879
sa(dp880
Vlink
p881
Vhttp://www.imdb.com/name/nm0379001/?ref_=tt_cl_t8
p882
sVimage
p883
g3
sVcharacter
p884
VThe Maestro
p885
sVname
p886
VClarence Heritage
p887
sa(dp888
Vlink
p889
Vhttp://www.imdb.com/name/nm0531385/?ref_=tt_cl_t9
p890
sVimage
p891
Vhttps://images-na.ssl-images-amazon.com/images/M/MV5BNTkzYmIyNjMtOTI5YS00ODc2LTkwMTktOWQzMWJiYTY3N2ZkXkEyXkFqcGdeQXVyNTEzNDY5MjM@._V1_UY44_CR1,0,32,44_AL_.jpg
p892
sVcharacter
p893
VVocal Teacher
p894
sVname
p895
VDonald MacBride
p896
sasVlength
p897
V50
p898
sVrating_count
p899
g3
sVstoryline
p900
g3
sVstars
p901
(lp902
VEmmy Wehlen
p903
aVHenry Kolker
p904
aVJoseph Kilgour
p905
asVyear
p906
V1918
p907
sVgenre
p908
(lp909
VDrama
p910
asVtrailer
p911
(lp912
sVmetadata
p913
(dp914
Vasp_retio
p915
V1.33 : 1
p916
sVsound_mix
p917
(lp918
VSilent
p919
asVgross
p920
g3
sVcountries
p921
(lp922
VUSA
p923
asVbudget
p924
g3
sVlanguages
p925
(lp926
VEnglish
p927
asVfilming_locations
p928
(lp929
sValso_known_as
p930
(lp931
VGood Will and Almond Shells
p932
assa(dp933
Vrating
p934
g3
sVdescription
p935
g3
sVtitle
p936
VSheriff Nell's Tussle
p937
sVurl
p938
(dp939
Vurl
p940
Vhttp://www.imdb.com/title/tt9607
p941
ssVposter
p942
(dp943
Vlarge
p944
Vhttps://images-na.ssl-images-amazon.com/images/M/MV5BNTI5YThiZWMtNTVlZC00YmRhLWFiMWItMDBmMzk0NWIxZjk1XkEyXkFqcGdeQXVyMzI5NDcxNzI@._V1_.jpg
p945
sVthumb
p946
Vhttps://images-na.ssl-images-amazon.com/images/M/MV5BNTI5YThiZWMtNTVlZC00YmRhLWFiMWItMDBmMzk0NWIxZjk1XkEyXkFqcGdeQXVyMzI5NDcxNzI@._V1_UY268_CR80,0,182,268_AL_.jpg
p947
ssVrelease_date
p948
V1918-03-11
p949
sVcontent_rating
p950
g3
sVoriginal_title
p951
g3
sVwriters
p952
(lp953
VWilliam Campbell
p954
aVHampton Del Ruth
p955
asVimdb_id
p956
Vtt0009607
p957
sVdirector
p958
VWilliam Campbell
p959
sVcast
p960
(lp961
(dp962
Vlink
p963
Vhttp://www.imdb.com/name/nm0602959/?ref_=tt_cl_t1
p964
sVimage
p965
Vhttps://images-na.ssl-images-amazon.com/images/M/MV5BYzVkMTRjNmQtOTllYi00NTAyLTlhNzctNTc5NTBjNWM3YjIxXkEyXkFqcGdeQXVyMzI5NDcxNzI@._V1_UY44_CR0,0,32,44_AL_.jpg
p966
sVcharacter
p967
VSheriff Nell McCarthy - Still the Pride of Triggerville
p968
sVname
p969
VPolly Moran
p970
sa(dp971
Vlink
p972
Vhttp://www.imdb.com/name/nm0878035/?ref_=tt_cl_t2
p973
sVimage
p974
Vhttps://images-na.ssl-images-amazon.com/images/M/MV5BMTUwMzMzMjA0OF5BMl5BanBnXkFtZTgwMjI0OTg0MzE@._V1._CR109,133,531,706_UY44_CR0,0,32,44_AL_.jpg
p975
sVcharacter
p976
VHonest Eyed Jack - Still After Her
p977
sVname
p978
VBen Turpin
p979
sa(dp980
Vlink
p981
Vhttp://www.imdb.com/name/nm0035627/?ref_=tt_cl_t3
p982
sVimage
p983
Vhttps://images-na.ssl-images-amazon.com/images/M/MV5BZDU3Mzg4Y2YtMWFlYS00Y2U3LWI0ZjItMjkyNjYwYTVjZTAxXkEyXkFqcGdeQXVyMzI5NDcxNzI@._V1_UY44_CR2,0,32,44_AL_.jpg
p984
sVcharacter
p985
VSilk Hat Cecil aka Jersey City Joe       (as William Armstrong)
p986
sVname
p987
VBilly Armstrong
p988
sa(dp989
Vlink
p990
Vhttp://www.imdb.com/name/nm0243788/?ref_=tt_cl_t4
p991
sVimage
p992
g3
sVcharacter
p993
VHelen Bent - Only Cecil's Wife
p994
sVname
p995
VGonda Durand
p996
sa(dp997
Vlink
p998
Vhttp://www.imdb.com/name/nm0171035/?ref_=tt_cl_t5
p999
sVimage
p1000
g3
sVcharacter
p1001
VDisapearo the Great - Cecil's Accomplice
p1002
sVname
p1003
VFrank J. Coleman
p1004
sa(dp1005
Vlink
p1006
Vhttp://www.imdb.com/name/nm0571931/?ref_=tt_cl_t6
p1007
sVimage
p1008
g3
sVcharacter
p1009
VBlack Pete - Who Needs Watching
p1010
sVname
p1011
VAl McKinnon
p1012
sa(dp1013
Vlink
p1014
Vhttp://www.imdb.com/name/nm0736882/?ref_=tt_cl_t7
p1015
sVimage
p1016
g3
sVcharacter
p1017
VThe Police Captain
p1018
sVname
p1019
VGene Rogers
p1020
sa(dp1021
Vlink
p1022
Vhttp://www.imdb.com/name/nm0446756/?ref_=tt_cl_t8
p1023
sVimage
p1024
g3
sVcharacter
p1025
VHenchman       (as Pat Kelly)
p1026
sVname
p1027
VPatrick Kelly
p1028
sa(dp1029
Vlink
p1030
Vhttp://www.imdb.com/name/nm5678756/?ref_=tt_cl_t9
p1031
sVimage
p1032
g3
sVcharacter
p1033
VDeputy
p1034
sVname
p1035
VClarence Lyndon
p1036
sa(dp1037
Vlink
p1038
Vhttp://www.imdb.com/name/nm6068812/?ref_=tt_cl_t10
p1039
sVimage
p1040
g3
sVcharacter
p1041
VElevator Operator
p1042
sVname
p1043
VHal Haig Prieste
p1044
sasVlength
p1045
g3
sVrating_count
p1046
g3
sVstoryline
p1047
g3
sVstars
p1048
(lp1049
VPolly Moran
p1050
aVBen Turpin
p1051
aVBilly Armstrong
p1052
asVyear
p1053
V1918
p1054
sVgenre
p1055
(lp1056
VShort
p1057
aVComedy
p1058
aVWestern
p1059
asVtrailer
p1060
(lp1061
sVmetadata
p1062
(dp1063
Vasp_retio
p1064
V1.33 : 1
p1065
sVsound_mix
p1066
(lp1067
VSilent
p1068
asVgross
p1069
g3
sVcountries
p1070
(lp1071
VUSA
p1072
asVbudget
p1073
g3
sVlanguages
p1074
(lp1075
VEnglish
p1076
asVfilming_locations
p1077
(lp1078
sValso_known_as
p1079
(lp1080
VSk&#230;g og Ballade
p1081
assa(dp1082
Vrating
p1083
V7.4
p1084
sVdescription
p1085
VMarcia Grey is wrongly convicted on trumped-up evidence of a German. After serving her term, she rebuilds her life and marries well. The German then attempts to blackmail her into helping ...\u000a                    See full summary
p1086
sVtitle
p1087
VShifting Sands
p1088
sVurl
p1089
(dp1090
Vurl
p1091
Vhttp://www.imdb.com/title/tt9608
p1092
ssVposter
p1093
(dp1094
Vlarge
p1095
Vhttps://images-na.ssl-images-amazon.com/images/M/MV5BZWM0ODBjNTktMWVkNC00ZWEyLTg5NjktMGI5OWE2ZDljZDZjXkEyXkFqcGdeQXVyNTM3MDMyMDQ@._V1_.jpg
p1096
sVthumb
p1097
Vhttps://images-na.ssl-images-amazon.com/images/M/MV5BZWM0ODBjNTktMWVkNC00ZWEyLTg5NjktMGI5OWE2ZDljZDZjXkEyXkFqcGdeQXVyNTM3MDMyMDQ@._V1_UY268_CR9,0,182,268_AL_.jpg
p1098
ssVrelease_date
p1099
V1918-08-01
p1100
sVcontent_rating
p1101
g3
sVoriginal_title
p1102
g3
sVwriters
p1103
(lp1104
VCharles T. Dazey
p1105
asVimdb_id
p1106
Vtt0009608
p1107
sVdirector
p1108
VAlbert Parker
p1109
sVcast
p1110
(lp1111
(dp1112
Vlink
p1113
Vhttp://www.imdb.com/name/nm0841797/?ref_=tt_cl_t1
p1114
sVimage
p1115
Vhttps://images-na.ssl-images-amazon.com/images/M/MV5BMTU3NzIxOTUwOV5BMl5BanBnXkFtZTYwNDM5MTI2._UY317_CR16,0,214,317_AL_.jpg
p1116
sVcharacter
p1117
VMarcia Grey
p1118
sVname
p1119
VGloria Swanson
p1120
sa(dp1121
Vlink
p1122
Vhttp://www.imdb.com/name/nm0454870/?ref_=tt_cl_t2
p1123
sVimage
p1124
Vhttps://images-na.ssl-images-amazon.com/images/M/MV5BZjdlY2U5MjktNGNmZi00YjM4LWJhMjMtNmE0ZTI0ODg0M2EzXkEyXkFqcGdeQXVyMjUxODE0MDY@._V1_UY44_CR13,0,32,44_AL_.jpg
p1125
sVcharacter
p1126
VJohn Stanford
p1127
sVname
p1128
VJoe King
p1129
sa(dp1130
Vlink
p1131
Vhttp://www.imdb.com/name/nm0164003/?ref_=tt_cl_t3
p1132
sVimage
p1133
g3
sVcharacter
p1134
VHenry holt - Rent collector
p1135
sVname
p1136
VHarvey Clark
p1137
sa(dp1138
Vlink
p1139
Vhttp://www.imdb.com/name/nm0142115/?ref_=tt_cl_t4
p1140
sVimage
p1141
g3
sVcharacter
p1142
VCora Grey
p1143
sVname
p1144
VLeone Carton
p1145
sa(dp1146
Vlink
p1147
Vhttp://www.imdb.com/name/nm0486041/?ref_=tt_cl_t5
p1148
sVimage
p1149
g3
sVcharacter
p1150
VMrs. Stanford
p1151
sVname
p1152
VLillian Langdon
p1153
sa(dp1154
Vlink
p1155
Vhttp://www.imdb.com/name/nm0589596/?ref_=tt_cl_t6
p1156
sVimage
p1157
g3
sVcharacter
p1158
VMajor Willis
p1159
sVname
p1160
VArthur Millett
p1161
sa(dp1162
Vlink
p1163
g3
sVimage
p1164
g3
sVcharacter
p1165
g3
sVname
p1166
g3
sa(dp1167
Vlink
p1168
Vhttp://www.imdb.com/name/nm0728255/?ref_=tt_cl_t7
p1169
sVimage
p1170
g3
sVcharacter
p1171
VJoan
p1172
sVname
p1173
VMyrtle Rishell
p1174
sasVlength
p1175
V60
p1176
sVrating_count
p1177
V642
p1178
sVstoryline
p1179
VMarcia Grey is wrongly convicted on trumped-up evidence of a German. After serving her term, she rebuilds her life and marries well. The German then attempts to blackmail her into helping the German cause during WWI.
p1180
sVstars
p1181
(lp1182
VGloria Swanson
p1183
aVJoe King
p1184
aVHarvey Clark
p1185
asVyear
p1186
V1918
p1187
sVgenre
p1188
(lp1189
VDrama
p1190
asVtrailer
p1191
(lp1192
sVmetadata
p1193
(dp1194
Vasp_retio
p1195
V1.33 : 1
p1196
sVsound_mix
p1197
(lp1198
VSilent
p1199
asVgross
p1200
g3
sVcountries
p1201
(lp1202
VUSA
p1203
asVbudget
p1204
g3
sVlanguages
p1205
(lp1206
VEnglish
p1207
asVfilming_locations
p1208
(lp1209
sValso_known_as
p1210
(lp1211
V&#1044;&#1074;&#1080;&#1078;&#1091;&#1097;&#1080;&#1077;&#1089;&#1103; &#1087;&#1077;&#1089;&#1082;&#1080;
p1212
assa(dp1213
Vrating
p1214
g3
sVdescription
p1215
g3
sVtitle
p1216
VThe Shoes That Danced
p1217
sVurl
p1218
(dp1219
Vurl
p1220
Vhttp://www.imdb.com/title/tt9609
p1221
ssVposter
p1222
(dp1223
Vlarge
p1224
Vhttps://images-na.ssl-images-amazon.com/images/M/MV5BNDM4YTQ5YzMtNTgyMS00NTFhLTljZTAtZGQ0ZTNjYWE0OTFmXkEyXkFqcGdeQXVyMTcyODY2NDQ@._V1_.jpg
p1225
sVthumb
p1226
Vhttps://images-na.ssl-images-amazon.com/images/M/MV5BNDM4YTQ5YzMtNTgyMS00NTFhLTljZTAtZGQ0ZTNjYWE0OTFmXkEyXkFqcGdeQXVyMTcyODY2NDQ@._V1_UX182_CR0,0,182,268_AL_.jpg
p1227
ssVrelease_date
p1228
V1918-03-03
p1229
sVcontent_rating
p1230
g3
sVoriginal_title
p1231
g3
sVwriters
p1232
(lp1233
VJack Cunningham
p1234
aVJohn A. Moroso
p1235
asVimdb_id
p1236
Vtt0009609
p1237
sVdirector
p1238
VFrank Borzage
p1239
sVcast
p1240
(lp1241
(dp1242
Vlink
p1243
Vhttp://www.imdb.com/name/nm0823299/?ref_=tt_cl_t1
p1244
sVimage
p1245
Vhttps://images-na.ssl-images-amazon.com/images/M/MV5BMjMzNjY4MjQ3Ml5BMl5BanBnXkFtZTgwMzE1OTY3MTE@._V1._CR80.88333129882812,71.53334045410156,846,1141_UY44_CR0,0,32,44_AL_.jpg
p1246
sVcharacter
p1247
VRhoda Regan
p1248
sVname
p1249
VPauline Starke
p1250
sa(dp1251
Vlink
p1252
Vhttp://www.imdb.com/name/nm0531962/?ref_=tt_cl_t2
p1253
sVimage
p1254
Vhttps://images-na.ssl-images-amazon.com/images/M/MV5BNjZjNmQxZTAtZmYyZS00YzU3LWI5ZWMtMmNjYzI4NWY2YWZlXkEyXkFqcGdeQXVyMDMxMjQwMw@@._V1_UY44_CR1,0,32,44_AL_.jpg
p1255
sVcharacter
p1256
VHarmony Lad
p1257
sVname
p1258
VWallace MacDonald
p1259
sa(dp1260
Vlink
p1261
Vhttp://www.imdb.com/name/nm0744514/?ref_=tt_cl_t3
p1262
sVimage
p1263
g3
sVcharacter
p1264
VStumpy Darcy
p1265
sVname
p1266
VRichard Rosson
p1267
sa(dp1268
Vlink
p1269
Vhttp://www.imdb.com/name/nm0230188/?ref_=tt_cl_t4
p1270
sVimage
p1271
g3
sVcharacter
p1272
VMrs. Regan
p1273
sVname
p1274
VAnna Dodge
p1275
sa(dp1276
Vlink
p1277
Vhttp://www.imdb.com/name/nm0286597/?ref_=tt_cl_t5
p1278
sVimage
p1279
Vhttps://images-na.ssl-images-amazon.com/images/M/MV5BYzllMmM3ZDItZmM4Ny00OGM5LTg1NTUtZTY3YTljNjRlNTc2XkEyXkFqcGdeQXVyMTcyODY2NDQ@._V1_UY44_CR1,0,32,44_AL_.jpg
p1280
sVcharacter
p1281
VMamie Conlon       (as Ann Kroman)
p1282
sVname
p1283
VAnn Forrest
p1284
sa(dp1285
Vlink
p1286
Vhttp://www.imdb.com/name/nm0103619/?ref_=tt_cl_t6
p1287
sVimage
p1288
Vhttps://images-na.ssl-images-amazon.com/images/M/MV5BMDYxNzJiM2MtY2MyNS00ZDg2LWE4NmYtMzEzNjE0ZDhjMGRiXkEyXkFqcGdeQXVyMzI5NDcxNzI@._V1_UY44_CR1,0,32,44_AL_.jpg
p1289
sVcharacter
p1290
VWedge Barker
p1291
sVname
p1292
VEd Brady
p1293
sa(dp1294
Vlink
p1295
Vhttp://www.imdb.com/name/nm0245802/?ref_=tt_cl_t7
p1296
sVimage
p1297
g3
sVcharacter
p1298
VHogan
p1299
sVname
p1300
VWilliam Dyer
p1301
sasVlength
p1302
g3
sVrating_count
p1303
g3
sVstoryline
p1304
g3
sVstars
p1305
(lp1306
VPauline Starke
p1307
aVWallace MacDonald
p1308
aVRichard Rosson
p1309
asVyear
p1310
V1918
p1311
sVgenre
p1312
(lp1313
VDrama
p1314
asVtrailer
p1315
(lp1316
sVmetadata
p1317
(dp1318
Vasp_retio
p1319
V1.33 : 1
p1320
sVsound_mix
p1321
(lp1322
VSilent
p1323
asVgross
p1324
g3
sVcountries
p1325
(lp1326
VUSA
p1327
asVbudget
p1328
g3
sVlanguages
p1329
(lp1330
sVfilming_locations
p1331
(lp1332
sValso_known_as
p1333
(lp1334
ssa(dp1335
Vrating
p1336
V6.8
p1337
sVdescription
p1338
VA settler and his daughter are trying to homestead a plot of land. They are tricked out of the land by a crooked saloon owner, who then shoots the father and makes a play for the daughter. A local cowboy comes to her rescue.
p1339
sVtitle
p1340
VShootin' Mad
p1341
sVurl
p1342
(dp1343
Vurl
p1344
Vhttp://www.imdb.com/title/tt9610
p1345
ssVposter
p1346
(dp1347
Vlarge
p1348
Vhttps://images-na.ssl-images-amazon.com/images/M/MV5BNjA0NzQ5MWQtMTBjZi00ZDJjLTkzYzgtNDZlN2FmMTg5NWMxXkEyXkFqcGdeQXVyMDMxMjQwMw@@._V1_.jpg
p1349
sVthumb
p1350
Vhttps://images-na.ssl-images-amazon.com/images/M/MV5BNjA0NzQ5MWQtMTBjZi00ZDJjLTkzYzgtNDZlN2FmMTg5NWMxXkEyXkFqcGdeQXVyMDMxMjQwMw@@._V1_UY268_CR61,0,182,268_AL_.jpg
p1351
ssVrelease_date
p1352
V1918-10-20
p1353
sVcontent_rating
p1354
g3
sVoriginal_title
p1355
g3
sVwriters
p1356
(lp1357
VGilbert M. 'Broncho Billy' Anderson
p1358
asVimdb_id
p1359
Vtt0009610
p1360
sVdirector
p1361
g3
sVcast
p1362
(lp1363
(dp1364
Vlink
p1365
Vhttp://www.imdb.com/name/nm0001908/?ref_=tt_cl_t1
p1366
sVimage
p1367
Vhttps://images-na.ssl-images-amazon.com/images/M/MV5BMTEwMTc3MDA2MjZeQTJeQWpwZ15BbWU4MDk3MzYzMDQx._V1_UY44_CR1,0,32,44_AL_.jpg
p1368
sVcharacter
p1369
VBroncho Billy       (as Gilbert Anderson)
p1370
sVname
p1371
VGilbert M. 'Broncho Billy' Anderson
p1372
sa(dp1373
Vlink
p1374
g3
sVimage
p1375
g3
sVcharacter
p1376
g3
sVname
p1377
g3
sa(dp1378
Vlink
p1379
Vhttp://www.imdb.com/name/nm0161366/?ref_=tt_cl_t2
p1380
sVimage
p1381
Vhttps://images-na.ssl-images-amazon.com/images/M/MV5BOGUyZjRlNDEtNmEzZi00ZWE2LWIwM2MtODcyZWM5ZWNhMmNhXkEyXkFqcGdeQXVyMzI5NDcxNzI@._V1_UY44_CR1,0,32,44_AL_.jpg
p1382
sVcharacter
p1383
g3
sVname
p1384
VFred Church
p1385
sa(dp1386
Vlink
p1387
Vhttp://www.imdb.com/name/nm0507392/?ref_=tt_cl_t3
p1388
sVimage
p1389
g3
sVcharacter
p1390
g3
sVname
p1391
VJoy Lewis
p1392
sa(dp1393
Vlink
p1394
Vhttp://www.imdb.com/name/nm0865178/?ref_=tt_cl_t4
p1395
sVimage
p1396
Vhttps://images-na.ssl-images-amazon.com/images/M/MV5BMWU2YTQ1Y2EtNTE2MC00ZjI0LWFmMjctZmMzMjhiYmZiYjg3XkEyXkFqcGdeQXVyMzI5NDcxNzI@._V1_UY44_CR5,0,32,44_AL_.jpg
p1397
sVcharacter
p1398
g3
sVname
p1399
VHarry Todd
p1400
sa(dp1401
Vlink
p1402
Vhttp://www.imdb.com/name/nm1270568/?ref_=tt_cl_t5
p1403
sVimage
p1404
g3
sVcharacter
p1405
g3
sVname
p1406
VE.A. Whitting
p1407
sa(dp1408
Vlink
p1409
Vhttp://www.imdb.com/name/nm0932428/?ref_=tt_cl_t6
p1410
sVimage
p1411
g3
sVcharacter
p1412
g3
sVname
p1413
VPaul Willis
p1414
sasVlength
p1415
g3
sVrating_count
p1416
V8
p1417
sVstoryline
p1418
VA settler and his daughter are trying to homestead a plot of land. They are tricked out of the land by a crooked saloon owner, who then shoots the father and makes a play for the daughter. A local cowboy comes to her rescue.
p1419
sVstars
p1420
(lp1421
VGilbert M. 'Broncho Billy' Anderson
p1422
aVFred Church
p1423
aVJoy Lewis
p1424
asVyear
p1425
V1918
p1426
sVgenre
p1427
(lp1428
VWestern
p1429
asVtrailer
p1430
(lp1431
sVmetadata
p1432
(dp1433
Vasp_retio
p1434
g3
sVsound_mix
p1435
(lp1436
VSilent
p1437
asVgross
p1438
g3
sVcountries
p1439
(lp1440
VUSA
p1441
asVbudget
p1442
g3
sVlanguages
p1443
(lp1444
VEnglish
p1445
asVfilming_locations
p1446
(lp1447
sValso_known_as
p1448
(lp1449
ssa(dp1450
Vrating
p1451
V6.9
p1452
sVdescription
p1453
VCharlie is a boot camp private who has a dream of being a hero who goes on a daring mission behind enemy lines.
p1454
sVtitle
p1455
VShoulder Arms
p1456
sVurl
p1457
(dp1458
Vurl
p1459
Vhttp://www.imdb.com/title/tt9611
p1460
ssVposter
p1461
(dp1462
Vlarge
p1463
Vhttps://images-na.ssl-images-amazon.com/images/M/MV5BODQ0Mzc5NzczMF5BMl5BanBnXkFtZTgwODkzNzkxMjE@._V1_.jpg
p1464
sVthumb
p1465
Vhttps://images-na.ssl-images-amazon.com/images/M/MV5BODQ0Mzc5NzczMF5BMl5BanBnXkFtZTgwODkzNzkxMjE@._V1_UX182_CR0,0,182,268_AL_.jpg
p1466
ssVrelease_date
p1467
V1918-10-27
p1468
sVcontent_rating
p1469
VNOT RATED
p1470
sVoriginal_title
p1471
g3
sVwriters
p1472
(lp1473
VCharles Chaplin
p1474
asVimdb_id
p1475
Vtt0009611
p1476
sVdirector
p1477
VCharles Chaplin
p1478
sVcast
p1479
(lp1480
(dp1481
Vlink
p1482
Vhttp://www.imdb.com/name/nm0701012/?ref_=tt_cl_t1
p1483
sVimage
p1484
Vhttps://images-na.ssl-images-amazon.com/images/M/MV5BMTgzMTI2MTcwNV5BMl5BanBnXkFtZTcwMjY4NjYxOA@@._V1_UY44_CR1,0,32,44_AL_.jpg
p1485
sVcharacter
p1486
VThe Girl
p1487
sVname
p1488
VEdna Purviance
p1489
sa(dp1490
Vlink
p1491
Vhttp://www.imdb.com/name/nm0000122/?ref_=tt_cl_t2
p1492
sVimage
p1493
Vhttps://images-na.ssl-images-amazon.com/images/M/MV5BNDcwMDc0ODAzOF5BMl5BanBnXkFtZTgwNTY2OTI1MDE@._UY317_CR16,0,214,317_AL_.jpg
p1494
sVcharacter
p1495
VDoughboy
p1496
sVname
p1497
VCharles Chaplin
p1498
sa(dp1499
Vlink
p1500
Vhttp://www.imdb.com/name/nm0152260/?ref_=tt_cl_t3
p1501
sVimage
p1502
Vhttps://images-na.ssl-images-amazon.com/images/M/MV5BMTczMDk4NTAwMl5BMl5BanBnXkFtZTYwODI1MjI2._V1_UY44_CR1,0,32,44_AL_.jpg
p1503
sVcharacter
p1504
VCharlie's Comrade /              The Kaiser       (as Sydney Chaplin)
p1505
sVname
p1506
VSyd Chaplin
p1507
sa(dp1508
Vlink
p1509
Vhttp://www.imdb.com/name/nm0881022/?ref_=tt_cl_t4
p1510
sVimage
p1511
Vhttps://images-na.ssl-images-amazon.com/images/M/MV5BNTI2YWZlYjgtYTMyMi00NTM0LTg1ZjUtOTYzMjQwNWVmZmJhXkEyXkFqcGdeQXVyMDMxMjQwMw@@._UY317_CR16,0,214,317_AL_.jpg
p1512
sVcharacter
p1513
VShort German Officer
p1514
sVname
p1515
VLoyal Underwood
p1516
sa(dp1517
Vlink
p1518
Vhttp://www.imdb.com/name/nm0074788/?ref_=tt_cl_t5
p1519
sVimage
p1520
g3
sVcharacter
p1521
VFat Whiskered Soldier /              The Kaiser's General /              Bartender
p1522
sVname
p1523
VHenry Bergman
p1524
sa(dp1525
Vlink
p1526
Vhttp://www.imdb.com/name/nm0934232/?ref_=tt_cl_t6
p1527
sVimage
p1528
g3
sVcharacter
p1529
VDumb German Wood-Cutter
p1530
sVname
p1531
VTom Wilson
p1532
sa(dp1533
Vlink
p1534
Vhttp://www.imdb.com/name/nm0042317/?ref_=tt_cl_t7
p1535
sVimage
p1536
g3
sVcharacter
p1537
VAmerican Soldier /              Clean Shaven German Soldier /              Bearded German Soldier
p1538
sVname
p1539
VAlbert Austin
p1540
sa(dp1541
Vlink
p1542
Vhttp://www.imdb.com/name/nm0933531/?ref_=tt_cl_t8
p1543
sVimage
p1544
g3
sVcharacter
p1545
VCrown Prince
p1546
sVname
p1547
VJack Wilson
p1548
sasVlength
p1549
V45
p1550
sVrating_count
p1551
V4,517
p1552
sVstoryline
p1553
VCharlie is in boot camp in the "awkward squad." Once in France he gets no letters from home. He finally gets a package containing limburger cheese which requires a gas mask and which he throws over into the German trench. He goes "over the top" and captures thirteen Germans ("I surrounded them"), then volunteers to wander through the German lines disguised as a tree trunk. With the help of a French girl he captures the Kaiser and the Crown Prince and is given a statue and victory parade in New York and then ... fellow soldiers wake him from his dream.
p1554
sVstars
p1555
(lp1556
VEdna Purviance
p1557
aVCharles Chaplin
p1558
aVSyd Chaplin
p1559
asVyear
p1560
V1918
p1561
sVgenre
p1562
(lp1563
VComedy
p1564
aVWar
p1565
asVtrailer
p1566
(lp1567
sVmetadata
p1568
(dp1569
Vasp_retio
p1570
V1.33 : 1
p1571
sVsound_mix
p1572
(lp1573
VMono(Westrex Recording System)&#160;(1959 re-issue)
p1574
aVSilent
p1575
asVgross
p1576
g3
sVcountries
p1577
(lp1578
VUSA
p1579
asVbudget
p1580
g3
sVlanguages
p1581
(lp1582
VEnglish
p1583
asVfilming_locations
p1584
(lp1585
VChaplin Studios - 1416 N. La Brea Avenue
p1586
aVHollywood
p1587
aVLos Angeles
p1588
aVCalifornia
p1589
aVUSA
p1590
asValso_known_as
p1591
(lp1592
VCharlot soldat
p1593
assa(dp1594
Vrating
p1595
g3
sVdescription
p1596
g3
sVtitle
p1597
g3
sVurl
p1598
(dp1599
Vurl
p1600
Vhttp://www.imdb.com/title/tt9612
p1601
ssVposter
p1602
(dp1603
Vlarge
p1604
V_V1_.jpg
p1605
sVthumb
p1606
g3
ssVrelease_date
p1607
g3
sVcontent_rating
p1608
g3
sVoriginal_title
p1609
g3
sVwriters
p1610
(lp1611
sVimdb_id
p1612
g3
sVdirector
p1613
g3
sVcast
p1614
(lp1615
sVlength
p1616
g3
sVrating_count
p1617
g3
sVstoryline
p1618
g3
sVstars
p1619
(lp1620
sVyear
p1621
g3
sVgenre
p1622
(lp1623
sVtrailer
p1624
(lp1625
sVmetadata
p1626
(dp1627
Vasp_retio
p1628
g3
sVsound_mix
p1629
(lp1630
sVgross
p1631
g3
sVcountries
p1632
(lp1633
sVbudget
p1634
g3
sVlanguages
p1635
(lp1636
sVfilming_locations
p1637
(lp1638
sValso_known_as
p1639
(lp1640
ssa(dp1641
Vrating
p1642
g3
sVdescription
p1643
VAt a masquerade ball, our hero, in a tramp costume, is arrested when they think he is a real hobo. In the meantime, an actual hobo, at the party, is treated like a guest.
p1644
sVtitle
p1645
VSic 'Em, Towser
p1646
sVurl
p1647
(dp1648
Vurl
p1649
Vhttp://www.imdb.com/title/tt9613
p1650
ssVposter
p1651
(dp1652
Vlarge
p1653
Vhttp://ia.media-imdb.com/images/G/01/imdb/images/logos/imdb_fb_logo-1730868325._CB514892123_.png_V1_.jpg
p1654
sVthumb
p1655
g3
ssVrelease_date
p1656
V1918-06-09
p1657
sVcontent_rating
p1658
g3
sVoriginal_title
p1659
g3
sVwriters
p1660
(lp1661
sVimdb_id
p1662
Vtt0009613
p1663
sVdirector
p1664
VGilbert Pratt
p1665
sVcast
p1666
(lp1667
(dp1668
Vlink
p1669
Vhttp://www.imdb.com/name/nm0516001/?ref_=tt_cl_t1
p1670
sVimage
p1671
Vhttps://images-na.ssl-images-amazon.com/images/M/MV5BMjA0ODc5MTIyOV5BMl5BanBnXkFtZTgwNDgxODIwMjE@._V1_UY44_CR1,0,32,44_AL_.jpg
p1672
sVcharacter
p1673
g3
sVname
p1674
VHarold Lloyd
p1675
sa(dp1676
Vlink
p1677
Vhttp://www.imdb.com/name/nm0689444/?ref_=tt_cl_t2
p1678
sVimage
p1679
Vhttps://images-na.ssl-images-amazon.com/images/M/MV5BMTA1NTM2NTAzODdeQTJeQWpwZ15BbWU4MDkzOTM3MDIx._V1_UY44_CR1,0,32,44_AL_.jpg
p1680
sVcharacter
p1681
g3
sVname
p1682
V'Snub' Pollard
p1683
sa(dp1684
Vlink
p1685
Vhttp://www.imdb.com/name/nm0199841/?ref_=tt_cl_t3
p1686
sVimage
p1687
Vhttps://images-na.ssl-images-amazon.com/images/M/MV5BMTU3OTI5NDc5M15BMl5BanBnXkFtZTYwMjY1MjI2._V1_UY44_CR1,0,32,44_AL_.jpg
p1688
sVcharacter
p1689
g3
sVname
p1690
VBebe Daniels
p1691
sa(dp1692
Vlink
p1693
g3
sVimage
p1694
g3
sVcharacter
p1695
g3
sVname
p1696
g3
sa(dp1697
Vlink
p1698
Vhttp://www.imdb.com/name/nm0086430/?ref_=tt_cl_t4
p1699
sVimage
p1700
Vhttps://images-na.ssl-images-amazon.com/images/M/MV5BMzliYzhmOTQtMzAzOS00OTU1LWEwZDUtNGM5YTgwNTgyNjI2XkEyXkFqcGdeQXVyMzI5NDcxNzI@._V1_UY44_CR0,0,32,44_AL_.jpg
p1701
sVcharacter
p1702
g3
sVname
p1703
VWilliam Blaisdell
p1704
sa(dp1705
Vlink
p1706
Vhttp://www.imdb.com/name/nm0112239/?ref_=tt_cl_t5
p1707
sVimage
p1708
g3
sVcharacter
p1709
g3
sVname
p1710
VSammy Brooks
p1711
sa(dp1712
Vlink
p1713
Vhttp://www.imdb.com/name/nm0174789/?ref_=tt_cl_t6
p1714
sVimage
p1715
Vhttps://images-na.ssl-images-amazon.com/images/M/MV5BMzdkZDEzOGQtMWQyNS00YThhLWExMjEtMDU0ZjE1YjExMDU4XkEyXkFqcGdeQXVyMzI5NDcxNzI@._V1_UY44_CR0,0,32,44_AL_.jpg
p1716
sVcharacter
p1717
V(as Lige Cromley)
p1718
sVname
p1719
VLige Conley
p1720
sa(dp1721
Vlink
p1722
Vhttp://www.imdb.com/name/nm0318981/?ref_=tt_cl_t7
p1723
sVimage
p1724
Vhttps://images-na.ssl-images-amazon.com/images/M/MV5BYWE0ZWZjMWItN2EwMC00NjA0LTgzOGUtNzc4ZjY2OGVmN2M4XkEyXkFqcGdeQXVyMTk2MzI2Ng@@._V1_UY44_CR13,0,32,44_AL_.jpg
p1725
sVcharacter
p1726
g3
sVname
p1727
VWilliam Gillespie
p1728
sa(dp1729
Vlink
p1730
Vhttp://www.imdb.com/name/nm0319532/?ref_=tt_cl_t8
p1731
sVimage
p1732
Vhttps://images-na.ssl-images-amazon.com/images/M/MV5BZjI1ZGE4N2ItNjI0Ny00ZjYzLTg3YmUtM2YzM2QxNmI3ODVjXkEyXkFqcGdeQXVyMzI5NDcxNzI@._V1_UY44_CR2,0,32,44_AL_.jpg
p1733
sVcharacter
p1734
g3
sVname
p1735
VHelen Gilmore
p1736
sa(dp1737
Vlink
p1738
Vhttp://www.imdb.com/name/nm0502631/?ref_=tt_cl_t9
p1739
sVimage
p1740
g3
sVcharacter
p1741
g3
sVname
p1742
VGus Leonard
p1743
sa(dp1744
Vlink
p1745
Vhttp://www.imdb.com/name/nm0663613/?ref_=tt_cl_t10
p1746
sVimage
p1747
g3
sVcharacter
p1748
g3
sVname
p1749
VJames Parrott
p1750
sa(dp1751
Vlink
p1752
Vhttp://www.imdb.com/name/nm0828897/?ref_=tt_cl_t11
p1753
sVimage
p1754
Vhttps://images-na.ssl-images-amazon.com/images/M/MV5BYzc4NjExNDYtYzMzZS00M2NjLWEwYjEtOTNkNDk4MGNmMTc5XkEyXkFqcGdeQXVyMTk2MzI2Ng@@._V1_UY44_CR13,0,32,44_AL_.jpg
p1755
sVcharacter
p1756
V(as Charles E. Stevenson)
p1757
sVname
p1758
VCharles Stevenson
p1759
sa(dp1760
Vlink
p1761
Vhttp://www.imdb.com/name/nm0937579/?ref_=tt_cl_t12
p1762
sVimage
p1763
g3
sVcharacter
p1764
g3
sVname
p1765
VDorothea Wolbert
p1766
sasVlength
p1767
g3
sVrating_count
p1768
g3
sVstoryline
p1769
VAt a masquerade ball, our hero, in a tramp costume, is arrested when they think he is a real hobo. In the meantime, an actual hobo, at the party, is treated like a guest.
p1770
sVstars
p1771
(lp1772
VHarold Lloyd
p1773
aV'Snub' Pollard
p1774
aVBebe Daniels
p1775
asVyear
p1776
V1918
p1777
sVgenre
p1778
(lp1779
VComedy
p1780
aVShort
p1781
asVtrailer
p1782
(lp1783
sVmetadata
p1784
(dp1785
Vasp_retio
p1786
V1.33 : 1
p1787
sVsound_mix
p1788
(lp1789
VSilent
p1790
asVgross
p1791
g3
sVcountries
p1792
(lp1793
VUSA
p1794
asVbudget
p1795
g3
sVlanguages
p1796
(lp1797
VEnglish
p1798
asVfilming_locations
p1799
(lp1800
sValso_known_as
p1801
(lp1802
VUn d&#233;guisement mal choisi
p1803
assa(dp1804
Vrating
p1805
g3
sVdescription
p1806
g3
sVtitle
p1807
VThe Side Show
p1808
sVurl
p1809
(dp1810
Vurl
p1811
Vhttp://www.imdb.com/title/tt9614
p1812
ssVposter
p1813
(dp1814
Vlarge
p1815
Vhttp://ia.media-imdb.com/images/G/01/imdb/images/logos/imdb_fb_logo-1730868325._CB514892123_.png_V1_.jpg
p1816
sVthumb
p1817
g3
ssVrelease_date
p1818
V1918-10-13
p1819
sVcontent_rating
p1820
g3
sVoriginal_title
p1821
g3
sVwriters
p1822
(lp1823
VBud Fisher
p1824
asVimdb_id
p1825
Vtt0009614
p1826
sVdirector
p1827
VBud Fisher
p1828
sVcast
p1829
(lp1830
sVlength
p1831
g3
sVrating_count
p1832
g3
sVstoryline
p1833
g3
sVstars
p1834
(lp1835
sVyear
p1836
V1918
p1837
sVgenre
p1838
(lp1839
VAnimation
p1840
aVComedy
p1841
aVShort
p1842
asVtrailer
p1843
(lp1844
sVmetadata
p1845
(dp1846
Vasp_retio
p1847
V1.33 : 1
p1848
sVsound_mix
p1849
(lp1850
VSilent
p1851
asVgross
p1852
g3
sVcountries
p1853
(lp1854
VUSA
p1855
asVbudget
p1856
g3
sVlanguages
p1857
(lp1858
sVfilming_locations
p1859
(lp1860
sValso_known_as
p1861
(lp1862
ssa(dp1863
Vrating
p1864
g3
sVdescription
p1865
g3
sVtitle
p1866
VThe Sign Invisible
p1867
sVurl
p1868
(dp1869
Vurl
p1870
Vhttp://www.imdb.com/title/tt9615
p1871
ssVposter
p1872
(dp1873
Vlarge
p1874
Vhttps://images-na.ssl-images-amazon.com/images/M/MV5BMTQ2NTMzMTgyN15BMl5BanBnXkFtZTgwMjE2NTQzMjE@._V1_.jpg
p1875
sVthumb
p1876
Vhttps://images-na.ssl-images-amazon.com/images/M/MV5BMTQ2NTMzMTgyN15BMl5BanBnXkFtZTgwMjE2NTQzMjE@._V1_UX182_CR0,0,182,268_AL_.jpg
p1877
ssVrelease_date
p1878
V1918-03
p1879
sVcontent_rating
p1880
g3
sVoriginal_title
p1881
g3
sVwriters
p1882
(lp1883
VAnthony Paul Kelly
p1884
asVimdb_id
p1885
Vtt0009615
p1886
sVdirector
p1887
VEdgar Lewis
p1888
sVcast
p1889
(lp1890
(dp1891
Vlink
p1892
Vhttp://www.imdb.com/name/nm0507568/?ref_=tt_cl_t1
p1893
sVimage
p1894
g3
sVcharacter
p1895
VLone Deer
p1896
sVname
p1897
VMitchell Lewis
p1898
sa(dp1899
Vlink
p1900
Vhttp://www.imdb.com/name/nm0840178/?ref_=tt_cl_t2
p1901
sVimage
p1902
g3
sVcharacter
p1903
VDr. Robert Winston
p1904
sVname
p1905
VVictor Sutherland
p1906
sa(dp1907
Vlink
p1908
Vhttp://www.imdb.com/name/nm0931935/?ref_=tt_cl_t3
p1909
sVimage
p1910
Vhttps://images-na.ssl-images-amazon.com/images/M/MV5BYmJiNjY4ODctODg0Mi00ZDBhLTg4ZGEtZTgwNGNmZDZhZjQxXkEyXkFqcGdeQXVyMzI5NDcxNzI@._V1_UY44_CR1,0,32,44_AL_.jpg
p1911
sVcharacter
p1912
VReverend Rene Mercier
p1913
sVname
p1914
VWilliam A. Williams
p1915
sa(dp1916
Vlink
p1917
Vhttp://www.imdb.com/name/nm0741852/?ref_=tt_cl_t4
p1918
sVimage
p1919
g3
sVcharacter
p1920
VLou Baribeau       (as Edward F. Roseman)
p1921
sVname
p1922
VEdward Roseman
p1923
sa(dp1924
Vlink
p1925
Vhttp://www.imdb.com/name/nm0779530/?ref_=tt_cl_t5
p1926
sVimage
p1927
Vhttps://images-na.ssl-images-amazon.com/images/M/MV5BNmRkOGRmOGMtYTIxMy00NzU2LWIwNmEtNmQ4NTJjOTc3Y2YyXkEyXkFqcGdeQXVyMzI5NDcxNzI@._UY317_CR16,0,214,317_AL_.jpg
p1928
sVcharacter
p1929
VJeanette Mercier
p1930
sVname
p1931
VMabel Julienne Scott
p1932
sa(dp1933
Vlink
p1934
Vhttp://www.imdb.com/name/nm0636763/?ref_=tt_cl_t6
p1935
sVimage
p1936
g3
sVcharacter
p1937
VWinona
p1938
sVname
p1939
VHedda Nova
p1940
sa(dp1941
Vlink
p1942
Vhttp://www.imdb.com/name/nm0762594/?ref_=tt_cl_t7
p1943
sVimage
p1944
g3
sVcharacter
p1945
VMonihan
p1946
sVname
p1947
VPhil Sanford
p1948
sa(dp1949
Vlink
p1950
Vhttp://www.imdb.com/name/nm0150263/?ref_=tt_cl_t8
p1951
sVimage
p1952
g3
sVcharacter
p1953
VPierre
p1954
sVname
p1955
VRay Chamberlin
p1956
sa(dp1957
Vlink
p1958
Vhttp://www.imdb.com/name/nm0146957/?ref_=tt_cl_t9
p1959
sVimage
p1960
g3
sVcharacter
p1961
VChin Loo       (as William H. Cavanaugh)
p1962
sVname
p1963
VWilliam Cavanaugh
p1964
sa(dp1965
Vlink
p1966
Vhttp://www.imdb.com/name/nm0380241/?ref_=tt_cl_t10
p1967
sVimage
p1968
g3
sVcharacter
p1969
VBad Nose
p1970
sVname
p1971
VJoseph Heron
p1972
sa(dp1973
Vlink
p1974
Vhttp://www.imdb.com/name/nm0585627/?ref_=tt_cl_t11
p1975
sVimage
p1976
g3
sVcharacter
p1977
VTowanah
p1978
sVname
p1979
VRoy Midland
p1980
sa(dp1981
Vlink
p1982
Vhttp://www.imdb.com/name/nm0139794/?ref_=tt_cl_t12
p1983
sVimage
p1984
Vhttps://images-na.ssl-images-amazon.com/images/M/MV5BNmYyYjk2NTMtNTQzYy00NTFkLTk4ZmUtODc3OWI3Mjc2MTE1XkEyXkFqcGdeQXVyMzI5NDcxNzI@._UY317_CR16,0,214,317_AL_.jpg
p1985
sVcharacter
p1986
VMrs. Winston       (as Mary Kennevan Carr)
p1987
sVname
p1988
VMary Carr
p1989
sasVlength
p1990
g3
sVrating_count
p1991
g3
sVstoryline
p1992
g3
sVstars
p1993
(lp1994
VMitchell Lewis
p1995
aVVictor Sutherland
p1996
aVWilliam A. Williams
p1997
asVyear
p1998
V1918
p1999
sVgenre
p2000
(lp2001
VDrama
p2002
asVtrailer
p2003
(lp2004
sVmetadata
p2005
(dp2006
Vasp_retio
p2007
V1.33 : 1
p2008
sVsound_mix
p2009
(lp2010
VSilent
p2011
asVgross
p2012
g3
sVcountries
p2013
(lp2014
VUSA
p2015
asVbudget
p2016
g3
sVlanguages
p2017
(lp2018
VEnglish
p2019
asVfilming_locations
p2020
(lp2021
VLake George
p2022
aVNew York
p2023
aVUSA
p2024
asValso_known_as
p2025
(lp2026
ssa(dp2027
Vrating
p2028
g3
sVdescription
p2029
g3
sVtitle
p2030
VSignal
p2031
sVurl
p2032
(dp2033
Vurl
p2034
Vhttp://www.imdb.com/title/tt9616
p2035
ssVposter
p2036
(dp2037
Vlarge
p2038
Vhttp://ia.media-imdb.com/images/G/01/imdb/images/logos/imdb_fb_logo-1730868325._CB514892123_.png_V1_.jpg
p2039
sVthumb
p2040
g3
ssVrelease_date
p2041
g3
sVcontent_rating
p2042
g3
sVoriginal_title
p2043
g3
sVwriters
p2044
(lp2045
VVsevolod Garshin
p2046
asVimdb_id
p2047
Vtt0009616
p2048
sVdirector
p2049
VAleksandr Arkatov
p2050
sVcast
p2051
(lp2052
sVlength
p2053
g3
sVrating_count
p2054
g3
sVstoryline
p2055
g3
sVstars
p2056
(lp2057
sVyear
p2058
V1918
p2059
sVgenre
p2060
(lp2061
sVtrailer
p2062
(lp2063
sVmetadata
p2064
(dp2065
Vasp_retio
p2066
g3
sVsound_mix
p2067
(lp2068
VSilent
p2069
asVgross
p2070
g3
sVcountries
p2071
(lp2072
VRussia
p2073
asVbudget
p2074
g3
sVlanguages
p2075
(lp2076
sVfilming_locations
p2077
(lp2078
sValso_known_as
p2079
(lp2080
V&#1057;&#1080;&#1075;&#1085;&#1072;&#1083;
p2081
assa(dp2082
Vrating
p2083
g3
sVdescription
p2084
g3
sVtitle
p2085
g3
sVurl
p2086
(dp2087
Vurl
p2088
Vhttp://www.imdb.com/title/tt9617
p2089
ssVposter
p2090
(dp2091
Vlarge
p2092
V_V1_.jpg
p2093
sVthumb
p2094
g3
ssVrelease_date
p2095
g3
sVcontent_rating
p2096
g3
sVoriginal_title
p2097
g3
sVwriters
p2098
(lp2099
sVimdb_id
p2100
g3
sVdirector
p2101
g3
sVcast
p2102
(lp2103
sVlength
p2104
g3
sVrating_count
p2105
g3
sVstoryline
p2106
g3
sVstars
p2107
(lp2108
sVyear
p2109
g3
sVgenre
p2110
(lp2111
sVtrailer
p2112
(lp2113
sVmetadata
p2114
(dp2115
Vasp_retio
p2116
g3
sVsound_mix
p2117
(lp2118
sVgross
p2119
g3
sVcountries
p2120
(lp2121
sVbudget
p2122
g3
sVlanguages
p2123
(lp2124
sVfilming_locations
p2125
(lp2126
sValso_known_as
p2127
(lp2128
ssa(dp2129
Vrating
p2130
g3
sVdescription
p2131
g3
sVtitle
p2132
VThe Silent Woman
p2133
sVurl
p2134
(dp2135
Vurl
p2136
Vhttp://www.imdb.com/title/tt9618
p2137
ssVposter
p2138
(dp2139
Vlarge
p2140
Vhttps://images-na.ssl-images-amazon.com/images/M/MV5BOWU5ZTk0NGYtYmM2My00YWMxLTg3NjktNDBiZjUwNzIzNTIwXkEyXkFqcGdeQXVyMjUxODE0MDY@._V1_.jpg
p2141
sVthumb
p2142
Vhttps://images-na.ssl-images-amazon.com/images/M/MV5BOWU5ZTk0NGYtYmM2My00YWMxLTg3NjktNDBiZjUwNzIzNTIwXkEyXkFqcGdeQXVyMjUxODE0MDY@._V1_UX182_CR0,0,182,268_AL_.jpg
p2143
ssVrelease_date
p2144
V1918-09-02
p2145
sVcontent_rating
p2146
g3
sVoriginal_title
p2147
g3
sVwriters
p2148
(lp2149
VKatharine Kavanaugh
p2150
aVJune Mathis
p2151
asVimdb_id
p2152
Vtt0009618
p2153
sVdirector
p2154
VHerbert Blach
p2155
sVcast
p2156
(lp2157
(dp2158
Vlink
p2159
Vhttp://www.imdb.com/name/nm0832458/?ref_=tt_cl_t1
p2160
sVimage
p2161
Vhttps://images-na.ssl-images-amazon.com/images/M/MV5BZGVmZmVkNDAtYWE3NC00MjljLThmODctZWJhMDMzYTNiYmRhL2ltYWdlL2ltYWdlXkEyXkFqcGdeQXVyMzI5NDcxNzI@._V1_UY44_CR0,0,32,44_AL_.jpg
p2162
sVcharacter
p2163
VNan McDonald
p2164
sVname
p2165
VEdith Storey
p2166
sa(dp2167
Vlink
p2168
Vhttp://www.imdb.com/name/nm0589995/?ref_=tt_cl_t2
p2169
sVimage
p2170
Vhttps://images-na.ssl-images-amazon.com/images/M/MV5BNTQyMDlkNzMtMWMzNS00OWM5LTkzNGMtMTRiZThlOGRjMzE0XkEyXkFqcGdeQXVyMzI5NDcxNzI@._V1_UY44_CR1,0,32,44_AL_.jpg
p2171
sVcharacter
p2172
VJohn Lowery
p2173
sVname
p2174
VFrank Mills
p2175
sa(dp2176
Vlink
p2177
Vhttp://www.imdb.com/name/nm0453059/?ref_=tt_cl_t3
p2178
sVimage
p2179
Vhttps://images-na.ssl-images-amazon.com/images/M/MV5BYWYyNGExNTItYmQ1OC00OTYyLThhMmYtNmM4YzhkOTZhMWE2XkEyXkFqcGdeQXVyMzI5NDcxNzI@._V1_UY44_CR0,0,32,44_AL_.jpg
p2180
sVcharacter
p2181
VClifford Beresford
p2182
sVname
p2183
VJoseph Kilgour
p2184
sa(dp2185
Vlink
p2186
Vhttp://www.imdb.com/name/nm0504144/?ref_=tt_cl_t4
p2187
sVimage
p2188
Vhttps://images-na.ssl-images-amazon.com/images/M/MV5BYmRlZDU3Y2MtNjQ4OS00MjM1LThlZjQtYjhmNjg3MTVlM2Y2L2ltYWdlL2ltYWdlXkEyXkFqcGdeQXVyMzI5NDcxNzI@._V1_UY44_CR12,0,32,44_AL_.jpg
p2189
sVcharacter
p2190
VMary Lowery       (as Lilie Leslie)
p2191
sVname
p2192
VLila Leslie
p2193
sa(dp2194
Vlink
p2195
Vhttp://www.imdb.com/name/nm0116050/?ref_=tt_cl_t5
p2196
sVimage
p2197
g3
sVcharacter
p2198
VMrs. Elton
p2199
sVname
p2200
VMathilde Brundage
p2201
sa(dp2202
Vlink
p2203
Vhttp://www.imdb.com/name/nm0911391/?ref_=tt_cl_t6
p2204
sVimage
p2205
g3
sVcharacter
p2206
VLittle Billy
p2207
sVname
p2208
VBaby Ivy Ward
p2209
sa(dp2210
Vlink
p2211
Vhttp://www.imdb.com/name/nm0828421/?ref_=tt_cl_t7
p2212
sVimage
p2213
g3
sVcharacter
p2214
VDoctor
p2215
sVname
p2216
VGeorge Stevens
p2217
sa(dp2218
Vlink
p2219
Vhttp://www.imdb.com/name/nm0848437/?ref_=tt_cl_t8
p2220
sVimage
p2221
g3
sVcharacter
p2222
VServant
p2223
sVname
p2224
VT. Tamamoto
p2225
sa(dp2226
Vlink
p2227
Vhttp://www.imdb.com/name/nm0674976/?ref_=tt_cl_t9
p2228
sVimage
p2229
g3
sVcharacter
p2230
VMaid
p2231
sVname
p2232
VAugusta Perry
p2233
sa(dp2234
Vlink
p2235
Vhttp://www.imdb.com/name/nm0513167/?ref_=tt_cl_t10
p2236
sVimage
p2237
g3
sVcharacter
p2238
VLumberjack
p2239
sVname
p2240
VHarry Linson
p2241
sa(dp2242
Vlink
p2243
Vhttp://www.imdb.com/name/nm0907546/?ref_=tt_cl_t11
p2244
sVimage
p2245
g3
sVcharacter
p2246
VLumberjack
p2247
sVname
p2248
VBen Walker
p2249
sa(dp2250
Vlink
p2251
Vhttp://www.imdb.com/name/nm0169865/?ref_=tt_cl_t12
p2252
sVimage
p2253
g3
sVcharacter
p2254
VLumberjack
p2255
sVname
p2256
VJohn Cohill
p2257
sasVlength
p2258
g3
sVrating_count
p2259
g3
sVstoryline
p2260
g3
sVstars
p2261
(lp2262
VEdith Storey
p2263
aVFrank Mills
p2264
aVJoseph Kilgour
p2265
asVyear
p2266
V1918
p2267
sVgenre
p2268
(lp2269
VDrama
p2270
asVtrailer
p2271
(lp2272
sVmetadata
p2273
(dp2274
Vasp_retio
p2275
V1.33 : 1
p2276
sVsound_mix
p2277
(lp2278
VSilent
p2279
asVgross
p2280
g3
sVcountries
p2281
(lp2282
VUSA
p2283
asVbudget
p2284
g3
sVlanguages
p2285
(lp2286
VEnglish
p2287
asVfilming_locations
p2288
(lp2289
sValso_known_as
p2290
(lp2291
VShadow and Substance
p2292
assa(dp2293
Vrating
p2294
V6.6
p2295
sVdescription
p2296
VThe true incident of the German U-Boat which torpedoed an Argentine ship to make Argentina declare war on the Allies.
p2297
sVtitle
p2298
VSin dejar rastros
p2299
sVurl
p2300
(dp2301
Vurl
p2302
Vhttp://www.imdb.com/title/tt9619
p2303
ssVposter
p2304
(dp2305
Vlarge
p2306
Vhttp://ia.media-imdb.com/images/G/01/imdb/images/logos/imdb_fb_logo-1730868325._CB514892123_.png_V1_.jpg
p2307
sVthumb
p2308
g3
ssVrelease_date
p2309
g3
sVcontent_rating
p2310
g3
sVoriginal_title
p2311
g3
sVwriters
p2312
(lp2313
sVimdb_id
p2314
Vtt0009619
p2315
sVdirector
p2316
VQuirino Cristiani
p2317
sVcast
p2318
(lp2319
sVlength
p2320
g3
sVrating_count
p2321
V5
p2322
sVstoryline
p2323
VThe true incident of the German U-Boat which torpedoed an Argentine ship to make Argentina declare war on the Allies.
p2324
sVstars
p2325
(lp2326
sVyear
p2327
V1918
p2328
sVgenre
p2329
(lp2330
VAnimation
p2331
asVtrailer
p2332
(lp2333
sVmetadata
p2334
(dp2335
Vasp_retio
p2336
g3
sVsound_mix
p2337
(lp2338
VSilent
p2339
asVgross
p2340
g3
sVcountries
p2341
(lp2342
VArgentina
p2343
asVbudget
p2344
g3
sVlanguages
p2345
(lp2346
VNone
p2347
asVfilming_locations
p2348
(lp2349
sValso_known_as
p2350
(lp2351
ssa(dp2352
Vrating
p2353
g3
sVdescription
p2354
g3
sVtitle
p2355
g3
sVurl
p2356
(dp2357
Vurl
p2358
Vhttp://www.imdb.com/title/tt9620
p2359
ssVposter
p2360
(dp2361
Vlarge
p2362
V_V1_.jpg
p2363
sVthumb
p2364
g3
ssVrelease_date
p2365
g3
sVcontent_rating
p2366
g3
sVoriginal_title
p2367
g3
sVwriters
p2368
(lp2369
sVimdb_id
p2370
g3
sVdirector
p2371
g3
sVcast
p2372
(lp2373
sVlength
p2374
g3
sVrating_count
p2375
g3
sVstoryline
p2376
g3
sVstars
p2377
(lp2378
sVyear
p2379
g3
sVgenre
p2380
(lp2381
sVtrailer
p2382
(lp2383
sVmetadata
p2384
(dp2385
Vasp_retio
p2386
g3
sVsound_mix
p2387
(lp2388
sVgross
p2389
g3
sVcountries
p2390
(lp2391
sVbudget
p2392
g3
sVlanguages
p2393
(lp2394
sVfilming_locations
p2395
(lp2396
sValso_known_as
p2397
(lp2398
ssa(dp2399
Vrating
p2400
g3
sVdescription
p2401
VSusan Allenby's ( Enid Markey ) father is killed during a robbery staged by Bannack's corrupt sheriff, Tom Slade, and his men, leaving the girl to care for her eight brothers and sisters. ...\u000a                    See full summary
p2402
sVtitle
p2403
VSix Shooter Andy
p2404
sVurl
p2405
(dp2406
Vurl
p2407
Vhttp://www.imdb.com/title/tt9621
p2408
ssVposter
p2409
(dp2410
Vlarge
p2411
Vhttp://ia.media-imdb.com/images/G/01/imdb/images/logos/imdb_fb_logo-1730868325._CB514892123_.png_V1_.jpg
p2412
sVthumb
p2413
g3
ssVrelease_date
p2414
V1918-02-24
p2415
sVcontent_rating
p2416
g3
sVoriginal_title
p2417
g3
sVwriters
p2418
(lp2419
VBernard McConville
p2420
asVimdb_id
p2421
Vtt0009621
p2422
sVdirector
p2423
VSidney Franklin
p2424
sVcast
p2425
(lp2426
(dp2427
Vlink
p2428
Vhttp://www.imdb.com/name/nm0940437/?ref_=tt_cl_t1
p2429
sVimage
p2430
Vhttps://images-na.ssl-images-amazon.com/images/M/MV5BMTllMGE0YTAtMmRmZC00ZjQ1LTg5MTAtZDcwNjIyYTE2YTI1XkEyXkFqcGdeQXVyMTk2MzI2Ng@@._V1_UY44_CR13,0,32,44_AL_.jpg
p2431
sVcharacter
p2432
VWilliam Crawford
p2433
sVname
p2434
VBert Woodruff
p2435
sa(dp2436
Vlink
p2437
Vhttp://www.imdb.com/name/nm0208659/?ref_=tt_cl_t2
p2438
sVimage
p2439
Vhttps://images-na.ssl-images-amazon.com/images/M/MV5BZTI3ODVmMTItOTJhMy00YWQ1LWEyNDQtNDQ1NDRhZmViMThhL2ltYWdlL2ltYWdlXkEyXkFqcGdeQXVyMzI5NDcxNzI@._V1_UY44_CR0,0,32,44_AL_.jpg
p2440
sVcharacter
p2441
VTom Slade
p2442
sVname
p2443
VSam De Grasse
p2444
sa(dp2445
Vlink
p2446
Vhttp://www.imdb.com/name/nm0828314/?ref_=tt_cl_t3
p2447
sVimage
p2448
Vhttps://images-na.ssl-images-amazon.com/images/M/MV5BNjYyYjVmNDYtODc5ZC00MjFhLWI5MWMtZjU0ZjVhMzYzYjVkXkEyXkFqcGdeQXVyMDMxMjQwMw@@._V1_UY44_CR1,0,32,44_AL_.jpg
p2449
sVcharacter
p2450
VMexican John
p2451
sVname
p2452
VCharles Stevens
p2453
sa(dp2454
Vlink
p2455
Vhttp://www.imdb.com/name/nm0159643/?ref_=tt_cl_t4
p2456
sVimage
p2457
g3
sVcharacter
p2458
VNed Skinner       (as Pat Crisman)
p2459
sVname
p2460
VPat Chrisman
p2461
sa(dp2462
Vlink
p2463
Vhttp://www.imdb.com/name/nm0281609/?ref_=tt_cl_t5
p2464
sVimage
p2465
g3
sVcharacter
p2466
VWhiskey Bill
p2467
sVname
p2468
VBob Fleming
p2469
sa(dp2470
Vlink
p2471
Vhttp://www.imdb.com/name/nm0548402/?ref_=tt_cl_t6
p2472
sVimage
p2473
g3
sVcharacter
p2474
VSusan Allenby
p2475
sVname
p2476
VEnid Markey
p2477
sa(dp2478
Vlink
p2479
Vhttp://www.imdb.com/name/nm0686560/?ref_=tt_cl_t7
p2480
sVimage
p2481
g3
sVcharacter
p2482
VCy Gallagher
p2483
sVname
p2484
VJack Plank
p2485
sa(dp2486
Vlink
p2487
Vhttp://www.imdb.com/name/nm0358433/?ref_=tt_cl_t8
p2488
sVimage
p2489
g3
sVcharacter
p2490
VAllenby
p2491
sVname
p2492
VBen Hammer
p2493
sa(dp2494
Vlink
p2495
Vhttp://www.imdb.com/name/nm0831891/?ref_=tt_cl_t9
p2496
sVimage
p2497
Vhttps://images-na.ssl-images-amazon.com/images/M/MV5BY2I4OGI2MDUtYjdkNC00ZWQ1LWI2YzYtOTA2NTAyNmY5N2RmXkEyXkFqcGdeQXVyMzI5NDcxNzI@._V1_UY44_CR1,0,32,44_AL_.jpg
p2498
sVcharacter
p2499
VSusan's Brother
p2500
sVname
p2501
VGeorgie Stone
p2502
sa(dp2503
Vlink
p2504
Vhttp://www.imdb.com/name/nm0765125/?ref_=tt_cl_t10
p2505
sVimage
p2506
g3
sVcharacter
p2507
VUndetermined Child Role
p2508
sVname
p2509
VLewis Sargent
p2510
sa(dp2511
Vlink
p2512
Vhttp://www.imdb.com/name/nm0582209/?ref_=tt_cl_t11
p2513
sVimage
p2514
g3
sVcharacter
p2515
VUndetermined Child Role       (as Buddy Messenger)
p2516
sVname
p2517
VBuddy Messinger
p2518
sa(dp2519
Vlink
p2520
Vhttp://www.imdb.com/name/nm0179247/?ref_=tt_cl_t12
p2521
sVimage
p2522
Vhttps://images-na.ssl-images-amazon.com/images/M/MV5BYzdiZjJjODQtM2E0NC00MGQ0LTgzOWYtNTVjNWU5ZDk5MjYxL2ltYWdlL2ltYWdlXkEyXkFqcGdeQXVyMDMxMjQwMw@@._UY317_CR16,0,214,317_AL_.jpg
p2523
sVcharacter
p2524
VUndetermined Child Role
p2525
sVname
p2526
VVirginia Lee Corbin
p2527
sa(dp2528
Vlink
p2529
Vhttp://www.imdb.com/name/nm0705379/?ref_=tt_cl_t13
p2530
sVimage
p2531
g3
sVcharacter
p2532
VUndetermined Child Role
p2533
sVname
p2534
VViolet Radcliffe
p2535
sa(dp2536
Vlink
p2537
Vhttp://www.imdb.com/name/nm0122581/?ref_=tt_cl_t14
p2538
sVimage
p2539
g3
sVcharacter
p2540
VUndetermined Child Role
p2541
sVname
p2542
VBeulah Burns
p2543
sa(dp2544
Vlink
p2545
Vhttp://www.imdb.com/name/nm0498063/?ref_=tt_cl_t15
p2546
sVimage
p2547
g3
sVcharacter
p2548
VUndetermined Child Role       (as Ray Lee)
p2549
sVname
p2550
VRaymond Lee
p2551
sasVlength
p2552
V50
p2553
sVrating_count
p2554
g3
sVstoryline
p2555
VSusan Allenby's ( Enid Markey ) father is killed during a robbery staged by Bannack's corrupt sheriff, Tom Slade, and his men, leaving the girl to care for her eight brothers and sisters. Andy Crawford and his father William take the orphans in, but after Andy's father is killed, the young prospector vows to avenge his death and clean up the town. Learning that Slade's deputy, Ned Skinner, is his father's murderer, Andy orders his arrest, but Slade ignores Andy, who finally kills Skinner in a duel. While Andy's vigilante committee is searching for the outlaws who held up the stage, Slade imprisons Susan in the saloon. Informed of the kidnapping by the children, Andy returns and rescues her, killing Slade in the process. The appreciative townspeople then name Andy the new sheriff, and Susan happily agrees to become his wife.
p2556
sVstars
p2557
(lp2558
VBert Woodruff
p2559
aVSam De Grasse
p2560
aVCharles Stevens
p2561
asVyear
p2562
V1918
p2563
sVgenre
p2564
(lp2565
VWestern
p2566
asVtrailer
p2567
(lp2568
sVmetadata
p2569
(dp2570
Vasp_retio
p2571
V1.33 : 1
p2572
sVsound_mix
p2573
(lp2574
VSilent
p2575
asVgross
p2576
g3
sVcountries
p2577
(lp2578
VUSA
p2579
asVbudget
p2580
g3
sVlanguages
p2581
(lp2582
sVfilming_locations
p2583
(lp2584
sValso_known_as
p2585
(lp2586
VAjustando as Contas
p2587
assa(dp2588
Vrating
p2589
g3
sVdescription
p2590
g3
sVtitle
p2591
g3
sVurl
p2592
(dp2593
Vurl
p2594
Vhttp://www.imdb.com/title/tt9622
p2595
ssVposter
p2596
(dp2597
Vlarge
p2598
V_V1_.jpg
p2599
sVthumb
p2600
g3
ssVrelease_date
p2601
g3
sVcontent_rating
p2602
g3
sVoriginal_title
p2603
g3
sVwriters
p2604
(lp2605
sVimdb_id
p2606
g3
sVdirector
p2607
g3
sVcast
p2608
(lp2609
sVlength
p2610
g3
sVrating_count
p2611
g3
sVstoryline
p2612
g3
sVstars
p2613
(lp2614
sVyear
p2615
g3
sVgenre
p2616
(lp2617
sVtrailer
p2618
(lp2619
sVmetadata
p2620
(dp2621
Vasp_retio
p2622
g3
sVsound_mix
p2623
(lp2624
sVgross
p2625
g3
sVcountries
p2626
(lp2627
sVbudget
p2628
g3
sVlanguages
p2629
(lp2630
sVfilming_locations
p2631
(lp2632
sValso_known_as
p2633
(lp2634
ssa(dp2635
Vrating
p2636
g3
sVdescription
p2637
g3
sVtitle
p2638
VSliakot bulvarnaia
p2639
sVurl
p2640
(dp2641
Vurl
p2642
Vhttp://www.imdb.com/title/tt9623
p2643
ssVposter
p2644
(dp2645
Vlarge
p2646
Vhttp://ia.media-imdb.com/images/G/01/imdb/images/logos/imdb_fb_logo-1730868325._CB514892123_.png_V1_.jpg
p2647
sVthumb
p2648
g3
ssVrelease_date
p2649
g3
sVcontent_rating
p2650
g3
sVoriginal_title
p2651
g3
sVwriters
p2652
(lp2653
sVimdb_id
p2654
Vtt0009623
p2655
sVdirector
p2656
g3
sVcast
p2657
(lp2658
sVlength
p2659
g3
sVrating_count
p2660
g3
sVstoryline
p2661
g3
sVstars
p2662
(lp2663
sVyear
p2664
V1918
p2665
sVgenre
p2666
(lp2667
sVtrailer
p2668
(lp2669
sVmetadata
p2670
(dp2671
Vasp_retio
p2672
V1.33 : 1
p2673
sVsound_mix
p2674
(lp2675
VSilent
p2676
asVgross
p2677
g3
sVcountries
p2678
(lp2679
VRussia
p2680
asVbudget
p2681
g3
sVlanguages
p2682
(lp2683
sVfilming_locations
p2684
(lp2685
sValso_known_as
p2686
(lp2687
VViale melmoso
p2688
assa(dp2689
Vrating
p2690
g3
sVdescription
p2691
g3
sVtitle
p2692
VSmashing Through
p2693
sVurl
p2694
(dp2695
Vurl
p2696
Vhttp://www.imdb.com/title/tt9624
p2697
ssVposter
p2698
(dp2699
Vlarge
p2700
Vhttp://ia.media-imdb.com/images/G/01/imdb/images/logos/imdb_fb_logo-1730868325._CB514892123_.png_V1_.jpg
p2701
sVthumb
p2702
g3
ssVrelease_date
p2703
V1918-06-09
p2704
sVcontent_rating
p2705
g3
sVoriginal_title
p2706
g3
sVwriters
p2707
(lp2708
VWalter Woods
p2709
aVWalter Woods
p2710
asVimdb_id
p2711
Vtt0009624
p2712
sVdirector
p2713
VElmer Clifton
p2714
sVcast
p2715
(lp2716
(dp2717
Vlink
p2718
Vhttp://www.imdb.com/name/nm0712660/?ref_=tt_cl_t1
p2719
sVimage
p2720
Vhttps://images-na.ssl-images-amazon.com/images/M/MV5BNmJkZjhlN2EtYWYzNi00NGE3LTgzMWYtNjFjNGM1MTU1NGViXkEyXkFqcGdeQXVyMzI2MDEwNA@@._V1_UY44_CR2,0,32,44_AL_.jpg
p2721
sVcharacter
p2722
VJack Mason
p2723
sVname
p2724
VHerbert Rawlinson
p2725
sa(dp2726
Vlink
p2727
Vhttp://www.imdb.com/name/nm0366457/?ref_=tt_cl_t2
p2728
sVimage
p2729
Vhttps://images-na.ssl-images-amazon.com/images/M/MV5BMmNlNzE2NTEtNGRhYS00MmNhLTgzYzktYmVmZDlkZmEwZTU4XkEyXkFqcGdeQXVyMDMxMjQwMw@@._V1_UY44_CR6,0,32,44_AL_.jpg
p2730
sVcharacter
p2731
VDave Marco
p2732
sVname
p2733
VNeal Hart
p2734
sa(dp2735
Vlink
p2736
Vhttp://www.imdb.com/name/nm0208659/?ref_=tt_cl_t3
p2737
sVimage
p2738
Vhttps://images-na.ssl-images-amazon.com/images/M/MV5BZTI3ODVmMTItOTJhMy00YWQ1LWEyNDQtNDQ1NDRhZmViMThhL2ltYWdlL2ltYWdlXkEyXkFqcGdeQXVyMzI5NDcxNzI@._V1_UY44_CR0,0,32,44_AL_.jpg
p2739
sVcharacter
p2740
VEarl Foster
p2741
sVname
p2742
VSam De Grasse
p2743
sa(dp2744
Vlink
p2745
Vhttp://www.imdb.com/name/nm0933878/?ref_=tt_cl_t4
p2746
sVimage
p2747
g3
sVcharacter
p2748
VRalph Brandon
p2749
sVname
p2750
VMillard K. Wilson
p2751
sa(dp2752
Vlink
p2753
Vhttp://www.imdb.com/name/nm0823597/?ref_=tt_cl_t5
p2754
sVimage
p2755
Vhttps://images-na.ssl-images-amazon.com/images/M/MV5BYTM2NmI3YmYtMWUzNy00MWY4LWFiNWUtZTg3YzQzNTM2N2MzXkEyXkFqcGdeQXVyMTcyODY2NDQ@._V1_UY44_CR0,0,32,44_AL_.jpg
p2756
sVcharacter
p2757
VHolly Brandon
p2758
sVname
p2759
VSally Starr
p2760
sa(dp2761
Vlink
p2762
Vhttp://www.imdb.com/name/nm0783647/?ref_=tt_cl_t6
p2763
sVimage
p2764
g3
sVcharacter
p2765
VMrs. Brandon
p2766
sVname
p2767
VClarissa Selwynne
p2768
sa(dp2769
Vlink
p2770
Vhttp://www.imdb.com/name/nm0403636/?ref_=tt_cl_t7
p2771
sVimage
p2772
Vhttps://images-na.ssl-images-amazon.com/images/M/MV5BNWYzMGIwMGItYWNiMS00ZDdhLWIwZmQtOWM1MzAyNjU5NzdhXkEyXkFqcGdeQXVyMzI5NDcxNzI@._V1_UY44_CR1,0,32,44_AL_.jpg
p2773
sVcharacter
p2774
VStevens
p2775
sVname
p2776
VPaul Hurst
p2777
sasVlength
p2778
V50
p2779
sVrating_count
p2780
g3
sVstoryline
p2781
g3
sVstars
p2782
(lp2783
VHerbert Rawlinson
p2784
aVNeal Hart
p2785
aVSam De Grasse
p2786
asVyear
p2787
V1918
p2788
sVgenre
p2789
(lp2790
VWestern
p2791
asVtrailer
p2792
(lp2793
sVmetadata
p2794
(dp2795
Vasp_retio
p2796
V1.33 : 1
p2797
sVsound_mix
p2798
(lp2799
VSilent
p2800
asVgross
p2801
g3
sVcountries
p2802
(lp2803
VUSA
p2804
asVbudget
p2805
g3
sVlanguages
p2806
(lp2807
VEnglish
p2808
asVfilming_locations
p2809
(lp2810
VUniversal Studios - 100 Universal City Plaza
p2811
aVUniversal City
p2812
aVCalifornia
p2813
aVUSA
p2814
asValso_known_as
p2815
(lp2816
VThe Love Claim
p2817
assa(dp2818
Vrating
p2819
g3
sVdescription
p2820
g3
sVtitle
p2821
VSo'n kleiner Schwerenter
p2822
sVurl
p2823
(dp2824
Vurl
p2825
Vhttp://www.imdb.com/title/tt9625
p2826
ssVposter
p2827
(dp2828
Vlarge
p2829
Vhttp://ia.media-imdb.com/images/G/01/imdb/images/logos/imdb_fb_logo-1730868325._CB514892123_.png_V1_.jpg
p2830
sVthumb
p2831
g3
ssVrelease_date
p2832
g3
sVcontent_rating
p2833
g3
sVoriginal_title
p2834
g3
sVwriters
p2835
(lp2836
sVimdb_id
p2837
Vtt0009625
p2838
sVdirector
p2839
VWilliam Karfiol
p2840
sVcast
p2841
(lp2842
(dp2843
Vlink
p2844
Vhttp://www.imdb.com/name/nm0415929/?ref_=tt_cl_t1
p2845
sVimage
p2846
g3
sVcharacter
p2847
g3
sVname
p2848
VEugenie Jakobi
p2849
sa(dp2850
Vlink
p2851
Vhttp://www.imdb.com/name/nm0784350/?ref_=tt_cl_t2
p2852
sVimage
p2853
g3
sVcharacter
p2854
g3
sVname
p2855
VRichard Senius
p2856
sa(dp2857
Vlink
p2858
Vhttp://www.imdb.com/name/nm1260592/?ref_=tt_cl_t3
p2859
sVimage
p2860
g3
sVcharacter
p2861
g3
sVname
p2862
VHerr Fuchs
p2863
sa(dp2864
Vlink
p2865
Vhttp://www.imdb.com/name/nm0092290/?ref_=tt_cl_t4
p2866
sVimage
p2867
Vhttps://images-na.ssl-images-amazon.com/images/M/MV5BYWM2NzNmZTctYjJkNi00YjBjLWIyMjgtNjMyMWYxNDZlZmI0XkEyXkFqcGdeQXVyNTk5NzQ5Ng@@._V1_UY44_CR12,0,32,44_AL_.jpg
p2868
sVcharacter
p2869
g3
sVname
p2870
VCurt Bois
p2871
sasVlength
p2872
g3
sVrating_count
p2873
g3
sVstoryline
p2874
g3
sVstars
p2875
(lp2876
VEugenie Jakobi
p2877
aVRichard Senius
p2878
aVHerr Fuchs
p2879
asVyear
p2880
V1918
p2881
sVgenre
p2882
(lp2883
VComedy
p2884
aVShort
p2885
asVtrailer
p2886
(lp2887
sVmetadata
p2888
(dp2889
Vasp_retio
p2890
V1.33 : 1
p2891
sVsound_mix
p2892
(lp2893
VSilent
p2894
asVgross
p2895
g3
sVcountries
p2896
(lp2897
VGermany
p2898
asVbudget
p2899
g3
sVlanguages
p2900
(lp2901
sVfilming_locations
p2902
(lp2903
sValso_known_as
p2904
(lp2905
ssa(dp2906
Vrating
p2907
g3
sVdescription
p2908
g3
sVtitle
p2909
VSocial Briars
p2910
sVurl
p2911
(dp2912
Vurl
p2913
Vhttp://www.imdb.com/title/tt9626
p2914
ssVposter
p2915
(dp2916
Vlarge
p2917
Vhttp://ia.media-imdb.com/images/G/01/imdb/images/logos/imdb_fb_logo-1730868325._CB514892123_.png_V1_.jpg
p2918
sVthumb
p2919
g3
ssVrelease_date
p2920
V1918-05-13
p2921
sVcontent_rating
p2922
g3
sVoriginal_title
p2923
g3
sVwriters
p2924
(lp2925
VJeanne Judson
p2926
aVEdward Sloman
p2927
asVimdb_id
p2928
Vtt0009626
p2929
sVdirector
p2930
VHenry King
p2931
sVcast
p2932
(lp2933
(dp2934
Vlink
p2935
Vhttp://www.imdb.com/name/nm0591704/?ref_=tt_cl_t1
p2936
sVimage
p2937
Vhttps://images-na.ssl-images-amazon.com/images/M/MV5BMTAwOTY5NDQzMDdeQTJeQWpwZ15BbWU2MDIyMTQzNg@@._V1_UY44_CR0,0,32,44_AL_.jpg
p2938
sVcharacter
p2939
VIris Lee
p2940
sVname
p2941
VMary Miles Minter
p2942
sa(dp2943
Vlink
p2944
Vhttp://www.imdb.com/name/nm0286594/?ref_=tt_cl_t2
p2945
sVimage
p2946
g3
sVcharacter
p2947
VJack Andrews
p2948
sVname
p2949
VAllan Forrest
p2950
sa(dp2951
Vlink
p2952
Vhttp://www.imdb.com/name/nm0769584/?ref_=tt_cl_t3
p2953
sVimage
p2954
Vhttps://images-na.ssl-images-amazon.com/images/M/MV5BZWQ1OTQ2MTktNWNjOC00NDJlLWFhMmUtZjY0MWQzMzc1OWE5XkEyXkFqcGdeQXVyMDUyOTUyNQ@@._V1_UY44_CR14,0,32,44_AL_.jpg
p2955
sVcharacter
p2956
VMartha Kane
p2957
sVname
p2958
VAnne Schaefer
p2959
sa(dp2960
Vlink
p2961
Vhttp://www.imdb.com/name/nm0167760/?ref_=tt_cl_t4
p2962
sVimage
p2963
Vhttps://images-na.ssl-images-amazon.com/images/M/MV5BNDdmYzAyYjQtMGU3YS00MGY3LWI4Y2YtMWZhZTk0ZDhhYmZiXkEyXkFqcGdeQXVyMzI5NDcxNzI@._UY317_CR16,0,214,317_AL_.jpg
p2964
sVcharacter
p2965
VJim Kane
p2966
sVname
p2967
VEdmund Cobb
p2968
sa(dp2969
Vlink
p2970
Vhttp://www.imdb.com/name/nm0673814/?ref_=tt_cl_t5
p2971
sVimage
p2972
Vhttps://images-na.ssl-images-amazon.com/images/M/MV5BMWZhMWMxZGQtYTljYi00MjM0LWE3ZmEtNDkzNTRhYzM1YjliXkEyXkFqcGdeQXVyMzI5NDcxNzI@._V1_UY44_CR2,0,32,44_AL_.jpg
p2973
sVcharacter
p2974
VPeter Andrews
p2975
sVname
p2976
VGeorge Periolat
p2977
sa(dp2978
Vlink
p2979
Vhttp://www.imdb.com/name/nm0238855/?ref_=tt_cl_t6
p2980
sVimage
p2981
Vhttps://images-na.ssl-images-amazon.com/images/M/MV5BNjRhYWZlZWItNGVhMy00NWFjLWFmZTMtYTI0YjI3ZTc2YzIxXkEyXkFqcGdeQXVyMzI5NDcxNzI@._V1_UY44_CR2,0,32,44_AL_.jpg
p2982
sVcharacter
p2983
VHelen Manning
p2984
sVname
p2985
VClaire Du Brey
p2986
sa(dp2987
Vlink
p2988
Vhttp://www.imdb.com/name/nm0202633/?ref_=tt_cl_t7
p2989
sVimage
p2990
g3
sVcharacter
p2991
VMrs. Brown
p2992
sVname
p2993
VMilla Davenport
p2994
sa(dp2995
Vlink
p2996
Vhttp://www.imdb.com/name/nm0009186/?ref_=tt_cl_t8
p2997
sVimage
p2998
g3
sVcharacter
p2999
VMr. Brown
p3000
sVname
p3001
VJacob Abrams
p3002
sa(dp3003
Vlink
p3004
Vhttp://www.imdb.com/name/nm0926386/?ref_=tt_cl_t9
p3005
sVimage
p3006
g3
sVcharacter
p3007
VFranklin
p3008
sVname
p3009
VFrank Whitson
p3010
sasVlength
p3011
V50
p3012
sVrating_count
p3013
g3
sVstoryline
p3014
g3
sVstars
p3015
(lp3016
VMary Miles Minter
p3017
aVAllan Forrest
p3018
aVAnne Schaefer
p3019
asVyear
p3020
V1918
p3021
sVgenre
p3022
(lp3023
VComedy
p3024
aVDrama
p3025
asVtrailer
p3026
(lp3027
sVmetadata
p3028
(dp3029
Vasp_retio
p3030
V1.33 : 1
p3031
sVsound_mix
p3032
(lp3033
VSilent
p3034
asVgross
p3035
g3
sVcountries
p3036
(lp3037
VUSA
p3038
asVbudget
p3039
g3
sVlanguages
p3040
(lp3041
sVfilming_locations
p3042
(lp3043
sValso_known_as
p3044
(lp3045
VLilla oskulden
p3046
assa(dp3047
Vrating
p3048
g3
sVdescription
p3049
g3
sVtitle
p3050
g3
sVurl
p3051
(dp3052
Vurl
p3053
Vhttp://www.imdb.com/title/tt9627
p3054
ssVposter
p3055
(dp3056
Vlarge
p3057
V_V1_.jpg
p3058
sVthumb
p3059
g3
ssVrelease_date
p3060
g3
sVcontent_rating
p3061
g3
sVoriginal_title
p3062
g3
sVwriters
p3063
(lp3064
sVimdb_id
p3065
g3
sVdirector
p3066
g3
sVcast
p3067
(lp3068
sVlength
p3069
g3
sVrating_count
p3070
g3
sVstoryline
p3071
g3
sVstars
p3072
(lp3073
sVyear
p3074
g3
sVgenre
p3075
(lp3076
sVtrailer
p3077
(lp3078
sVmetadata
p3079
(dp3080
Vasp_retio
p3081
g3
sVsound_mix
p3082
(lp3083
sVgross
p3084
g3
sVcountries
p3085
(lp3086
sVbudget
p3087
g3
sVlanguages
p3088
(lp3089
sVfilming_locations
p3090
(lp3091
sValso_known_as
p3092
(lp3093
ssa(dp3094
Vrating
p3095
g3
sVdescription
p3096
g3
sVtitle
p3097
g3
sVurl
p3098
(dp3099
Vurl
p3100
Vhttp://www.imdb.com/title/tt9628
p3101
ssVposter
p3102
(dp3103
Vlarge
p3104
V_V1_.jpg
p3105
sVthumb
p3106
g3
ssVrelease_date
p3107
g3
sVcontent_rating
p3108
g3
sVoriginal_title
p3109
g3
sVwriters
p3110
(lp3111
sVimdb_id
p3112
g3
sVdirector
p3113
g3
sVcast
p3114
(lp3115
sVlength
p3116
g3
sVrating_count
p3117
g3
sVstoryline
p3118
g3
sVstars
p3119
(lp3120
sVyear
p3121
g3
sVgenre
p3122
(lp3123
sVtrailer
p3124
(lp3125
sVmetadata
p3126
(dp3127
Vasp_retio
p3128
g3
sVsound_mix
p3129
(lp3130
sVgross
p3131
g3
sVcountries
p3132
(lp3133
sVbudget
p3134
g3
sVlanguages
p3135
(lp3136
sVfilming_locations
p3137
(lp3138
sValso_known_as
p3139
(lp3140
ssa(dp3141
Vrating
p3142
V5.6
p3143
sVdescription
p3144
VA wealthy society playboy falls in love with the daughter of a poor fisherman.
p3145
sVtitle
p3146
VA Society Sensation
p3147
sVurl
p3148
(dp3149
Vurl
p3150
Vhttp://www.imdb.com/title/tt9629
p3151
ssVposter
p3152
(dp3153
Vlarge
p3154
Vhttps://images-na.ssl-images-amazon.com/images/M/MV5BOWVkYWUxOWUtOTA1MS00ZTk2LWExNzQtZjBjMjVkN2I3OTJjXkEyXkFqcGdeQXVyNTM3MDMyMDQ@._V1_.jpg
p3155
sVthumb
p3156
Vhttps://images-na.ssl-images-amazon.com/images/M/MV5BOWVkYWUxOWUtOTA1MS00ZTk2LWExNzQtZjBjMjVkN2I3OTJjXkEyXkFqcGdeQXVyNTM3MDMyMDQ@._V1_UY268_CR9,0,182,268_AL_.jpg
p3157
ssVrelease_date
p3158
V1918-09-23
p3159
sVcontent_rating
p3160
g3
sVoriginal_title
p3161
g3
sVwriters
p3162
(lp3163
VHapsburg Liebe
p3164
asVimdb_id
p3165
Vtt0009629
p3166
sVdirector
p3167
VEdmund Mortimer Paul Powell
p3168
sVcast
p3169
(lp3170
(dp3171
Vlink
p3172
Vhttp://www.imdb.com/name/nm0616659/?ref_=tt_cl_t1
p3173
sVimage
p3174
Vhttps://images-na.ssl-images-amazon.com/images/M/MV5BMjI4MTUyMDcwMl5BMl5BanBnXkFtZTgwMzc2ODY3MTE@._V1._CR134.88333129882812,167.53334045410156,737,986_UY44_CR0,0,32,44_AL_.jpg
p3175
sVcharacter
p3176
VSydney Parmelee
p3177
sVname
p3178
VCarmel Myers
p3179
sa(dp3180
Vlink
p3181
Vhttp://www.imdb.com/name/nm0884388/?ref_=tt_cl_t2
p3182
sVimage
p3183
Vhttps://images-na.ssl-images-amazon.com/images/M/MV5BMTI0Mzg0MjQ5NV5BMl5BanBnXkFtZTYwMzMxMzM2._V1_UY44_CR0,0,32,44_AL_.jpg
p3184
sVcharacter
p3185
VDick Bradley       (as Rudolpho De Valentina)
p3186
sVname
p3187
VRudolph Valentino
p3188
sa(dp3189
Vlink
p3190
Vhttp://www.imdb.com/name/nm0864559/?ref_=tt_cl_t3
p3191
sVimage
p3192
g3
sVcharacter
p3193
VMrs. Jones
p3194
sVname
p3195
VLydia Yeamans Titus
p3196
sa(dp3197
Vlink
p3198
Vhttp://www.imdb.com/name/nm0020251/?ref_=tt_cl_t4
p3199
sVimage
p3200
Vhttps://images-na.ssl-images-amazon.com/images/M/MV5BYTI1ODY5ZDctMGQ2YS00YWM0LWI5NzItYTE5MzllM2E1MTg1XkEyXkFqcGdeQXVyMzI5NDcxNzI@._V1_UY44_CR1,0,32,44_AL_.jpg
p3201
sVcharacter
p3202
VCapt. Parmelee
p3203
sVname
p3204
VAlfred Allen
p3205
sa(dp3206
Vlink
p3207
Vhttp://www.imdb.com/name/nm0447043/?ref_=tt_cl_t5
p3208
sVimage
p3209
Vhttps://images-na.ssl-images-amazon.com/images/M/MV5BMDlmYjgzYzUtMWYxNC00YjMyLWE1NzEtMGU0YmMzOWNmMTZhXkEyXkFqcGdeQXVyMDMxMjQwMw@@._V1_UY44_CR3,0,32,44_AL_.jpg
p3210
sVcharacter
p3211
VJim
p3212
sVname
p3213
VFred Kelsey
p3214
sa(dp3215
Vlink
p3216
Vhttp://www.imdb.com/name/nm0686032/?ref_=tt_cl_t6
p3217
sVimage
p3218
Vhttps://images-na.ssl-images-amazon.com/images/M/MV5BMTUzNzA5MjQzM15BMl5BanBnXkFtZTgwNDE0OTg0MzE@._V1._CR94,138,542,722_UY44_CR0,0,32,44_AL_.jpg
p3219
sVcharacter
p3220
VMary
p3221
sVname
p3222
VZasu Pitts
p3223
sa(dp3224
Vlink
p3225
Vhttp://www.imdb.com/name/nm0329467/?ref_=tt_cl_t7
p3226
sVimage
p3227
Vhttps://images-na.ssl-images-amazon.com/images/M/MV5BZDY2NDQ5ZWMtZTg0Ny00NWIwLTg1ZWEtZTg2Njg5MDQ4ZmNiXkEyXkFqcGdeQXVyMzI5NDcxNzI@._V1_UY44_CR2,0,32,44_AL_.jpg
p3228
sVcharacter
p3229
VTimmy
p3230
sVname
p3231
VHarold Goodwin
p3232
sasVlength
p3233
V24
p3234
sVrating_count
p3235
V48
p3236
sVstoryline
p3237
VA wealthy society playboy falls in love with the daughter of a poor fisherman.
p3238
sVstars
p3239
(lp3240
VCarmel Myers
p3241
aVRudolph Valentino
p3242
aVLydia Yeamans Titus
p3243
asVyear
p3244
V1918
p3245
sVgenre
p3246
(lp3247
VComedy
p3248
aVShort
p3249
aVDrama
p3250
asVtrailer
p3251
(lp3252
sVmetadata
p3253
(dp3254
Vasp_retio
p3255
V1.33 : 1
p3256
sVsound_mix
p3257
(lp3258
VSilent
p3259
asVgross
p3260
g3
sVcountries
p3261
(lp3262
VUSA
p3263
asVbudget
p3264
g3
sVlanguages
p3265
(lp3266
VEnglish
p3267
asVfilming_locations
p3268
(lp3269
VUniversal Studios - 100 Universal City Plaza
p3270
aVUniversal City
p3271
aVCalifornia
p3272
aVUSA
p3273
asValso_known_as
p3274
(lp3275
VAmigos do Esc&#226;ndalo
p3276
assa(dp3277
Vrating
p3278
g3
sVdescription
p3279
g3
sVtitle
p3280
g3
sVurl
p3281
(dp3282
Vurl
p3283
Vhttp://www.imdb.com/title/tt9630
p3284
ssVposter
p3285
(dp3286
Vlarge
p3287
V_V1_.jpg
p3288
sVthumb
p3289
g3
ssVrelease_date
p3290
g3
sVcontent_rating
p3291
g3
sVoriginal_title
p3292
g3
sVwriters
p3293
(lp3294
sVimdb_id
p3295
g3
sVdirector
p3296
g3
sVcast
p3297
(lp3298
sVlength
p3299
g3
sVrating_count
p3300
g3
sVstoryline
p3301
g3
sVstars
p3302
(lp3303
sVyear
p3304
g3
sVgenre
p3305
(lp3306
sVtrailer
p3307
(lp3308
sVmetadata
p3309
(dp3310
Vasp_retio
p3311
g3
sVsound_mix
p3312
(lp3313
sVgross
p3314
g3
sVcountries
p3315
(lp3316
sVbudget
p3317
g3
sVlanguages
p3318
(lp3319
sVfilming_locations
p3320
(lp3321
sValso_known_as
p3322
(lp3323
ssa(dp3324
Vrating
p3325
g3
sVdescription
p3326
g3
sVtitle
p3327
g3
sVurl
p3328
(dp3329
Vurl
p3330
Vhttp://www.imdb.com/title/tt9631
p3331
ssVposter
p3332
(dp3333
Vlarge
p3334
V_V1_.jpg
p3335
sVthumb
p3336
g3
ssVrelease_date
p3337
g3
sVcontent_rating
p3338
g3
sVoriginal_title
p3339
g3
sVwriters
p3340
(lp3341
sVimdb_id
p3342
g3
sVdirector
p3343
g3
sVcast
p3344
(lp3345
sVlength
p3346
g3
sVrating_count
p3347
g3
sVstoryline
p3348
g3
sVstars
p3349
(lp3350
sVyear
p3351
g3
sVgenre
p3352
(lp3353
sVtrailer
p3354
(lp3355
sVmetadata
p3356
(dp3357
Vasp_retio
p3358
g3
sVsound_mix
p3359
(lp3360
sVgross
p3361
g3
sVcountries
p3362
(lp3363
sVbudget
p3364
g3
sVlanguages
p3365
(lp3366
sVfilming_locations
p3367
(lp3368
sValso_known_as
p3369
(lp3370
ssa(dp3371
Vrating
p3372
g3
sVdescription
p3373
g3
sVtitle
p3374
g3
sVurl
p3375
(dp3376
Vurl
p3377
Vhttp://www.imdb.com/title/tt9632
p3378
ssVposter
p3379
(dp3380
Vlarge
p3381
V_V1_.jpg
p3382
sVthumb
p3383
g3
ssVrelease_date
p3384
g3
sVcontent_rating
p3385
g3
sVoriginal_title
p3386
g3
sVwriters
p3387
(lp3388
sVimdb_id
p3389
g3
sVdirector
p3390
g3
sVcast
p3391
(lp3392
sVlength
p3393
g3
sVrating_count
p3394
g3
sVstoryline
p3395
g3
sVstars
p3396
(lp3397
sVyear
p3398
g3
sVgenre
p3399
(lp3400
sVtrailer
p3401
(lp3402
sVmetadata
p3403
(dp3404
Vasp_retio
p3405
g3
sVsound_mix
p3406
(lp3407
sVgross
p3408
g3
sVcountries
p3409
(lp3410
sVbudget
p3411
g3
sVlanguages
p3412
(lp3413
sVfilming_locations
p3414
(lp3415
sValso_known_as
p3416
(lp3417
ssa(dp3418
Vrating
p3419
g3
sVdescription
p3420
g3
sVtitle
p3421
g3
sVurl
p3422
(dp3423
Vurl
p3424
Vhttp://www.imdb.com/title/tt9633
p3425
ssVposter
p3426
(dp3427
Vlarge
p3428
V_V1_.jpg
p3429
sVthumb
p3430
g3
ssVrelease_date
p3431
g3
sVcontent_rating
p3432
g3
sVoriginal_title
p3433
g3
sVwriters
p3434
(lp3435
sVimdb_id
p3436
g3
sVdirector
p3437
g3
sVcast
p3438
(lp3439
sVlength
p3440
g3
sVrating_count
p3441
g3
sVstoryline
p3442
g3
sVstars
p3443
(lp3444
sVyear
p3445
g3
sVgenre
p3446
(lp3447
sVtrailer
p3448
(lp3449
sVmetadata
p3450
(dp3451
Vasp_retio
p3452
g3
sVsound_mix
p3453
(lp3454
sVgross
p3455
g3
sVcountries
p3456
(lp3457
sVbudget
p3458
g3
sVlanguages
p3459
(lp3460
sVfilming_locations
p3461
(lp3462
sValso_known_as
p3463
(lp3464
ssa(dp3465
Vrating
p3466
g3
sVdescription
p3467
g3
sVtitle
p3468
VA Soul for Sale
p3469
sVurl
p3470
(dp3471
Vurl
p3472
Vhttp://www.imdb.com/title/tt9634
p3473
ssVposter
p3474
(dp3475
Vlarge
p3476
Vhttp://ia.media-imdb.com/images/G/01/imdb/images/logos/imdb_fb_logo-1730868325._CB514892123_.png_V1_.jpg
p3477
sVthumb
p3478
g3
ssVrelease_date
p3479
V1918-05-19
p3480
sVcontent_rating
p3481
g3
sVoriginal_title
p3482
g3
sVwriters
p3483
(lp3484
VEvelyn Campbell
p3485
aVElliott J. Clawson
p3486
asVimdb_id
p3487
Vtt0009634
p3488
sVdirector
p3489
VAllen Holubar
p3490
sVcast
p3491
(lp3492
(dp3493
Vlink
p3494
Vhttp://www.imdb.com/name/nm0680368/?ref_=tt_cl_t1
p3495
sVimage
p3496
Vhttps://images-na.ssl-images-amazon.com/images/M/MV5BMTQ5MjQyMDc2Nl5BMl5BanBnXkFtZTgwNjk5ODY3MTE@._V1._CR49.883331298828125,48.53334045410156,1110.7166748046875,1373_UY44_CR2,0,32,44_AL_.jpg
p3497
sVcharacter
p3498
VNeila Pendleton
p3499
sVname
p3500
VDorothy Phillips
p3501
sa(dp3502
Vlink
p3503
Vhttp://www.imdb.com/name/nm0456807/?ref_=tt_cl_t2
p3504
sVimage
p3505
g3
sVcharacter
p3506
VMrs. Pendleton       (as Catherine Kirkwood)
p3507
sVname
p3508
VKatherine Kirkwood
p3509
sa(dp3510
Vlink
p3511
Vhttp://www.imdb.com/name/nm0741182/?ref_=tt_cl_t3
p3512
sVimage
p3513
Vhttps://images-na.ssl-images-amazon.com/images/M/MV5BZDJhMzI2MGMtODk0ZS00ZGVkLWE1YzMtOTAxOWI3ZDg1YTk5XkEyXkFqcGdeQXVyMTk2MzI2Ng@@._V1_UY44_CR11,0,32,44_AL_.jpg
p3514
sVcharacter
p3515
VSteele Minturn       (as Albert Roscoe)
p3516
sVname
p3517
VAlan Roscoe
p3518
sa(dp3519
Vlink
p3520
Vhttp://www.imdb.com/name/nm0123106/?ref_=tt_cl_t4
p3521
sVimage
p3522
g3
sVcharacter
p3523
VHale Faxon
p3524
sVname
p3525
VWilliam Burress
p3526
sa(dp3527
Vlink
p3528
Vhttp://www.imdb.com/name/nm0242349/?ref_=tt_cl_t5
p3529
sVimage
p3530
g3
sVcharacter
p3531
VWilbur Simons
p3532
sVname
p3533
VHarry Dunkinson
p3534
sa(dp3535
Vlink
p3536
Vhttp://www.imdb.com/name/nm0320681/?ref_=tt_cl_t6
p3537
sVimage
p3538
Vhttps://images-na.ssl-images-amazon.com/images/M/MV5BODUzYTkzOTAtN2RmMy00YmVlLWE2MzctNTYwZmY4NjU5YTBhL2ltYWdlL2ltYWdlXkEyXkFqcGdeQXVyMzI5NDcxNzI@._UY317_CR16,0,214,317_AL_.jpg
p3539
sVcharacter
p3540
VGaret Pendleton       (as Joseph Girard)
p3541
sVname
p3542
VJoseph W. Girard
p3543
sasVlength
p3544
V60
p3545
sVrating_count
p3546
g3
sVstoryline
p3547
g3
sVstars
p3548
(lp3549
VDorothy Phillips
p3550
aVKatherine Kirkwood
p3551
aVAlan Roscoe
p3552
asVyear
p3553
V1918
p3554
sVgenre
p3555
(lp3556
VDrama
p3557
asVtrailer
p3558
(lp3559
sVmetadata
p3560
(dp3561
Vasp_retio
p3562
V1.33 : 1
p3563
sVsound_mix
p3564
(lp3565
VSilent
p3566
asVgross
p3567
g3
sVcountries
p3568
(lp3569
VUSA
p3570
asVbudget
p3571
g3
sVlanguages
p3572
(lp3573
VEnglish
p3574
asVfilming_locations
p3575
(lp3576
sValso_known_as
p3577
(lp3578
VUne &#226;me &#224; vendre
p3579
assa(dp3580
Vrating
p3581
g3
sVdescription
p3582
g3
sVtitle
p3583
VA Soul Without Windows
p3584
sVurl
p3585
(dp3586
Vurl
p3587
Vhttp://www.imdb.com/title/tt9635
p3588
ssVposter
p3589
(dp3590
Vlarge
p3591
Vhttp://ia.media-imdb.com/images/G/01/imdb/images/logos/imdb_fb_logo-1730868325._CB514892123_.png_V1_.jpg
p3592
sVthumb
p3593
g3
ssVrelease_date
p3594
V1918-09-30
p3595
sVcontent_rating
p3596
g3
sVoriginal_title
p3597
g3
sVwriters
p3598
(lp3599
VJulia Burnham
p3600
asVimdb_id
p3601
Vtt0009635
p3602
sVdirector
p3603
VTravers Vale
p3604
sVcast
p3605
(lp3606
(dp3607
Vlink
p3608
Vhttp://www.imdb.com/name/nm0165691/?ref_=tt_cl_t1
p3609
sVimage
p3610
Vhttps://images-na.ssl-images-amazon.com/images/M/MV5BMTgyOTg3NDQzNF5BMl5BanBnXkFtZTgwNzQxODY3MTE@._V1._CR29.883331298828125,29.533340454101562,300,440_UX32_CR0,0,32,44_AL_.jpg
p3611
sVcharacter
p3612
VHopama
p3613
sVname
p3614
VEthel Clayton
p3615
sa(dp3616
Vlink
p3617
Vhttp://www.imdb.com/name/nm0562866/?ref_=tt_cl_t2
p3618
sVimage
p3619
Vhttps://images-na.ssl-images-amazon.com/images/M/MV5BMWNkMDNkMTItNGY1NC00OTIzLTg2NjUtZWQ2MTFhNzk0NGU1XkEyXkFqcGdeQXVyMzI5NDcxNzI@._V1_UY44_CR0,0,32,44_AL_.jpg
p3620
sVcharacter
p3621
VScotrt Mallory
p3622
sVname
p3623
VFrank Mayo
p3624
sa(dp3625
Vlink
p3626
Vhttp://www.imdb.com/name/nm0626341/?ref_=tt_cl_t3
p3627
sVimage
p3628
g3
sVcharacter
p3629
VFaith Palmer
p3630
sVname
p3631
VPinna Nesbit
p3632
sa(dp3633
Vlink
p3634
Vhttp://www.imdb.com/name/nm0164964/?ref_=tt_cl_t4
p3635
sVimage
p3636
g3
sVcharacter
p3637
VJoshua
p3638
sVname
p3639
VRichard Clarke
p3640
sa(dp3641
Vlink
p3642
Vhttp://www.imdb.com/name/nm0940922/?ref_=tt_cl_t5
p3643
sVimage
p3644
g3
sVcharacter
p3645
VHannah
p3646
sVname
p3647
VEugenie Woodward
p3648
sa(dp3649
Vlink
p3650
Vhttp://www.imdb.com/name/nm0447855/?ref_=tt_cl_t6
p3651
sVimage
p3652
g3
sVcharacter
p3653
VNehewmiah
p3654
sVname
p3655
VVictor Kennard
p3656
sa(dp3657
Vlink
p3658
Vhttp://www.imdb.com/name/nm0203663/?ref_=tt_cl_t7
p3659
sVimage
p3660
g3
sVcharacter
p3661
VPedro Camillio
p3662
sVname
p3663
VDavid Davies
p3664
sa(dp3665
Vlink
p3666
Vhttp://www.imdb.com/name/nm0686142/?ref_=tt_cl_t8
p3667
sVimage
p3668
Vhttps://images-na.ssl-images-amazon.com/images/M/MV5BNzM1OTdlNGQtZDE0Yi00MGY4LTk4ZjMtNDRmZDA1OWRkOTUyXkEyXkFqcGdeQXVyMzI5NDcxNzI@._V1_UY44_CR1,0,32,44_AL_.jpg
p3669
sVcharacter
p3670
VMurio
p3671
sVname
p3672
VGus Pixley
p3673
sa(dp3674
Vlink
p3675
Vhttp://www.imdb.com/name/nm0120749/?ref_=tt_cl_t9
p3676
sVimage
p3677
g3
sVcharacter
p3678
VMrs. Mallory
p3679
sVname
p3680
VZadee Burbank
p3681
sa(dp3682
Vlink
p3683
Vhttp://www.imdb.com/name/nm0238532/?ref_=tt_cl_t10
p3684
sVimage
p3685
g3
sVcharacter
p3686
VMr. Palmer
p3687
sVname
p3688
VJack Drumier
p3689
sa(dp3690
Vlink
p3691
Vhttp://www.imdb.com/name/nm0731186/?ref_=tt_cl_t11
p3692
sVimage
p3693
g3
sVcharacter
p3694
VGriswold
p3695
sVname
p3696
VJack Roberts
p3697
sa(dp3698
Vlink
p3699
Vhttp://www.imdb.com/name/nm0769729/?ref_=tt_cl_t12
p3700
sVimage
p3701
g3
sVcharacter
p3702
VWoman
p3703
sVname
p3704
VSadie Schaeffer
p3705
sa(dp3706
Vlink
p3707
Vhttp://www.imdb.com/name/nm0043588/?ref_=tt_cl_t13
p3708
sVimage
p3709
g3
sVcharacter
p3710
VGirl       (as Violet Axzell)
p3711
sVname
p3712
VViolet Axzelle
p3713
sa(dp3714
Vlink
p3715
Vhttp://www.imdb.com/name/nm0604679/?ref_=tt_cl_t14
p3716
sVimage
p3717
Vhttps://images-na.ssl-images-amazon.com/images/M/MV5BZmFhZWYzZGItMzkzZi00ZmViLWJkNWYtMjFhYjdhNThmYWMwXkEyXkFqcGdeQXVyMDUyOTUyNQ@@._V1_UY44_CR12,0,32,44_AL_.jpg
p3718
sVcharacter
p3719
VUndetermined Role
p3720
sVname
p3721
VGeorge Morgan
p3722
sasVlength
p3723
g3
sVrating_count
p3724
g3
sVstoryline
p3725
g3
sVstars
p3726
(lp3727
VEthel Clayton
p3728
aVFrank Mayo
p3729
aVPinna Nesbit
p3730
asVyear
p3731
V1918
p3732
sVgenre
p3733
(lp3734
VDrama
p3735
asVtrailer
p3736
(lp3737
sVmetadata
p3738
(dp3739
Vasp_retio
p3740
V1.33 : 1
p3741
sVsound_mix
p3742
(lp3743
VSilent
p3744
asVgross
p3745
g3
sVcountries
p3746
(lp3747
VUSA
p3748
asVbudget
p3749
g3
sVlanguages
p3750
(lp3751
sVfilming_locations
p3752
(lp3753
sValso_known_as
p3754
(lp3755
VSoul Without Windows
p3756
assa(dp3757
Vrating
p3758
g3
sVdescription
p3759
g3
sVtitle
p3760
VA Soul in Trust
p3761
sVurl
p3762
(dp3763
Vurl
p3764
Vhttp://www.imdb.com/title/tt9636
p3765
ssVposter
p3766
(dp3767
Vlarge
p3768
Vhttp://ia.media-imdb.com/images/G/01/imdb/images/logos/imdb_fb_logo-1730868325._CB514892123_.png_V1_.jpg
p3769
sVthumb
p3770
g3
ssVrelease_date
p3771
V1918-02-24
p3772
sVcontent_rating
p3773
g3
sVoriginal_title
p3774
g3
sVwriters
p3775
(lp3776
VCatherine Carr
p3777
asVimdb_id
p3778
Vtt0009636
p3779
sVdirector
p3780
VGilbert P. Hamilton
p3781
sVcast
p3782
(lp3783
(dp3784
Vlink
p3785
Vhttp://www.imdb.com/name/nm0071602/?ref_=tt_cl_t1
p3786
sVimage
p3787
Vhttps://images-na.ssl-images-amazon.com/images/M/MV5BMTcxMjk4MzAzM15BMl5BanBnXkFtZTgwMzQ0MjI1MzE@._UY317_CR16,0,214,317_AL_.jpg
p3788
sVcharacter
p3789
VCourtney Maitland
p3790
sVname
p3791
VBelle Bennett
p3792
sa(dp3793
Vlink
p3794
Vhttp://www.imdb.com/name/nm0287581/?ref_=tt_cl_t2
p3795
sVimage
p3796
g3
sVcharacter
p3797
VDabney Carter Sr.
p3798
sVname
p3799
VDarrell Foss
p3800
sa(dp3801
Vlink
p3802
Vhttp://www.imdb.com/name/nm0792727/?ref_=tt_cl_t3
p3803
sVimage
p3804
Vhttps://images-na.ssl-images-amazon.com/images/M/MV5BMTc3ZDUxNDktNDI5MC00YTBkLWFjMDctYmZmYTMwZGVhYzk2XkEyXkFqcGdeQXVyMDUyOTUyNQ@@._V1_UY44_CR12,0,32,44_AL_.jpg
p3805
sVcharacter
p3806
VSenator Franklin
p3807
sVname
p3808
VJ. Barney Sherry
p3809
sa(dp3810
Vlink
p3811
Vhttp://www.imdb.com/name/nm0922203/?ref_=tt_cl_t4
p3812
sVimage
p3813
g3
sVcharacter
p3814
VNan Barker
p3815
sVname
p3816
VLillian West
p3817
sa(dp3818
Vlink
p3819
Vhttp://www.imdb.com/name/nm0291146/?ref_=tt_cl_t5
p3820
sVimage
p3821
g3
sVcharacter
p3822
VDabney Carter Jr.
p3823
sVname
p3824
VGrover Franke
p3825
sa(dp3826
Vlink
p3827
Vhttp://www.imdb.com/name/nm0384469/?ref_=tt_cl_t6
p3828
sVimage
p3829
g3
sVcharacter
p3830
VJason Meredith
p3831
sVname
p3832
VLee Hill
p3833
sa(dp3834
Vlink
p3835
Vhttp://www.imdb.com/name/nm0205048/?ref_=tt_cl_t7
p3836
sVimage
p3837
g3
sVcharacter
p3838
VMammy Judy
p3839
sVname
p3840
VLizzie Davis
p3841
sa(dp3842
Vlink
p3843
Vhttp://www.imdb.com/name/nm0245802/?ref_=tt_cl_t8
p3844
sVimage
p3845
g3
sVcharacter
p3846
VGeorge Barker
p3847
sVname
p3848
VWilliam Dyer
p3849
sasVlength
p3850
g3
sVrating_count
p3851
g3
sVstoryline
p3852
g3
sVstars
p3853
(lp3854
VBelle Bennett
p3855
aVDarrell Foss
p3856
aVJ. Barney Sherry
p3857
asVyear
p3858
V1918
p3859
sVgenre
p3860
(lp3861
VDrama
p3862
asVtrailer
p3863
(lp3864
sVmetadata
p3865
(dp3866
Vasp_retio
p3867
V1.33 : 1
p3868
sVsound_mix
p3869
(lp3870
VSilent
p3871
asVgross
p3872
g3
sVcountries
p3873
(lp3874
VUSA
p3875
asVbudget
p3876
g3
sVlanguages
p3877
(lp3878
VEnglish
p3879
asVfilming_locations
p3880
(lp3881
sValso_known_as
p3882
(lp3883
ssa(dp3884
Vrating
p3885
g3
sVdescription
p3886
g3
sVtitle
p3887
g3
sVurl
p3888
(dp3889
Vurl
p3890
Vhttp://www.imdb.com/title/tt9637
p3891
ssVposter
p3892
(dp3893
Vlarge
p3894
V_V1_.jpg
p3895
sVthumb
p3896
g3
ssVrelease_date
p3897
g3
sVcontent_rating
p3898
g3
sVoriginal_title
p3899
g3
sVwriters
p3900
(lp3901
sVimdb_id
p3902
g3
sVdirector
p3903
g3
sVcast
p3904
(lp3905
sVlength
p3906
g3
sVrating_count
p3907
g3
sVstoryline
p3908
g3
sVstars
p3909
(lp3910
sVyear
p3911
g3
sVgenre
p3912
(lp3913
sVtrailer
p3914
(lp3915
sVmetadata
p3916
(dp3917
Vasp_retio
p3918
g3
sVsound_mix
p3919
(lp3920
sVgross
p3921
g3
sVcountries
p3922
(lp3923
sVbudget
p3924
g3
sVlanguages
p3925
(lp3926
sVfilming_locations
p3927
(lp3928
sValso_known_as
p3929
(lp3930
ssa(dp3931
Vrating
p3932
g3
sVdescription
p3933
g3
sVtitle
p3934
g3
sVurl
p3935
(dp3936
Vurl
p3937
Vhttp://www.imdb.com/title/tt9638
p3938
ssVposter
p3939
(dp3940
Vlarge
p3941
V_V1_.jpg
p3942
sVthumb
p3943
g3
ssVrelease_date
p3944
g3
sVcontent_rating
p3945
g3
sVoriginal_title
p3946
g3
sVwriters
p3947
(lp3948
sVimdb_id
p3949
g3
sVdirector
p3950
g3
sVcast
p3951
(lp3952
sVlength
p3953
g3
sVrating_count
p3954
g3
sVstoryline
p3955
g3
sVstars
p3956
(lp3957
sVyear
p3958
g3
sVgenre
p3959
(lp3960
sVtrailer
p3961
(lp3962
sVmetadata
p3963
(dp3964
Vasp_retio
p3965
g3
sVsound_mix
p3966
(lp3967
sVgross
p3968
g3
sVcountries
p3969
(lp3970
sVbudget
p3971
g3
sVlanguages
p3972
(lp3973
sVfilming_locations
p3974
(lp3975
sValso_known_as
p3976
(lp3977
ssa(dp3978
Vrating
p3979
g3
sVdescription
p3980
VA travelogue exploring the beauties of Spain.
p3981
sVtitle
p3982
VSpain, the Land of Enchantment
p3983
sVurl
p3984
(dp3985
Vurl
p3986
Vhttp://www.imdb.com/title/tt9639
p3987
ssVposter
p3988
(dp3989
Vlarge
p3990
Vhttp://ia.media-imdb.com/images/G/01/imdb/images/logos/imdb_fb_logo-1730868325._CB514892123_.png_V1_.jpg
p3991
sVthumb
p3992
g3
ssVrelease_date
p3993
V1918-05-05
p3994
sVcontent_rating
p3995
g3
sVoriginal_title
p3996
g3
sVwriters
p3997
(lp3998
sVimdb_id
p3999
Vtt0009639
p4000
sVdirector
p4001
g3
sVcast
p4002
(lp4003
sVlength
p4004
g3
sVrating_count
p4005
g3
sVstoryline
p4006
VA travelogue exploring the beauties of Spain.
p4007
sVstars
p4008
(lp4009
sVyear
p4010
V1918
p4011
sVgenre
p4012
(lp4013
VDocumentary
p4014
asVtrailer
p4015
(lp4016
sVmetadata
p4017
(dp4018
Vasp_retio
p4019
V1.33 : 1
p4020
sVsound_mix
p4021
(lp4022
VSilent
p4023
asVgross
p4024
g3
sVcountries
p4025
(lp4026
VUSA
p4027
asVbudget
p4028
g3
sVlanguages
p4029
(lp4030
sVfilming_locations
p4031
(lp4032
sValso_known_as
p4033
(lp4034
ssa(dp4035
Vrating
p4036
g3
sVdescription
p4037
g3
sVtitle
p4038
g3
sVurl
p4039
(dp4040
Vurl
p4041
Vhttp://www.imdb.com/title/tt9640
p4042
ssVposter
p4043
(dp4044
Vlarge
p4045
V_V1_.jpg
p4046
sVthumb
p4047
g3
ssVrelease_date
p4048
g3
sVcontent_rating
p4049
g3
sVoriginal_title
p4050
g3
sVwriters
p4051
(lp4052
sVimdb_id
p4053
g3
sVdirector
p4054
g3
sVcast
p4055
(lp4056
sVlength
p4057
g3
sVrating_count
p4058
g3
sVstoryline
p4059
g3
sVstars
p4060
(lp4061
sVyear
p4062
g3
sVgenre
p4063
(lp4064
sVtrailer
p4065
(lp4066
sVmetadata
p4067
(dp4068
Vasp_retio
p4069
g3
sVsound_mix
p4070
(lp4071
sVgross
p4072
g3
sVcountries
p4073
(lp4074
sVbudget
p4075
g3
sVlanguages
p4076
(lp4077
sVfilming_locations
p4078
(lp4079
sValso_known_as
p4080
(lp4081
ssa(dp4082
Vrating
p4083
g3
sVdescription
p4084
g3
sVtitle
p4085
g3
sVurl
p4086
(dp4087
Vurl
p4088
Vhttp://www.imdb.com/title/tt9641
p4089
ssVposter
p4090
(dp4091
Vlarge
p4092
V_V1_.jpg
p4093
sVthumb
p4094
g3
ssVrelease_date
p4095
g3
sVcontent_rating
p4096
g3
sVoriginal_title
p4097
g3
sVwriters
p4098
(lp4099
sVimdb_id
p4100
g3
sVdirector
p4101
g3
sVcast
p4102
(lp4103
sVlength
p4104
g3
sVrating_count
p4105
g3
sVstoryline
p4106
g3
sVstars
p4107
(lp4108
sVyear
p4109
g3
sVgenre
p4110
(lp4111
sVtrailer
p4112
(lp4113
sVmetadata
p4114
(dp4115
Vasp_retio
p4116
g3
sVsound_mix
p4117
(lp4118
sVgross
p4119
g3
sVcountries
p4120
(lp4121
sVbudget
p4122
g3
sVlanguages
p4123
(lp4124
sVfilming_locations
p4125
(lp4126
sValso_known_as
p4127
(lp4128
ssa(dp4129
Vrating
p4130
g3
sVdescription
p4131
g3
sVtitle
p4132
g3
sVurl
p4133
(dp4134
Vurl
p4135
Vhttp://www.imdb.com/title/tt9642
p4136
ssVposter
p4137
(dp4138
Vlarge
p4139
V_V1_.jpg
p4140
sVthumb
p4141
g3
ssVrelease_date
p4142
g3
sVcontent_rating
p4143
g3
sVoriginal_title
p4144
g3
sVwriters
p4145
(lp4146
sVimdb_id
p4147
g3
sVdirector
p4148
g3
sVcast
p4149
(lp4150
sVlength
p4151
g3
sVrating_count
p4152
g3
sVstoryline
p4153
g3
sVstars
p4154
(lp4155
sVyear
p4156
g3
sVgenre
p4157
(lp4158
sVtrailer
p4159
(lp4160
sVmetadata
p4161
(dp4162
Vasp_retio
p4163
g3
sVsound_mix
p4164
(lp4165
sVgross
p4166
g3
sVcountries
p4167
(lp4168
sVbudget
p4169
g3
sVlanguages
p4170
(lp4171
sVfilming_locations
p4172
(lp4173
sValso_known_as
p4174
(lp4175
ssa(dp4176
Vrating
p4177
g3
sVdescription
p4178
VA woman marries a German immigrant in New York, but loses him when her soiled past is revealed. He returns to Germany after the beginning of the First World War, where he becomes a ...\u000a                    See full summary
p4179
sVtitle
p4180
VThe Splendid Sinner
p4181
sVurl
p4182
(dp4183
Vurl
p4184
Vhttp://www.imdb.com/title/tt9643
p4185
ssVposter
p4186
(dp4187
Vlarge
p4188
Vhttp://ia.media-imdb.com/images/G/01/imdb/images/logos/imdb_fb_logo-1730868325._CB514892123_.png_V1_.jpg
p4189
sVthumb
p4190
g3
ssVrelease_date
p4191
V1918-03-31
p4192
sVcontent_rating
p4193
g3
sVoriginal_title
p4194
g3
sVwriters
p4195
(lp4196
VKate Jordan
p4197
asVimdb_id
p4198
Vtt0009643
p4199
sVdirector
p4200
VEdwin Carewe
p4201
sVcast
p4202
(lp4203
(dp4204
Vlink
p4205
Vhttp://www.imdb.com/name/nm0306667/?ref_=tt_cl_t1
p4206
sVimage
p4207
Vhttps://images-na.ssl-images-amazon.com/images/M/MV5BMDQzZmNlYTMtNzQzOC00MGUzLWJkZjEtNDQwNjkyYzA3OTE2XkEyXkFqcGdeQXVyMDUyOTUyNQ@@._UY317_CR16,0,214,317_AL_.jpg
p4208
sVcharacter
p4209
VDolores Fargis
p4210
sVname
p4211
VMary Garden
p4212
sa(dp4213
Vlink
p4214
Vhttp://www.imdb.com/name/nm0720812/?ref_=tt_cl_t2
p4215
sVimage
p4216
g3
sVcharacter
p4217
VDr. Hugh Maxwell
p4218
sVname
p4219
VHamilton Revelle
p4220
sa(dp4221
Vlink
p4222
Vhttp://www.imdb.com/name/nm0709856/?ref_=tt_cl_t3
p4223
sVimage
p4224
g3
sVcharacter
p4225
VRudolph Von Zorn
p4226
sVname
p4227
VAnders Randolf
p4228
sa(dp4229
Vlink
p4230
Vhttp://www.imdb.com/name/nm0615819/?ref_=tt_cl_t4
p4231
sVimage
p4232
g3
sVcharacter
p4233
VMusician
p4234
sVname
p4235
VHassan Mussalli
p4236
sa(dp4237
Vlink
p4238
Vhttp://www.imdb.com/name/nm0678638/?ref_=tt_cl_t5
p4239
sVimage
p4240
g3
sVcharacter
p4241
VDetective
p4242
sVname
p4243
VHenry Pettibone
p4244
sa(dp4245
Vlink
p4246
Vhttp://www.imdb.com/name/nm0069013/?ref_=tt_cl_t6
p4247
sVimage
p4248
g3
sVcharacter
p4249
VLouise
p4250
sVname
p4251
VRoberta Bellinger
p4252
sasVlength
p4253
V60
p4254
sVrating_count
p4255
g3
sVstoryline
p4256
VA woman marries a German immigrant in New York, but loses him when her soiled past is revealed. He returns to Germany after the beginning of the First World War, where he becomes a high-ranking officer in the German army. His wife joins the Red Cross and, in a combat hospital, discovers her wounded husband. Her love for both her husband and her country lead her to a great sacrifice.
p4257
sVstars
p4258
(lp4259
VMary Garden
p4260
aVHamilton Revelle
p4261
aVAnders Randolf
p4262
asVyear
p4263
V1918
p4264
sVgenre
p4265
(lp4266
VDrama
p4267
aVWar
p4268
asVtrailer
p4269
(lp4270
sVmetadata
p4271
(dp4272
Vasp_retio
p4273
V1.33 : 1
p4274
sVsound_mix
p4275
(lp4276
VSilent
p4277
asVgross
p4278
g3
sVcountries
p4279
(lp4280
VUSA
p4281
asVbudget
p4282
g3
sVlanguages
p4283
(lp4284
VEnglish
p4285
asVfilming_locations
p4286
(lp4287
sValso_known_as
p4288
(lp4289
VPecadora e M&#225;rtir
p4290
assa(dp4291
Vrating
p4292
g3
sVdescription
p4293
g3
sVtitle
p4294
g3
sVurl
p4295
(dp4296
Vurl
p4297
Vhttp://www.imdb.com/title/tt9644
p4298
ssVposter
p4299
(dp4300
Vlarge
p4301
V_V1_.jpg
p4302
sVthumb
p4303
g3
ssVrelease_date
p4304
g3
sVcontent_rating
p4305
g3
sVoriginal_title
p4306
g3
sVwriters
p4307
(lp4308
sVimdb_id
p4309
g3
sVdirector
p4310
g3
sVcast
p4311
(lp4312
sVlength
p4313
g3
sVrating_count
p4314
g3
sVstoryline
p4315
g3
sVstars
p4316
(lp4317
sVyear
p4318
g3
sVgenre
p4319
(lp4320
sVtrailer
p4321
(lp4322
sVmetadata
p4323
(dp4324
Vasp_retio
p4325
g3
sVsound_mix
p4326
(lp4327
sVgross
p4328
g3
sVcountries
p4329
(lp4330
sVbudget
p4331
g3
sVlanguages
p4332
(lp4333
sVfilming_locations
p4334
(lp4335
sValso_known_as
p4336
(lp4337
ssa(dp4338
Vrating
p4339
g3
sVdescription
p4340
VA young English Lord lands in desperate financial straits. His only hope is for the success of a prizefighter and a racehorse in each of which he owns an interest.
p4341
sVtitle
p4342
VSporting Life
p4343
sVurl
p4344
(dp4345
Vurl
p4346
Vhttp://www.imdb.com/title/tt9645
p4347
ssVposter
p4348
(dp4349
Vlarge
p4350
Vhttps://images-na.ssl-images-amazon.com/images/M/MV5BYTBhY2U4NDgtNGE0Zi00MGY1LWI2ZDEtZDg1M2JmNmViNmU3L2ltYWdlXkEyXkFqcGdeQXVyMjUxODE0MDY@._V1_.jpg
p4351
sVthumb
p4352
Vhttps://images-na.ssl-images-amazon.com/images/M/MV5BYTBhY2U4NDgtNGE0Zi00MGY1LWI2ZDEtZDg1M2JmNmViNmU3L2ltYWdlXkEyXkFqcGdeQXVyMjUxODE0MDY@._V1_UY268_CR8,0,182,268_AL_.jpg
p4353
ssVrelease_date
p4354
V1918-09-15
p4355
sVcontent_rating
p4356
g3
sVoriginal_title
p4357
g3
sVwriters
p4358
(lp4359
VCecil Raleigh
p4360
aVSeymour Hicks
p4361
asVimdb_id
p4362
Vtt0009645
p4363
sVdirector
p4364
VMaurice Tourneur
p4365
sVcast
p4366
(lp4367
(dp4368
Vlink
p4369
Vhttp://www.imdb.com/name/nm0336339/?ref_=tt_cl_t1
p4370
sVimage
p4371
Vhttps://images-na.ssl-images-amazon.com/images/M/MV5BZjRhMzZlMjEtMmQzOC00MGZiLTkxM2EtZWMwMTdmY2JjMDA1XkEyXkFqcGdeQXVyMzI5NDcxNzI@._V1_UY44_CR1,0,32,44_AL_.jpg
p4372
sVcharacter
p4373
VJohn, Earl of Woodstock
p4374
sVname
p4375
VRalph Graves
p4376
sa(dp4377
Vlink
p4378
Vhttp://www.imdb.com/name/nm0725173/?ref_=tt_cl_t2
p4379
sVimage
p4380
Vhttps://images-na.ssl-images-amazon.com/images/M/MV5BOTRjNjkzNGUtOGQzZi00MjY2LWJmZGEtYzM3MGU0Mjk4YTE1L2ltYWdlXkEyXkFqcGdeQXVyMzI5NDcxNzI@._V1_UY44_CR0,0,32,44_AL_.jpg
p4381
sVcharacter
p4382
VJoe Lee
p4383
sVname
p4384
VWarner Richmond
p4385
sa(dp4386
Vlink
p4387
Vhttp://www.imdb.com/name/nm0253151/?ref_=tt_cl_t3
p4388
sVimage
p4389
g3
sVcharacter
p4390
VMiles Cavanagh
p4391
sVname
p4392
VCharles Eldridge
p4393
sa(dp4394
Vlink
p4395
Vhttp://www.imdb.com/name/nm0185803/?ref_=tt_cl_t4
p4396
sVimage
p4397
g3
sVcharacter
p4398
VMalet de Carteret
p4399
sVname
p4400
VCharles Craig
p4401
sa(dp4402
Vlink
p4403
Vhttp://www.imdb.com/name/nm0922096/?ref_=tt_cl_t5
p4404
sVimage
p4405
g3
sVcharacter
p4406
VStraker
p4407
sVname
p4408
VHenry West
p4409
sa(dp4410
Vlink
p4411
Vhttp://www.imdb.com/name/nm0083060/?ref_=tt_cl_t6
p4412
sVimage
p4413
Vhttps://images-na.ssl-images-amazon.com/images/M/MV5BMTg5NjI0MTE4NV5BMl5BanBnXkFtZTgwMTkxNzY3MTE@._V1._CR104.88333129882812,118.53334045410156,985,1361_UX32_CR0,0,32,44_AL_.jpg
p4414
sVcharacter
p4415
VNorah Cavanagh
p4416
sVname
p4417
VConstance Binney
p4418
sa(dp4419
Vlink
p4420
Vhttp://www.imdb.com/name/nm0083061/?ref_=tt_cl_t7
p4421
sVimage
p4422
Vhttps://images-na.ssl-images-amazon.com/images/M/MV5BOWVhNTY1OGItN2JjNS00Y2Y4LTg3NDAtZjdjNzdiOGRiMjhkXkEyXkFqcGdeQXVyMzI5NDcxNzI@._V1_UY44_CR1,0,32,44_AL_.jpg
p4423
sVcharacter
p4424
VKitty Cavanagh
p4425
sVname
p4426
VFaire Binney
p4427
sa(dp4428
Vlink
p4429
Vhttp://www.imdb.com/name/nm0449979/?ref_=tt_cl_t8
p4430
sVimage
p4431
g3
sVcharacter
p4432
VOlive de Carteret
p4433
sVname
p4434
VWillette Kershaw
p4435
sa(dp4436
Vlink
p4437
Vhttp://www.imdb.com/name/nm0364753/?ref_=tt_cl_t9
p4438
sVimage
p4439
g3
sVcharacter
p4440
VCrake
p4441
sVname
p4442
VHarry Harris
p4443
sa(dp4444
Vlink
p4445
Vhttp://www.imdb.com/name/nm0446362/?ref_=tt_cl_t10
p4446
sVimage
p4447
g3
sVcharacter
p4448
VWoodstock
p4449
sVname
p4450
VEddie Kelly
p4451
sa(dp4452
Vlink
p4453
Vhttp://www.imdb.com/name/nm0079966/?ref_=tt_cl_t11
p4454
sVimage
p4455
g3
sVcharacter
p4456
VUndetermined Role
p4457
sVname
p4458
VClara Beyers
p4459
sasVlength
p4460
V70
p4461
sVrating_count
p4462
g3
sVstoryline
p4463
VA young English Lord lands in desperate financial straits. His only hope is for the success of a prizefighter and a racehorse in each of which he owns an interest.
p4464
sVstars
p4465
(lp4466
VRalph Graves
p4467
aVWarner Richmond
p4468
aVCharles Eldridge
p4469
asVyear
p4470
V1918
p4471
sVgenre
p4472
(lp4473
VDrama
p4474
aVSport
p4475
asVtrailer
p4476
(lp4477
sVmetadata
p4478
(dp4479
Vasp_retio
p4480
V1.33 : 1
p4481
sVsound_mix
p4482
(lp4483
VSilent
p4484
asVgross
p4485
g3
sVcountries
p4486
(lp4487
VUSA
p4488
asVbudget
p4489
g3
sVlanguages
p4490
(lp4491
VEnglish
p4492
asVfilming_locations
p4493
(lp4494
sValso_known_as
p4495
(lp4496
VLady love
p4497
assa(dp4498
Vrating
p4499
g3
sVdescription
p4500
g3
sVtitle
p4501
g3
sVurl
p4502
(dp4503
Vurl
p4504
Vhttp://www.imdb.com/title/tt9646
p4505
ssVposter
p4506
(dp4507
Vlarge
p4508
V_V1_.jpg
p4509
sVthumb
p4510
g3
ssVrelease_date
p4511
g3
sVcontent_rating
p4512
g3
sVoriginal_title
p4513
g3
sVwriters
p4514
(lp4515
sVimdb_id
p4516
g3
sVdirector
p4517
g3
sVcast
p4518
(lp4519
sVlength
p4520
g3
sVrating_count
p4521
g3
sVstoryline
p4522
g3
sVstars
p4523
(lp4524
sVyear
p4525
g3
sVgenre
p4526
(lp4527
sVtrailer
p4528
(lp4529
sVmetadata
p4530
(dp4531
Vasp_retio
p4532
g3
sVsound_mix
p4533
(lp4534
sVgross
p4535
g3
sVcountries
p4536
(lp4537
sVbudget
p4538
g3
sVlanguages
p4539
(lp4540
sVfilming_locations
p4541
(lp4542
sValso_known_as
p4543
(lp4544
ssa(dp4545
Vrating
p4546
g3
sVdescription
p4547
g3
sVtitle
p4548
VThe Spurs of Sybil
p4549
sVurl
p4550
(dp4551
Vurl
p4552
Vhttp://www.imdb.com/title/tt9647
p4553
ssVposter
p4554
(dp4555
Vlarge
p4556
Vhttp://ia.media-imdb.com/images/G/01/imdb/images/logos/imdb_fb_logo-1730868325._CB514892123_.png_V1_.jpg
p4557
sVthumb
p4558
g3
ssVrelease_date
p4559
V1918-03-04
p4560
sVcontent_rating
p4561
g3
sVoriginal_title
p4562
g3
sVwriters
p4563
(lp4564
VLouise Winter
p4565
asVimdb_id
p4566
Vtt0009647
p4567
sVdirector
p4568
VTravers Vale
p4569
sVcast
p4570
(lp4571
(dp4572
Vlink
p4573
Vhttp://www.imdb.com/name/nm0103567/?ref_=tt_cl_t1
p4574
sVimage
p4575
Vhttps://images-na.ssl-images-amazon.com/images/M/MV5BMTY1MDQxMDI3OV5BMl5BanBnXkFtZTgwMjgzNzY3MTE@._V1._CR1.883331298828125,5.5333404541015625,291,374_UY44_CR1,0,32,44_AL_.jpg
p4576
sVcharacter
p4577
VSybil Drew
p4578
sVname
p4579
VAlice Brady
p4580
sa(dp4581
Vlink
p4582
Vhttp://www.imdb.com/name/nm0101071/?ref_=tt_cl_t2
p4583
sVimage
p4584
Vhttps://images-na.ssl-images-amazon.com/images/M/MV5BMTMyYjgyMTktMTViMi00ZDk4LThjOTEtODU0NmUzNTAyNjNmXkEyXkFqcGdeQXVyMzI5NDcxNzI@._V1_UY44_CR0,0,32,44_AL_.jpg
p4585
sVcharacter
p4586
VDr. Ross Alger
p4587
sVname
p4588
VJohn Bowers
p4589
sa(dp4590
Vlink
p4591
Vhttp://www.imdb.com/name/nm0203383/?ref_=tt_cl_t3
p4592
sVimage
p4593
Vhttps://images-na.ssl-images-amazon.com/images/M/MV5BZDA2ZjlkZmEtMWM4OS00NjhhLTk4YTItZDcxODkwZDYwMmM2XkEyXkFqcGdeQXVyMzI5NDcxNzI@._V1_UY44_CR2,0,32,44_AL_.jpg
p4594
sVcharacter
p4595
VPaul Berwick
p4596
sVname
p4597
VJohn Davidson
p4598
sa(dp4599
Vlink
p4600
Vhttp://www.imdb.com/name/nm0613127/?ref_=tt_cl_t4
p4601
sVimage
p4602
g3
sVcharacter
p4603
VMrs. Alva Penfield
p4604
sVname
p4605
VIseth Munro
p4606
sa(dp4607
Vlink
p4608
Vhttp://www.imdb.com/name/nm0194020/?ref_=tt_cl_t5
p4609
sVimage
p4610
g3
sVcharacter
p4611
VAunt Annabelle
p4612
sVname
p4613
VJustine Cutting
p4614
sa(dp4615
Vlink
p4616
Vhttp://www.imdb.com/name/nm0940922/?ref_=tt_cl_t6
p4617
sVimage
p4618
g3
sVcharacter
p4619
VOleander Berwick
p4620
sVname
p4621
VEugenie Woodward
p4622
sa(dp4623
Vlink
p4624
Vhttp://www.imdb.com/name/nm0057482/?ref_=tt_cl_t7
p4625
sVimage
p4626
g3
sVcharacter
p4627
VDetective
p4628
sVname
p4629
VHerbert Barrington
p4630
sa(dp4631
Vlink
p4632
Vhttp://www.imdb.com/name/nm0164964/?ref_=tt_cl_t8
p4633
sVimage
p4634
g3
sVcharacter
p4635
VDoctor's Assistant
p4636
sVname
p4637
VRichard Clarke
p4638
sasVlength
p4639
g3
sVrating_count
p4640
g3
sVstoryline
p4641
g3
sVstars
p4642
(lp4643
VAlice Brady
p4644
aVJohn Bowers
p4645
aVJohn Davidson
p4646
asVyear
p4647
V1918
p4648
sVgenre
p4649
(lp4650
VDrama
p4651
aVRomance
p4652
asVtrailer
p4653
(lp4654
sVmetadata
p4655
(dp4656
Vasp_retio
p4657
V1.33 : 1
p4658
sVsound_mix
p4659
(lp4660
VSilent
p4661
asVgross
p4662
g3
sVcountries
p4663
(lp4664
VUSA
p4665
asVbudget
p4666
g3
sVlanguages
p4667
(lp4668
sVfilming_locations
p4669
(lp4670
sValso_known_as
p4671
(lp4672
ssa(dp4673
Vrating
p4674
g3
sVdescription
p4675
g3
sVtitle
p4676
g3
sVurl
p4677
(dp4678
Vurl
p4679
Vhttp://www.imdb.com/title/tt9648
p4680
ssVposter
p4681
(dp4682
Vlarge
p4683
V_V1_.jpg
p4684
sVthumb
p4685
g3
ssVrelease_date
p4686
g3
sVcontent_rating
p4687
g3
sVoriginal_title
p4688
g3
sVwriters
p4689
(lp4690
sVimdb_id
p4691
g3
sVdirector
p4692
g3
sVcast
p4693
(lp4694
sVlength
p4695
g3
sVrating_count
p4696
g3
sVstoryline
p4697
g3
sVstars
p4698
(lp4699
sVyear
p4700
g3
sVgenre
p4701
(lp4702
sVtrailer
p4703
(lp4704
sVmetadata
p4705
(dp4706
Vasp_retio
p4707
g3
sVsound_mix
p4708
(lp4709
sVgross
p4710
g3
sVcountries
p4711
(lp4712
sVbudget
p4713
g3
sVlanguages
p4714
(lp4715
sVfilming_locations
p4716
(lp4717
sValso_known_as
p4718
(lp4719
ssa(dp4720
Vrating
p4721
g3
sVdescription
p4722
g3
sVtitle
p4723
g3
sVurl
p4724
(dp4725
Vurl
p4726
Vhttp://www.imdb.com/title/tt9649
p4727
ssVposter
p4728
(dp4729
Vlarge
p4730
V_V1_.jpg
p4731
sVthumb
p4732
g3
ssVrelease_date
p4733
g3
sVcontent_rating
p4734
g3
sVoriginal_title
p4735
g3
sVwriters
p4736
(lp4737
sVimdb_id
p4738
g3
sVdirector
p4739
g3
sVcast
p4740
(lp4741
sVlength
p4742
g3
sVrating_count
p4743
g3
sVstoryline
p4744
g3
sVstars
p4745
(lp4746
sVyear
p4747
g3
sVgenre
p4748
(lp4749
sVtrailer
p4750
(lp4751
sVmetadata
p4752
(dp4753
Vasp_retio
p4754
g3
sVsound_mix
p4755
(lp4756
sVgross
p4757
g3
sVcountries
p4758
(lp4759
sVbudget
p4760
g3
sVlanguages
p4761
(lp4762
sVfilming_locations
p4763
(lp4764
sValso_known_as
p4765
(lp4766
ssa(dp4767
Vrating
p4768
g3
sVdescription
p4769
g3
sVtitle
p4770
g3
sVurl
p4771
(dp4772
Vurl
p4773
Vhttp://www.imdb.com/title/tt9650
p4774
ssVposter
p4775
(dp4776
Vlarge
p4777
V_V1_.jpg
p4778
sVthumb
p4779
g3
ssVrelease_date
p4780
g3
sVcontent_rating
p4781
g3
sVoriginal_title
p4782
g3
sVwriters
p4783
(lp4784
sVimdb_id
p4785
g3
sVdirector
p4786
g3
sVcast
p4787
(lp4788
sVlength
p4789
g3
sVrating_count
p4790
g3
sVstoryline
p4791
g3
sVstars
p4792
(lp4793
sVyear
p4794
g3
sVgenre
p4795
(lp4796
sVtrailer
p4797
(lp4798
sVmetadata
p4799
(dp4800
Vasp_retio
p4801
g3
sVsound_mix
p4802
(lp4803
sVgross
p4804
g3
sVcountries
p4805
(lp4806
sVbudget
p4807
g3
sVlanguages
p4808
(lp4809
sVfilming_locations
p4810
(lp4811
sValso_known_as
p4812
(lp4813
ssa(dp4814
Vrating
p4815
g3
sVdescription
p4816
g3
sVtitle
p4817
g3
sVurl
p4818
(dp4819
Vurl
p4820
Vhttp://www.imdb.com/title/tt9651
p4821
ssVposter
p4822
(dp4823
Vlarge
p4824
V_V1_.jpg
p4825
sVthumb
p4826
g3
ssVrelease_date
p4827
g3
sVcontent_rating
p4828
g3
sVoriginal_title
p4829
g3
sVwriters
p4830
(lp4831
sVimdb_id
p4832
g3
sVdirector
p4833
g3
sVcast
p4834
(lp4835
sVlength
p4836
g3
sVrating_count
p4837
g3
sVstoryline
p4838
g3
sVstars
p4839
(lp4840
sVyear
p4841
g3
sVgenre
p4842
(lp4843
sVtrailer
p4844
(lp4845
sVmetadata
p4846
(dp4847
Vasp_retio
p4848
g3
sVsound_mix
p4849
(lp4850
sVgross
p4851
g3
sVcountries
p4852
(lp4853
sVbudget
p4854
g3
sVlanguages
p4855
(lp4856
sVfilming_locations
p4857
(lp4858
sValso_known_as
p4859
(lp4860
ssa(dp4861
Vrating
p4862
g3
sVdescription
p4863
g3
sVtitle
p4864
g3
sVurl
p4865
(dp4866
Vurl
p4867
Vhttp://www.imdb.com/title/tt9652
p4868
ssVposter
p4869
(dp4870
Vlarge
p4871
V_V1_.jpg
p4872
sVthumb
p4873
g3
ssVrelease_date
p4874
g3
sVcontent_rating
p4875
g3
sVoriginal_title
p4876
g3
sVwriters
p4877
(lp4878
sVimdb_id
p4879
g3
sVdirector
p4880
g3
sVcast
p4881
(lp4882
sVlength
p4883
g3
sVrating_count
p4884
g3
sVstoryline
p4885
g3
sVstars
p4886
(lp4887
sVyear
p4888
g3
sVgenre
p4889
(lp4890
sVtrailer
p4891
(lp4892
sVmetadata
p4893
(dp4894
Vasp_retio
p4895
g3
sVsound_mix
p4896
(lp4897
sVgross
p4898
g3
sVcountries
p4899
(lp4900
sVbudget
p4901
g3
sVlanguages
p4902
(lp4903
sVfilming_locations
p4904
(lp4905
sValso_known_as
p4906
(lp4907
ssa(dp4908
Vrating
p4909
g3
sVdescription
p4910
g3
sVtitle
p4911
g3
sVurl
p4912
(dp4913
Vurl
p4914
Vhttp://www.imdb.com/title/tt9653
p4915
ssVposter
p4916
(dp4917
Vlarge
p4918
V_V1_.jpg
p4919
sVthumb
p4920
g3
ssVrelease_date
p4921
g3
sVcontent_rating
p4922
g3
sVoriginal_title
p4923
g3
sVwriters
p4924
(lp4925
sVimdb_id
p4926
g3
sVdirector
p4927
g3
sVcast
p4928
(lp4929
sVlength
p4930
g3
sVrating_count
p4931
g3
sVstoryline
p4932
g3
sVstars
p4933
(lp4934
sVyear
p4935
g3
sVgenre
p4936
(lp4937
sVtrailer
p4938
(lp4939
sVmetadata
p4940
(dp4941
Vasp_retio
p4942
g3
sVsound_mix
p4943
(lp4944
sVgross
p4945
g3
sVcountries
p4946
(lp4947
sVbudget
p4948
g3
sVlanguages
p4949
(lp4950
sVfilming_locations
p4951
(lp4952
sValso_known_as
p4953
(lp4954
ssa(dp4955
Vrating
p4956
g3
sVdescription
p4957
g3
sVtitle
p4958
g3
sVurl
p4959
(dp4960
Vurl
p4961
Vhttp://www.imdb.com/title/tt9654
p4962
ssVposter
p4963
(dp4964
Vlarge
p4965
V_V1_.jpg
p4966
sVthumb
p4967
g3
ssVrelease_date
p4968
g3
sVcontent_rating
p4969
g3
sVoriginal_title
p4970
g3
sVwriters
p4971
(lp4972
sVimdb_id
p4973
g3
sVdirector
p4974
g3
sVcast
p4975
(lp4976
sVlength
p4977
g3
sVrating_count
p4978
g3
sVstoryline
p4979
g3
sVstars
p4980
(lp4981
sVyear
p4982
g3
sVgenre
p4983
(lp4984
sVtrailer
p4985
(lp4986
sVmetadata
p4987
(dp4988
Vasp_retio
p4989
g3
sVsound_mix
p4990
(lp4991
sVgross
p4992
g3
sVcountries
p4993
(lp4994
sVbudget
p4995
g3
sVlanguages
p4996
(lp4997
sVfilming_locations
p4998
(lp4999
sValso_known_as
p5000
(lp5001
ssa(dp5002
Vrating
p5003
g3
sVdescription
p5004
g3
sVtitle
p5005
g3
sVurl
p5006
(dp5007
Vurl
p5008
Vhttp://www.imdb.com/title/tt9655
p5009
ssVposter
p5010
(dp5011
Vlarge
p5012
V_V1_.jpg
p5013
sVthumb
p5014
g3
ssVrelease_date
p5015
g3
sVcontent_rating
p5016
g3
sVoriginal_title
p5017
g3
sVwriters
p5018
(lp5019
sVimdb_id
p5020
g3
sVdirector
p5021
g3
sVcast
p5022
(lp5023
sVlength
p5024
g3
sVrating_count
p5025
g3
sVstoryline
p5026
g3
sVstars
p5027
(lp5028
sVyear
p5029
g3
sVgenre
p5030
(lp5031
sVtrailer
p5032
(lp5033
sVmetadata
p5034
(dp5035
Vasp_retio
p5036
g3
sVsound_mix
p5037
(lp5038
sVgross
p5039
g3
sVcountries
p5040
(lp5041
sVbudget
p5042
g3
sVlanguages
p5043
(lp5044
sVfilming_locations
p5045
(lp5046
sValso_known_as
p5047
(lp5048
ssa(dp5049
Vrating
p5050
g3
sVdescription
p5051
g3
sVtitle
p5052
g3
sVurl
p5053
(dp5054
Vurl
p5055
Vhttp://www.imdb.com/title/tt9656
p5056
ssVposter
p5057
(dp5058
Vlarge
p5059
V_V1_.jpg
p5060
sVthumb
p5061
g3
ssVrelease_date
p5062
g3
sVcontent_rating
p5063
g3
sVoriginal_title
p5064
g3
sVwriters
p5065
(lp5066
sVimdb_id
p5067
g3
sVdirector
p5068
g3
sVcast
p5069
(lp5070
sVlength
p5071
g3
sVrating_count
p5072
g3
sVstoryline
p5073
g3
sVstars
p5074
(lp5075
sVyear
p5076
g3
sVgenre
p5077
(lp5078
sVtrailer
p5079
(lp5080
sVmetadata
p5081
(dp5082
Vasp_retio
p5083
g3
sVsound_mix
p5084
(lp5085
sVgross
p5086
g3
sVcountries
p5087
(lp5088
sVbudget
p5089
g3
sVlanguages
p5090
(lp5091
sVfilming_locations
p5092
(lp5093
sValso_known_as
p5094
(lp5095
ssa(dp5096
Vrating
p5097
g3
sVdescription
p5098
g3
sVtitle
p5099
g3
sVurl
p5100
(dp5101
Vurl
p5102
Vhttp://www.imdb.com/title/tt9657
p5103
ssVposter
p5104
(dp5105
Vlarge
p5106
V_V1_.jpg
p5107
sVthumb
p5108
g3
ssVrelease_date
p5109
g3
sVcontent_rating
p5110
g3
sVoriginal_title
p5111
g3
sVwriters
p5112
(lp5113
sVimdb_id
p5114
g3
sVdirector
p5115
g3
sVcast
p5116
(lp5117
sVlength
p5118
g3
sVrating_count
p5119
g3
sVstoryline
p5120
g3
sVstars
p5121
(lp5122
sVyear
p5123
g3
sVgenre
p5124
(lp5125
sVtrailer
p5126
(lp5127
sVmetadata
p5128
(dp5129
Vasp_retio
p5130
g3
sVsound_mix
p5131
(lp5132
sVgross
p5133
g3
sVcountries
p5134
(lp5135
sVbudget
p5136
g3
sVlanguages
p5137
(lp5138
sVfilming_locations
p5139
(lp5140
sValso_known_as
p5141
(lp5142
ssa(dp5143
Vrating
p5144
g3
sVdescription
p5145
g3
sVtitle
p5146
g3
sVurl
p5147
(dp5148
Vurl
p5149
Vhttp://www.imdb.com/title/tt9658
p5150
ssVposter
p5151
(dp5152
Vlarge
p5153
V_V1_.jpg
p5154
sVthumb
p5155
g3
ssVrelease_date
p5156
g3
sVcontent_rating
p5157
g3
sVoriginal_title
p5158
g3
sVwriters
p5159
(lp5160
sVimdb_id
p5161
g3
sVdirector
p5162
g3
sVcast
p5163
(lp5164
sVlength
p5165
g3
sVrating_count
p5166
g3
sVstoryline
p5167
g3
sVstars
p5168
(lp5169
sVyear
p5170
g3
sVgenre
p5171
(lp5172
sVtrailer
p5173
(lp5174
sVmetadata
p5175
(dp5176
Vasp_retio
p5177
g3
sVsound_mix
p5178
(lp5179
sVgross
p5180
g3
sVcountries
p5181
(lp5182
sVbudget
p5183
g3
sVlanguages
p5184
(lp5185
sVfilming_locations
p5186
(lp5187
sValso_known_as
p5188
(lp5189
ssa(dp5190
Vrating
p5191
g3
sVdescription
p5192
g3
sVtitle
p5193
g3
sVurl
p5194
(dp5195
Vurl
p5196
Vhttp://www.imdb.com/title/tt9659
p5197
ssVposter
p5198
(dp5199
Vlarge
p5200
V_V1_.jpg
p5201
sVthumb
p5202
g3
ssVrelease_date
p5203
g3
sVcontent_rating
p5204
g3
sVoriginal_title
p5205
g3
sVwriters
p5206
(lp5207
sVimdb_id
p5208
g3
sVdirector
p5209
g3
sVcast
p5210
(lp5211
sVlength
p5212
g3
sVrating_count
p5213
g3
sVstoryline
p5214
g3
sVstars
p5215
(lp5216
sVyear
p5217
g3
sVgenre
p5218
(lp5219
sVtrailer
p5220
(lp5221
sVmetadata
p5222
(dp5223
Vasp_retio
p5224
g3
sVsound_mix
p5225
(lp5226
sVgross
p5227
g3
sVcountries
p5228
(lp5229
sVbudget
p5230
g3
sVlanguages
p5231
(lp5232
sVfilming_locations
p5233
(lp5234
sValso_known_as
p5235
(lp5236
ssa(dp5237
Vrating
p5238
g3
sVdescription
p5239
g3
sVtitle
p5240
g3
sVurl
p5241
(dp5242
Vurl
p5243
Vhttp://www.imdb.com/title/tt9660
p5244
ssVposter
p5245
(dp5246
Vlarge
p5247
V_V1_.jpg
p5248
sVthumb
p5249
g3
ssVrelease_date
p5250
g3
sVcontent_rating
p5251
g3
sVoriginal_title
p5252
g3
sVwriters
p5253
(lp5254
sVimdb_id
p5255
g3
sVdirector
p5256
g3
sVcast
p5257
(lp5258
sVlength
p5259
g3
sVrating_count
p5260
g3
sVstoryline
p5261
g3
sVstars
p5262
(lp5263
sVyear
p5264
g3
sVgenre
p5265
(lp5266
sVtrailer
p5267
(lp5268
sVmetadata
p5269
(dp5270
Vasp_retio
p5271
g3
sVsound_mix
p5272
(lp5273
sVgross
p5274
g3
sVcountries
p5275
(lp5276
sVbudget
p5277
g3
sVlanguages
p5278
(lp5279
sVfilming_locations
p5280
(lp5281
sValso_known_as
p5282
(lp5283
ssa(dp5284
Vrating
p5285
g3
sVdescription
p5286
g3
sVtitle
p5287
g3
sVurl
p5288
(dp5289
Vurl
p5290
Vhttp://www.imdb.com/title/tt9661
p5291
ssVposter
p5292
(dp5293
Vlarge
p5294
V_V1_.jpg
p5295
sVthumb
p5296
g3
ssVrelease_date
p5297
g3
sVcontent_rating
p5298
g3
sVoriginal_title
p5299
g3
sVwriters
p5300
(lp5301
sVimdb_id
p5302
g3
sVdirector
p5303
g3
sVcast
p5304
(lp5305
sVlength
p5306
g3
sVrating_count
p5307
g3
sVstoryline
p5308
g3
sVstars
p5309
(lp5310
sVyear
p5311
g3
sVgenre
p5312
(lp5313
sVtrailer
p5314
(lp5315
sVmetadata
p5316
(dp5317
Vasp_retio
p5318
g3
sVsound_mix
p5319
(lp5320
sVgross
p5321
g3
sVcountries
p5322
(lp5323
sVbudget
p5324
g3
sVlanguages
p5325
(lp5326
sVfilming_locations
p5327
(lp5328
sValso_known_as
p5329
(lp5330
ssa(dp5331
Vrating
p5332
g3
sVdescription
p5333
g3
sVtitle
p5334
g3
sVurl
p5335
(dp5336
Vurl
p5337
Vhttp://www.imdb.com/title/tt9662
p5338
ssVposter
p5339
(dp5340
Vlarge
p5341
V_V1_.jpg
p5342
sVthumb
p5343
g3
ssVrelease_date
p5344
g3
sVcontent_rating
p5345
g3
sVoriginal_title
p5346
g3
sVwriters
p5347
(lp5348
sVimdb_id
p5349
g3
sVdirector
p5350
g3
sVcast
p5351
(lp5352
sVlength
p5353
g3
sVrating_count
p5354
g3
sVstoryline
p5355
g3
sVstars
p5356
(lp5357
sVyear
p5358
g3
sVgenre
p5359
(lp5360
sVtrailer
p5361
(lp5362
sVmetadata
p5363
(dp5364
Vasp_retio
p5365
g3
sVsound_mix
p5366
(lp5367
sVgross
p5368
g3
sVcountries
p5369
(lp5370
sVbudget
p5371
g3
sVlanguages
p5372
(lp5373
sVfilming_locations
p5374
(lp5375
sValso_known_as
p5376
(lp5377
ssa(dp5378
Vrating
p5379
g3
sVdescription
p5380
g3
sVtitle
p5381
VThe Studio Girl
p5382
sVurl
p5383
(dp5384
Vurl
p5385
Vhttp://www.imdb.com/title/tt9663
p5386
ssVposter
p5387
(dp5388
Vlarge
p5389
Vhttp://ia.media-imdb.com/images/G/01/imdb/images/logos/imdb_fb_logo-1730868325._CB514892123_.png_V1_.jpg
p5390
sVthumb
p5391
g3
ssVrelease_date
p5392
V1918-01
p5393
sVcontent_rating
p5394
g3
sVoriginal_title
p5395
g3
sVwriters
p5396
(lp5397
VPierre Veber
p5398
aVHenri de Gorsse
p5399
asVimdb_id
p5400
Vtt0009663
p5401
sVdirector
p5402
VCharles Giblyn
p5403
sVcast
p5404
(lp5405
(dp5406
Vlink
p5407
Vhttp://www.imdb.com/name/nm0848226/?ref_=tt_cl_t1
p5408
sVimage
p5409
Vhttps://images-na.ssl-images-amazon.com/images/M/MV5BMTgxODQ4NTMyMV5BMl5BanBnXkFtZTgwOTg3NTAwMjE@._V1._CR47.883331298828125,65.43333435058594,1099,1372.000015258789_UY44_CR1,0,32,44_AL_.jpg
p5410
sVcharacter
p5411
VCelia Laird
p5412
sVname
p5413
VConstance Talmadge
p5414
sa(dp5415
Vlink
p5416
Vhttp://www.imdb.com/name/nm0289317/?ref_=tt_cl_t2
p5417
sVimage
p5418
g3
sVcharacter
p5419
VFrazer Ordway
p5420
sVname
p5421
VEarle Foxe
p5422
sa(dp5423
Vlink
p5424
Vhttp://www.imdb.com/name/nm0247304/?ref_=tt_cl_t3
p5425
sVimage
p5426
g3
sVcharacter
p5427
VAdriana Peroni
p5428
sVname
p5429
VEdna Earle
p5430
sa(dp5431
Vlink
p5432
Vhttp://www.imdb.com/name/nm0385686/?ref_=tt_cl_t4
p5433
sVimage
p5434
Vhttps://images-na.ssl-images-amazon.com/images/M/MV5BZmUzMTJkZmEtZDBiYi00MjBjLTk4MjktYmVhYTZiZjQxMTM4XkEyXkFqcGdeQXVyMzI5NDcxNzI@._V1_UY44_CR0,0,32,44_AL_.jpg
p5435
sVcharacter
p5436
VObediah Daw
p5437
sVname
p5438
VJohnny Hines
p5439
sa(dp5440
Vlink
p5441
Vhttp://www.imdb.com/name/nm0635500/?ref_=tt_cl_t5
p5442
sVimage
p5443
g3
sVcharacter
p5444
VMrs. Daw
p5445
sVname
p5446
VGertrude Norman
p5447
sa(dp5448
Vlink
p5449
Vhttp://www.imdb.com/name/nm0641683/?ref_=tt_cl_t6
p5450
sVimage
p5451
g3
sVcharacter
p5452
VHarriet Farnum
p5453
sVname
p5454
VIsabel O'Madigan
p5455
sa(dp5456
Vlink
p5457
Vhttp://www.imdb.com/name/nm0059150/?ref_=tt_cl_t7
p5458
sVimage
p5459
g3
sVcharacter
p5460
VRachel Farnum
p5461
sVname
p5462
VGrace Barton
p5463
sa(dp5464
Vlink
p5465
Vhttp://www.imdb.com/name/nm0862751/?ref_=tt_cl_t8
p5466
sVimage
p5467
g3
sVcharacter
p5468
VDr. Walter Grierson       (as Fred Tidmarsh)
p5469
sVname
p5470
VFerdinand Tidmarsh
p5471
sa(dp5472
Vlink
p5473
Vhttp://www.imdb.com/name/nm0060238/?ref_=tt_cl_t9
p5474
sVimage
p5475
Vhttps://images-na.ssl-images-amazon.com/images/M/MV5BODFkYjI0OGEtNzMxMy00MDEzLWI2NjAtMzdkMTlmODRlNjAzXkEyXkFqcGdeQXVyMDUyOTUyNQ@@._V1_UY44_CR10,0,32,44_AL_.jpg
p5476
sVcharacter
p5477
VUndetermined Role
p5478
sVname
p5479
VRussell Bassett
p5480
sasVlength
p5481
V50
p5482
sVrating_count
p5483
g3
sVstoryline
p5484
g3
sVstars
p5485
(lp5486
VConstance Talmadge
p5487
aVEarle Foxe
p5488
aVEdna Earle
p5489
asVyear
p5490
V1918
p5491
sVgenre
p5492
(lp5493
VComedy
p5494
aVRomance
p5495
asVtrailer
p5496
(lp5497
sVmetadata
p5498
(dp5499
Vasp_retio
p5500
V1.33 : 1
p5501
sVsound_mix
p5502
(lp5503
VSilent
p5504
asVgross
p5505
g3
sVcountries
p5506
(lp5507
VUSA
p5508
asVbudget
p5509
g3
sVlanguages
p5510
(lp5511
sVfilming_locations
p5512
(lp5513
sValso_known_as
p5514
(lp5515
VLa gamine
p5516
assa(dp5517
Vrating
p5518
g3
sVdescription
p5519
g3
sVtitle
p5520
VStrme des Lebens
p5521
sVurl
p5522
(dp5523
Vurl
p5524
Vhttp://www.imdb.com/title/tt9664
p5525
ssVposter
p5526
(dp5527
Vlarge
p5528
Vhttp://ia.media-imdb.com/images/G/01/imdb/images/logos/imdb_fb_logo-1730868325._CB514892123_.png_V1_.jpg
p5529
sVthumb
p5530
g3
ssVrelease_date
p5531
g3
sVcontent_rating
p5532
g3
sVoriginal_title
p5533
g3
sVwriters
p5534
(lp5535
VFranz Hofer
p5536
asVimdb_id
p5537
Vtt0009664
p5538
sVdirector
p5539
VFranz Hofer
p5540
sVcast
p5541
(lp5542
(dp5543
Vlink
p5544
Vhttp://www.imdb.com/name/nm0041656/?ref_=tt_cl_t1
p5545
sVimage
p5546
g3
sVcharacter
p5547
g3
sVname
p5548
VCarl Auen
p5549
sa(dp5550
Vlink
p5551
Vhttp://www.imdb.com/name/nm1441445/?ref_=tt_cl_t2
p5552
sVimage
p5553
g3
sVcharacter
p5554
g3
sVname
p5555
VGrete Gerhardt
p5556
sa(dp5557
Vlink
p5558
Vhttp://www.imdb.com/name/nm0470328/?ref_=tt_cl_t3
p5559
sVimage
p5560
Vhttps://images-na.ssl-images-amazon.com/images/M/MV5BMTA1MTcyNzM0ODNeQTJeQWpwZ15BbWU4MDYwODYxNDMx._V1_UY44_CR12,0,32,44_AL_.jpg
p5561
sVcharacter
p5562
g3
sVname
p5563
VWerner Krauss
p5564
sa(dp5565
Vlink
p5566
Vhttp://www.imdb.com/name/nm0649932/?ref_=tt_cl_t4
p5567
sVimage
p5568
g3
sVcharacter
p5569
g3
sVname
p5570
VMartha Orlanda
p5571
sa(dp5572
Vlink
p5573
Vhttp://www.imdb.com/name/nm1442424/?ref_=tt_cl_t5
p5574
sVimage
p5575
g3
sVcharacter
p5576
g3
sVname
p5577
VOtto Petersen
p5578
sa(dp5579
Vlink
p5580
Vhttp://www.imdb.com/name/nm0830135/?ref_=tt_cl_t6
p5581
sVimage
p5582
g3
sVcharacter
p5583
g3
sVname
p5584
VMagnus Stifter
p5585
sasVlength
p5586
V40
p5587
sVrating_count
p5588
g3
sVstoryline
p5589
g3
sVstars
p5590
(lp5591
VCarl Auen
p5592
aVGrete Gerhardt
p5593
aVWerner Krauss
p5594
asVyear
p5595
V1918
p5596
sVgenre
p5597
(lp5598
sVtrailer
p5599
(lp5600
sVmetadata
p5601
(dp5602
Vasp_retio
p5603
V1.33 : 1
p5604
sVsound_mix
p5605
(lp5606
VSilent
p5607
asVgross
p5608
g3
sVcountries
p5609
(lp5610
VGermany
p5611
asVbudget
p5612
g3
sVlanguages
p5613
(lp5614
sVfilming_locations
p5615
(lp5616
sValso_known_as
p5617
(lp5618
ssa(dp5619
Vrating
p5620
g3
sVdescription
p5621
g3
sVtitle
p5622
VA Successful Adventure
p5623
sVurl
p5624
(dp5625
Vurl
p5626
Vhttp://www.imdb.com/title/tt9665
p5627
ssVposter
p5628
(dp5629
Vlarge
p5630
Vhttps://images-na.ssl-images-amazon.com/images/M/MV5BYjUwYTY1NTMtZTE0MS00Nzg4LTk5NDItMDUxMmZiYjU0M2VmXkEyXkFqcGdeQXVyNjEwMTA0NTc@._V1_.jpg
p5631
sVthumb
p5632
Vhttps://images-na.ssl-images-amazon.com/images/M/MV5BYjUwYTY1NTMtZTE0MS00Nzg4LTk5NDItMDUxMmZiYjU0M2VmXkEyXkFqcGdeQXVyNjEwMTA0NTc@._V1_UY268_CR2,0,182,268_AL_.jpg
p5633
ssVrelease_date
p5634
V1918-07-15
p5635
sVcontent_rating
p5636
g3
sVoriginal_title
p5637
g3
sVwriters
p5638
(lp5639
VKatharine Kavanaugh
p5640
aVJune Mathis
p5641
asVimdb_id
p5642
Vtt0009665
p5643
sVdirector
p5644
VHarry L. Franklin
p5645
sVcast
p5646
(lp5647
(dp5648
Vlink
p5649
Vhttp://www.imdb.com/name/nm0021471/?ref_=tt_cl_t1
p5650
sVimage
p5651
Vhttps://images-na.ssl-images-amazon.com/images/M/MV5BNjQzMzI0ODM5MV5BMl5BanBnXkFtZTgwNTgwNzY3MTE@._V1._CR89.88333129882812,129.53334045410156,569,756_UY44_CR0,0,32,44_AL_.jpg
p5652
sVcharacter
p5653
VVirginia Houston
p5654
sVname
p5655
VMay Allison
p5656
sa(dp5657
Vlink
p5658
Vhttp://www.imdb.com/name/nm0384949/?ref_=tt_cl_t2
p5659
sVimage
p5660
Vhttps://images-na.ssl-images-amazon.com/images/M/MV5BODU0YmU3NWEtOTEwZC00NmUxLWFjZTAtMjU1NTU0OTdhYTQ1XkEyXkFqcGdeQXVyMzI5NDcxNzI@._V1_UY44_CR1,0,32,44_AL_.jpg
p5661
sVcharacter
p5662
VPerry Arnold
p5663
sVname
p5664
VHarry Hilliard
p5665
sa(dp5666
Vlink
p5667
Vhttp://www.imdb.com/name/nm0193005/?ref_=tt_cl_t3
p5668
sVimage
p5669
Vhttps://images-na.ssl-images-amazon.com/images/M/MV5BMjJhNjZlYTAtZjgyYy00ZWNhLTg5ZDctYTc2ZDRlZjZiOWM3XkEyXkFqcGdeQXVyMzI5NDcxNzI@._UY317_CR16,0,214,317_AL_.jpg
p5670
sVcharacter
p5671
VLionel Houston
p5672
sVname
p5673
VFrank Currier
p5674
sa(dp5675
Vlink
p5676
Vhttp://www.imdb.com/name/nm0175067/?ref_=tt_cl_t4
p5677
sVimage
p5678
Vhttps://images-na.ssl-images-amazon.com/images/M/MV5BN2IxOTlhZDItMTVjNS00ZmMwLWFjMWQtMDkyNWRkMjA3NjcxXkEyXkFqcGdeQXVyMzI5NDcxNzI@._UY317_CR16,0,214,317_AL_.jpg
p5679
sVcharacter
p5680
VDaniel Houston
p5681
sVname
p5682
VEdward Connelly
p5683
sa(dp5684
Vlink
p5685
Vhttp://www.imdb.com/name/nm0562851/?ref_=tt_cl_t5
p5686
sVimage
p5687
Vhttps://images-na.ssl-images-amazon.com/images/M/MV5BMDdiMGIzMDYtMTVhNS00MTE0LTk2YzAtZjQ4N2FjMzEwNzAxXkEyXkFqcGdeQXVyMDUyOTUyNQ@@._UY317_CR16,0,214,317_AL_.jpg
p5688
sVcharacter
p5689
VRose Mason
p5690
sVname
p5691
VChristine Mayo
p5692
sa(dp5693
Vlink
p5694
Vhttp://www.imdb.com/name/nm0428083/?ref_=tt_cl_t6
p5695
sVimage
p5696
g3
sVcharacter
p5697
VHenry Du Bois
p5698
sVname
p5699
VFred C. Jones
p5700
sa(dp5701
Vlink
p5702
Vhttp://www.imdb.com/name/nm0087206/?ref_=tt_cl_t7
p5703
sVimage
p5704
g3
sVcharacter
p5705
VAunt Louise
p5706
sVname
p5707
VKate Blancke
p5708
sa(dp5709
Vlink
p5710
Vhttp://www.imdb.com/name/nm0218757/?ref_=tt_cl_t8
p5711
sVimage
p5712
g3
sVcharacter
p5713
VAunt Judy
p5714
sVname
p5715
VPauline Dempsey
p5716
sa(dp5717
Vlink
p5718
Vhttp://www.imdb.com/name/nm0125989/?ref_=tt_cl_t9
p5719
sVimage
p5720
g3
sVcharacter
p5721
VUncle Joshua
p5722
sVname
p5723
VAnthony Byrd
p5724
sa(dp5725
Vlink
p5726
Vhttp://www.imdb.com/name/nm0823582/?ref_=tt_cl_t10
p5727
sVimage
p5728
g3
sVcharacter
p5729
VUndetermined Role
p5730
sVname
p5731
VPhoebe Starr
p5732
sa(dp5733
Vlink
p5734
Vhttp://www.imdb.com/name/nm0829654/?ref_=tt_cl_t11
p5735
sVimage
p5736
g3
sVcharacter
p5737
VUndetermined Role       (as Maury Steuart)
p5738
sVname
p5739
VMaurice Steuart
p5740
sa(dp5741
Vlink
p5742
Vhttp://www.imdb.com/name/nm0649160/?ref_=tt_cl_t12
p5743
sVimage
p5744
g3
sVcharacter
p5745
VUndetermined Role
p5746
sVname
p5747
VHoward Oppenheim
p5748
sa(dp5749
Vlink
p5750
Vhttp://www.imdb.com/name/nm0396862/?ref_=tt_cl_t13
p5751
sVimage
p5752
g3
sVcharacter
p5753
VUndetermined Role
p5754
sVname
p5755
VLionel Houston
p5756
sa(dp5757
Vlink
p5758
Vhttp://www.imdb.com/name/nm0615618/?ref_=tt_cl_t14
p5759
sVimage
p5760
g3
sVcharacter
p5761
VUndetermined Role
p5762
sVname
p5763
VDion Muse
p5764
sasVlength
p5765
g3
sVrating_count
p5766
g3
sVstoryline
p5767
g3
sVstars
p5768
(lp5769
VMay Allison
p5770
aVHarry Hilliard
p5771
aVFrank Currier
p5772
asVyear
p5773
V1918
p5774
sVgenre
p5775
(lp5776
VRomance
p5777
aVComedy
p5778
aVDrama
p5779
asVtrailer
p5780
(lp5781
sVmetadata
p5782
(dp5783
Vasp_retio
p5784
V1.33 : 1
p5785
sVsound_mix
p5786
(lp5787
VSilent
p5788
asVgross
p5789
g3
sVcountries
p5790
(lp5791
VUSA
p5792
asVbudget
p5793
g3
sVlanguages
p5794
(lp5795
VEnglish
p5796
asVfilming_locations
p5797
(lp5798
sValso_known_as
p5799
(lp5800
VThe Way to a Man's Heart
p5801
assa(dp5802
Vrating
p5803
g3
sVdescription
p5804
g3
sVtitle
p5805
g3
sVurl
p5806
(dp5807
Vurl
p5808
Vhttp://www.imdb.com/title/tt9666
p5809
ssVposter
p5810
(dp5811
Vlarge
p5812
V_V1_.jpg
p5813
sVthumb
p5814
g3
ssVrelease_date
p5815
g3
sVcontent_rating
p5816
g3
sVoriginal_title
p5817
g3
sVwriters
p5818
(lp5819
sVimdb_id
p5820
g3
sVdirector
p5821
g3
sVcast
p5822
(lp5823
sVlength
p5824
g3
sVrating_count
p5825
g3
sVstoryline
p5826
g3
sVstars
p5827
(lp5828
sVyear
p5829
g3
sVgenre
p5830
(lp5831
sVtrailer
p5832
(lp5833
sVmetadata
p5834
(dp5835
Vasp_retio
p5836
g3
sVsound_mix
p5837
(lp5838
sVgross
p5839
g3
sVcountries
p5840
(lp5841
sVbudget
p5842
g3
sVlanguages
p5843
(lp5844
sVfilming_locations
p5845
(lp5846
sValso_known_as
p5847
(lp5848
ssa(dp5849
Vrating
p5850
g3
sVdescription
p5851
g3
sVtitle
p5852
g3
sVurl
p5853
(dp5854
Vurl
p5855
Vhttp://www.imdb.com/title/tt9667
p5856
ssVposter
p5857
(dp5858
Vlarge
p5859
V_V1_.jpg
p5860
sVthumb
p5861
g3
ssVrelease_date
p5862
g3
sVcontent_rating
p5863
g3
sVoriginal_title
p5864
g3
sVwriters
p5865
(lp5866
sVimdb_id
p5867
g3
sVdirector
p5868
g3
sVcast
p5869
(lp5870
sVlength
p5871
g3
sVrating_count
p5872
g3
sVstoryline
p5873
g3
sVstars
p5874
(lp5875
sVyear
p5876
g3
sVgenre
p5877
(lp5878
sVtrailer
p5879
(lp5880
sVmetadata
p5881
(dp5882
Vasp_retio
p5883
g3
sVsound_mix
p5884
(lp5885
sVgross
p5886
g3
sVcountries
p5887
(lp5888
sVbudget
p5889
g3
sVlanguages
p5890
(lp5891
sVfilming_locations
p5892
(lp5893
sValso_known_as
p5894
(lp5895
ssa(dp5896
Vrating
p5897
g3
sVdescription
p5898
g3
sVtitle
p5899
g3
sVurl
p5900
(dp5901
Vurl
p5902
Vhttp://www.imdb.com/title/tt9668
p5903
ssVposter
p5904
(dp5905
Vlarge
p5906
V_V1_.jpg
p5907
sVthumb
p5908
g3
ssVrelease_date
p5909
g3
sVcontent_rating
p5910
g3
sVoriginal_title
p5911
g3
sVwriters
p5912
(lp5913
sVimdb_id
p5914
g3
sVdirector
p5915
g3
sVcast
p5916
(lp5917
sVlength
p5918
g3
sVrating_count
p5919
g3
sVstoryline
p5920
g3
sVstars
p5921
(lp5922
sVyear
p5923
g3
sVgenre
p5924
(lp5925
sVtrailer
p5926
(lp5927
sVmetadata
p5928
(dp5929
Vasp_retio
p5930
g3
sVsound_mix
p5931
(lp5932
sVgross
p5933
g3
sVcountries
p5934
(lp5935
sVbudget
p5936
g3
sVlanguages
p5937
(lp5938
sVfilming_locations
p5939
(lp5940
sValso_known_as
p5941
(lp5942
ssa(dp5943
Vrating
p5944
g3
sVdescription
p5945
g3
sVtitle
p5946
g3
sVurl
p5947
(dp5948
Vurl
p5949
Vhttp://www.imdb.com/title/tt9669
p5950
ssVposter
p5951
(dp5952
Vlarge
p5953
V_V1_.jpg
p5954
sVthumb
p5955
g3
ssVrelease_date
p5956
g3
sVcontent_rating
p5957
g3
sVoriginal_title
p5958
g3
sVwriters
p5959
(lp5960
sVimdb_id
p5961
g3
sVdirector
p5962
g3
sVcast
p5963
(lp5964
sVlength
p5965
g3
sVrating_count
p5966
g3
sVstoryline
p5967
g3
sVstars
p5968
(lp5969
sVyear
p5970
g3
sVgenre
p5971
(lp5972
sVtrailer
p5973
(lp5974
sVmetadata
p5975
(dp5976
Vasp_retio
p5977
g3
sVsound_mix
p5978
(lp5979
sVgross
p5980
g3
sVcountries
p5981
(lp5982
sVbudget
p5983
g3
sVlanguages
p5984
(lp5985
sVfilming_locations
p5986
(lp5987
sValso_known_as
p5988
(lp5989
ssa(dp5990
Vrating
p5991
g3
sVdescription
p5992
g3
sVtitle
p5993
g3
sVurl
p5994
(dp5995
Vurl
p5996
Vhttp://www.imdb.com/title/tt9670
p5997
ssVposter
p5998
(dp5999
Vlarge
p6000
V_V1_.jpg
p6001
sVthumb
p6002
g3
ssVrelease_date
p6003
g3
sVcontent_rating
p6004
g3
sVoriginal_title
p6005
g3
sVwriters
p6006
(lp6007
sVimdb_id
p6008
g3
sVdirector
p6009
g3
sVcast
p6010
(lp6011
sVlength
p6012
g3
sVrating_count
p6013
g3
sVstoryline
p6014
g3
sVstars
p6015
(lp6016
sVyear
p6017
g3
sVgenre
p6018
(lp6019
sVtrailer
p6020
(lp6021
sVmetadata
p6022
(dp6023
Vasp_retio
p6024
g3
sVsound_mix
p6025
(lp6026
sVgross
p6027
g3
sVcountries
p6028
(lp6029
sVbudget
p6030
g3
sVlanguages
p6031
(lp6032
sVfilming_locations
p6033
(lp6034
sValso_known_as
p6035
(lp6036
ssa(dp6037
Vrating
p6038
g3
sVdescription
p6039
g3
sVtitle
p6040
g3
sVurl
p6041
(dp6042
Vurl
p6043
Vhttp://www.imdb.com/title/tt9671
p6044
ssVposter
p6045
(dp6046
Vlarge
p6047
V_V1_.jpg
p6048
sVthumb
p6049
g3
ssVrelease_date
p6050
g3
sVcontent_rating
p6051
g3
sVoriginal_title
p6052
g3
sVwriters
p6053
(lp6054
sVimdb_id
p6055
g3
sVdirector
p6056
g3
sVcast
p6057
(lp6058
sVlength
p6059
g3
sVrating_count
p6060
g3
sVstoryline
p6061
g3
sVstars
p6062
(lp6063
sVyear
p6064
g3
sVgenre
p6065
(lp6066
sVtrailer
p6067
(lp6068
sVmetadata
p6069
(dp6070
Vasp_retio
p6071
g3
sVsound_mix
p6072
(lp6073
sVgross
p6074
g3
sVcountries
p6075
(lp6076
sVbudget
p6077
g3
sVlanguages
p6078
(lp6079
sVfilming_locations
p6080
(lp6081
sValso_known_as
p6082
(lp6083
ssa(dp6084
Vrating
p6085
g3
sVdescription
p6086
g3
sVtitle
p6087
g3
sVurl
p6088
(dp6089
Vurl
p6090
Vhttp://www.imdb.com/title/tt9672
p6091
ssVposter
p6092
(dp6093
Vlarge
p6094
V_V1_.jpg
p6095
sVthumb
p6096
g3
ssVrelease_date
p6097
g3
sVcontent_rating
p6098
g3
sVoriginal_title
p6099
g3
sVwriters
p6100
(lp6101
sVimdb_id
p6102
g3
sVdirector
p6103
g3
sVcast
p6104
(lp6105
sVlength
p6106
g3
sVrating_count
p6107
g3
sVstoryline
p6108
g3
sVstars
p6109
(lp6110
sVyear
p6111
g3
sVgenre
p6112
(lp6113
sVtrailer
p6114
(lp6115
sVmetadata
p6116
(dp6117
Vasp_retio
p6118
g3
sVsound_mix
p6119
(lp6120
sVgross
p6121
g3
sVcountries
p6122
(lp6123
sVbudget
p6124
g3
sVlanguages
p6125
(lp6126
sVfilming_locations
p6127
(lp6128
sValso_known_as
p6129
(lp6130
ssa(dp6131
Vrating
p6132
g3
sVdescription
p6133
g3
sVtitle
p6134
g3
sVurl
p6135
(dp6136
Vurl
p6137
Vhttp://www.imdb.com/title/tt9673
p6138
ssVposter
p6139
(dp6140
Vlarge
p6141
V_V1_.jpg
p6142
sVthumb
p6143
g3
ssVrelease_date
p6144
g3
sVcontent_rating
p6145
g3
sVoriginal_title
p6146
g3
sVwriters
p6147
(lp6148
sVimdb_id
p6149
g3
sVdirector
p6150
g3
sVcast
p6151
(lp6152
sVlength
p6153
g3
sVrating_count
p6154
g3
sVstoryline
p6155
g3
sVstars
p6156
(lp6157
sVyear
p6158
g3
sVgenre
p6159
(lp6160
sVtrailer
p6161
(lp6162
sVmetadata
p6163
(dp6164
Vasp_retio
p6165
g3
sVsound_mix
p6166
(lp6167
sVgross
p6168
g3
sVcountries
p6169
(lp6170
sVbudget
p6171
g3
sVlanguages
p6172
(lp6173
sVfilming_locations
p6174
(lp6175
sValso_known_as
p6176
(lp6177
ssa(dp6178
Vrating
p6179
g3
sVdescription
p6180
g3
sVtitle
p6181
g3
sVurl
p6182
(dp6183
Vurl
p6184
Vhttp://www.imdb.com/title/tt9674
p6185
ssVposter
p6186
(dp6187
Vlarge
p6188
V_V1_.jpg
p6189
sVthumb
p6190
g3
ssVrelease_date
p6191
g3
sVcontent_rating
p6192
g3
sVoriginal_title
p6193
g3
sVwriters
p6194
(lp6195
sVimdb_id
p6196
g3
sVdirector
p6197
g3
sVcast
p6198
(lp6199
sVlength
p6200
g3
sVrating_count
p6201
g3
sVstoryline
p6202
g3
sVstars
p6203
(lp6204
sVyear
p6205
g3
sVgenre
p6206
(lp6207
sVtrailer
p6208
(lp6209
sVmetadata
p6210
(dp6211
Vasp_retio
p6212
g3
sVsound_mix
p6213
(lp6214
sVgross
p6215
g3
sVcountries
p6216
(lp6217
sVbudget
p6218
g3
sVlanguages
p6219
(lp6220
sVfilming_locations
p6221
(lp6222
sValso_known_as
p6223
(lp6224
ssa(dp6225
Vrating
p6226
g3
sVdescription
p6227
g3
sVtitle
p6228
g3
sVurl
p6229
(dp6230
Vurl
p6231
Vhttp://www.imdb.com/title/tt9675
p6232
ssVposter
p6233
(dp6234
Vlarge
p6235
V_V1_.jpg
p6236
sVthumb
p6237
g3
ssVrelease_date
p6238
g3
sVcontent_rating
p6239
g3
sVoriginal_title
p6240
g3
sVwriters
p6241
(lp6242
sVimdb_id
p6243
g3
sVdirector
p6244
g3
sVcast
p6245
(lp6246
sVlength
p6247
g3
sVrating_count
p6248
g3
sVstoryline
p6249
g3
sVstars
p6250
(lp6251
sVyear
p6252
g3
sVgenre
p6253
(lp6254
sVtrailer
p6255
(lp6256
sVmetadata
p6257
(dp6258
Vasp_retio
p6259
g3
sVsound_mix
p6260
(lp6261
sVgross
p6262
g3
sVcountries
p6263
(lp6264
sVbudget
p6265
g3
sVlanguages
p6266
(lp6267
sVfilming_locations
p6268
(lp6269
sValso_known_as
p6270
(lp6271
ssa(dp6272
Vrating
p6273
g3
sVdescription
p6274
g3
sVtitle
p6275
g3
sVurl
p6276
(dp6277
Vurl
p6278
Vhttp://www.imdb.com/title/tt9676
p6279
ssVposter
p6280
(dp6281
Vlarge
p6282
V_V1_.jpg
p6283
sVthumb
p6284
g3
ssVrelease_date
p6285
g3
sVcontent_rating
p6286
g3
sVoriginal_title
p6287
g3
sVwriters
p6288
(lp6289
sVimdb_id
p6290
g3
sVdirector
p6291
g3
sVcast
p6292
(lp6293
sVlength
p6294
g3
sVrating_count
p6295
g3
sVstoryline
p6296
g3
sVstars
p6297
(lp6298
sVyear
p6299
g3
sVgenre
p6300
(lp6301
sVtrailer
p6302
(lp6303
sVmetadata
p6304
(dp6305
Vasp_retio
p6306
g3
sVsound_mix
p6307
(lp6308
sVgross
p6309
g3
sVcountries
p6310
(lp6311
sVbudget
p6312
g3
sVlanguages
p6313
(lp6314
sVfilming_locations
p6315
(lp6316
sValso_known_as
p6317
(lp6318
ssa(dp6319
Vrating
p6320
g3
sVdescription
p6321
g3
sVtitle
p6322
g3
sVurl
p6323
(dp6324
Vurl
p6325
Vhttp://www.imdb.com/title/tt9677
p6326
ssVposter
p6327
(dp6328
Vlarge
p6329
V_V1_.jpg
p6330
sVthumb
p6331
g3
ssVrelease_date
p6332
g3
sVcontent_rating
p6333
g3
sVoriginal_title
p6334
g3
sVwriters
p6335
(lp6336
sVimdb_id
p6337
g3
sVdirector
p6338
g3
sVcast
p6339
(lp6340
sVlength
p6341
g3
sVrating_count
p6342
g3
sVstoryline
p6343
g3
sVstars
p6344
(lp6345
sVyear
p6346
g3
sVgenre
p6347
(lp6348
sVtrailer
p6349
(lp6350
sVmetadata
p6351
(dp6352
Vasp_retio
p6353
g3
sVsound_mix
p6354
(lp6355
sVgross
p6356
g3
sVcountries
p6357
(lp6358
sVbudget
p6359
g3
sVlanguages
p6360
(lp6361
sVfilming_locations
p6362
(lp6363
sValso_known_as
p6364
(lp6365
ssa(dp6366
Vrating
p6367
g3
sVdescription
p6368
g3
sVtitle
p6369
g3
sVurl
p6370
(dp6371
Vurl
p6372
Vhttp://www.imdb.com/title/tt9678
p6373
ssVposter
p6374
(dp6375
Vlarge
p6376
V_V1_.jpg
p6377
sVthumb
p6378
g3
ssVrelease_date
p6379
g3
sVcontent_rating
p6380
g3
sVoriginal_title
p6381
g3
sVwriters
p6382
(lp6383
sVimdb_id
p6384
g3
sVdirector
p6385
g3
sVcast
p6386
(lp6387
sVlength
p6388
g3
sVrating_count
p6389
g3
sVstoryline
p6390
g3
sVstars
p6391
(lp6392
sVyear
p6393
g3
sVgenre
p6394
(lp6395
sVtrailer
p6396
(lp6397
sVmetadata
p6398
(dp6399
Vasp_retio
p6400
g3
sVsound_mix
p6401
(lp6402
sVgross
p6403
g3
sVcountries
p6404
(lp6405
sVbudget
p6406
g3
sVlanguages
p6407
(lp6408
sVfilming_locations
p6409
(lp6410
sValso_known_as
p6411
(lp6412
ssa(dp6413
Vrating
p6414
g3
sVdescription
p6415
g3
sVtitle
p6416
g3
sVurl
p6417
(dp6418
Vurl
p6419
Vhttp://www.imdb.com/title/tt9679
p6420
ssVposter
p6421
(dp6422
Vlarge
p6423
V_V1_.jpg
p6424
sVthumb
p6425
g3
ssVrelease_date
p6426
g3
sVcontent_rating
p6427
g3
sVoriginal_title
p6428
g3
sVwriters
p6429
(lp6430
sVimdb_id
p6431
g3
sVdirector
p6432
g3
sVcast
p6433
(lp6434
sVlength
p6435
g3
sVrating_count
p6436
g3
sVstoryline
p6437
g3
sVstars
p6438
(lp6439
sVyear
p6440
g3
sVgenre
p6441
(lp6442
sVtrailer
p6443
(lp6444
sVmetadata
p6445
(dp6446
Vasp_retio
p6447
g3
sVsound_mix
p6448
(lp6449
sVgross
p6450
g3
sVcountries
p6451
(lp6452
sVbudget
p6453
g3
sVlanguages
p6454
(lp6455
sVfilming_locations
p6456
(lp6457
sValso_known_as
p6458
(lp6459
ssa(dp6460
Vrating
p6461
g3
sVdescription
p6462
g3
sVtitle
p6463
g3
sVurl
p6464
(dp6465
Vurl
p6466
Vhttp://www.imdb.com/title/tt9680
p6467
ssVposter
p6468
(dp6469
Vlarge
p6470
V_V1_.jpg
p6471
sVthumb
p6472
g3
ssVrelease_date
p6473
g3
sVcontent_rating
p6474
g3
sVoriginal_title
p6475
g3
sVwriters
p6476
(lp6477
sVimdb_id
p6478
g3
sVdirector
p6479
g3
sVcast
p6480
(lp6481
sVlength
p6482
g3
sVrating_count
p6483
g3
sVstoryline
p6484
g3
sVstars
p6485
(lp6486
sVyear
p6487
g3
sVgenre
p6488
(lp6489
sVtrailer
p6490
(lp6491
sVmetadata
p6492
(dp6493
Vasp_retio
p6494
g3
sVsound_mix
p6495
(lp6496
sVgross
p6497
g3
sVcountries
p6498
(lp6499
sVbudget
p6500
g3
sVlanguages
p6501
(lp6502
sVfilming_locations
p6503
(lp6504
sValso_known_as
p6505
(lp6506
ssa(dp6507
Vrating
p6508
g3
sVdescription
p6509
g3
sVtitle
p6510
g3
sVurl
p6511
(dp6512
Vurl
p6513
Vhttp://www.imdb.com/title/tt9681
p6514
ssVposter
p6515
(dp6516
Vlarge
p6517
V_V1_.jpg
p6518
sVthumb
p6519
g3
ssVrelease_date
p6520
g3
sVcontent_rating
p6521
g3
sVoriginal_title
p6522
g3
sVwriters
p6523
(lp6524
sVimdb_id
p6525
g3
sVdirector
p6526
g3
sVcast
p6527
(lp6528
sVlength
p6529
g3
sVrating_count
p6530
g3
sVstoryline
p6531
g3
sVstars
p6532
(lp6533
sVyear
p6534
g3
sVgenre
p6535
(lp6536
sVtrailer
p6537
(lp6538
sVmetadata
p6539
(dp6540
Vasp_retio
p6541
g3
sVsound_mix
p6542
(lp6543
sVgross
p6544
g3
sVcountries
p6545
(lp6546
sVbudget
p6547
g3
sVlanguages
p6548
(lp6549
sVfilming_locations
p6550
(lp6551
sValso_known_as
p6552
(lp6553
ssa(dp6554
Vrating
p6555
g3
sVdescription
p6556
g3
sVtitle
p6557
g3
sVurl
p6558
(dp6559
Vurl
p6560
Vhttp://www.imdb.com/title/tt9682
p6561
ssVposter
p6562
(dp6563
Vlarge
p6564
V_V1_.jpg
p6565
sVthumb
p6566
g3
ssVrelease_date
p6567
g3
sVcontent_rating
p6568
g3
sVoriginal_title
p6569
g3
sVwriters
p6570
(lp6571
sVimdb_id
p6572
g3
sVdirector
p6573
g3
sVcast
p6574
(lp6575
sVlength
p6576
g3
sVrating_count
p6577
g3
sVstoryline
p6578
g3
sVstars
p6579
(lp6580
sVyear
p6581
g3
sVgenre
p6582
(lp6583
sVtrailer
p6584
(lp6585
sVmetadata
p6586
(dp6587
Vasp_retio
p6588
g3
sVsound_mix
p6589
(lp6590
sVgross
p6591
g3
sVcountries
p6592
(lp6593
sVbudget
p6594
g3
sVlanguages
p6595
(lp6596
sVfilming_locations
p6597
(lp6598
sValso_known_as
p6599
(lp6600
ssa(dp6601
Vrating
p6602
g3
sVdescription
p6603
g3
sVtitle
p6604
g3
sVurl
p6605
(dp6606
Vurl
p6607
Vhttp://www.imdb.com/title/tt9683
p6608
ssVposter
p6609
(dp6610
Vlarge
p6611
V_V1_.jpg
p6612
sVthumb
p6613
g3
ssVrelease_date
p6614
g3
sVcontent_rating
p6615
g3
sVoriginal_title
p6616
g3
sVwriters
p6617
(lp6618
sVimdb_id
p6619
g3
sVdirector
p6620
g3
sVcast
p6621
(lp6622
sVlength
p6623
g3
sVrating_count
p6624
g3
sVstoryline
p6625
g3
sVstars
p6626
(lp6627
sVyear
p6628
g3
sVgenre
p6629
(lp6630
sVtrailer
p6631
(lp6632
sVmetadata
p6633
(dp6634
Vasp_retio
p6635
g3
sVsound_mix
p6636
(lp6637
sVgross
p6638
g3
sVcountries
p6639
(lp6640
sVbudget
p6641
g3
sVlanguages
p6642
(lp6643
sVfilming_locations
p6644
(lp6645
sValso_known_as
p6646
(lp6647
ssa(dp6648
Vrating
p6649
g3
sVdescription
p6650
g3
sVtitle
p6651
g3
sVurl
p6652
(dp6653
Vurl
p6654
Vhttp://www.imdb.com/title/tt9684
p6655
ssVposter
p6656
(dp6657
Vlarge
p6658
V_V1_.jpg
p6659
sVthumb
p6660
g3
ssVrelease_date
p6661
g3
sVcontent_rating
p6662
g3
sVoriginal_title
p6663
g3
sVwriters
p6664
(lp6665
sVimdb_id
p6666
g3
sVdirector
p6667
g3
sVcast
p6668
(lp6669
sVlength
p6670
g3
sVrating_count
p6671
g3
sVstoryline
p6672
g3
sVstars
p6673
(lp6674
sVyear
p6675
g3
sVgenre
p6676
(lp6677
sVtrailer
p6678
(lp6679
sVmetadata
p6680
(dp6681
Vasp_retio
p6682
g3
sVsound_mix
p6683
(lp6684
sVgross
p6685
g3
sVcountries
p6686
(lp6687
sVbudget
p6688
g3
sVlanguages
p6689
(lp6690
sVfilming_locations
p6691
(lp6692
sValso_known_as
p6693
(lp6694
ssa(dp6695
Vrating
p6696
g3
sVdescription
p6697
g3
sVtitle
p6698
g3
sVurl
p6699
(dp6700
Vurl
p6701
Vhttp://www.imdb.com/title/tt9685
p6702
ssVposter
p6703
(dp6704
Vlarge
p6705
V_V1_.jpg
p6706
sVthumb
p6707
g3
ssVrelease_date
p6708
g3
sVcontent_rating
p6709
g3
sVoriginal_title
p6710
g3
sVwriters
p6711
(lp6712
sVimdb_id
p6713
g3
sVdirector
p6714
g3
sVcast
p6715
(lp6716
sVlength
p6717
g3
sVrating_count
p6718
g3
sVstoryline
p6719
g3
sVstars
p6720
(lp6721
sVyear
p6722
g3
sVgenre
p6723
(lp6724
sVtrailer
p6725
(lp6726
sVmetadata
p6727
(dp6728
Vasp_retio
p6729
g3
sVsound_mix
p6730
(lp6731
sVgross
p6732
g3
sVcountries
p6733
(lp6734
sVbudget
p6735
g3
sVlanguages
p6736
(lp6737
sVfilming_locations
p6738
(lp6739
sValso_known_as
p6740
(lp6741
ssa(dp6742
Vrating
p6743
g3
sVdescription
p6744
g3
sVtitle
p6745
g3
sVurl
p6746
(dp6747
Vurl
p6748
Vhttp://www.imdb.com/title/tt9686
p6749
ssVposter
p6750
(dp6751
Vlarge
p6752
V_V1_.jpg
p6753
sVthumb
p6754
g3
ssVrelease_date
p6755
g3
sVcontent_rating
p6756
g3
sVoriginal_title
p6757
g3
sVwriters
p6758
(lp6759
sVimdb_id
p6760
g3
sVdirector
p6761
g3
sVcast
p6762
(lp6763
sVlength
p6764
g3
sVrating_count
p6765
g3
sVstoryline
p6766
g3
sVstars
p6767
(lp6768
sVyear
p6769
g3
sVgenre
p6770
(lp6771
sVtrailer
p6772
(lp6773
sVmetadata
p6774
(dp6775
Vasp_retio
p6776
g3
sVsound_mix
p6777
(lp6778
sVgross
p6779
g3
sVcountries
p6780
(lp6781
sVbudget
p6782
g3
sVlanguages
p6783
(lp6784
sVfilming_locations
p6785
(lp6786
sValso_known_as
p6787
(lp6788
ssa(dp6789
Vrating
p6790
g3
sVdescription
p6791
g3
sVtitle
p6792
g3
sVurl
p6793
(dp6794
Vurl
p6795
Vhttp://www.imdb.com/title/tt9687
p6796
ssVposter
p6797
(dp6798
Vlarge
p6799
V_V1_.jpg
p6800
sVthumb
p6801
g3
ssVrelease_date
p6802
g3
sVcontent_rating
p6803
g3
sVoriginal_title
p6804
g3
sVwriters
p6805
(lp6806
sVimdb_id
p6807
g3
sVdirector
p6808
g3
sVcast
p6809
(lp6810
sVlength
p6811
g3
sVrating_count
p6812
g3
sVstoryline
p6813
g3
sVstars
p6814
(lp6815
sVyear
p6816
g3
sVgenre
p6817
(lp6818
sVtrailer
p6819
(lp6820
sVmetadata
p6821
(dp6822
Vasp_retio
p6823
g3
sVsound_mix
p6824
(lp6825
sVgross
p6826
g3
sVcountries
p6827
(lp6828
sVbudget
p6829
g3
sVlanguages
p6830
(lp6831
sVfilming_locations
p6832
(lp6833
sValso_known_as
p6834
(lp6835
ssa(dp6836
Vrating
p6837
g3
sVdescription
p6838
g3
sVtitle
p6839
g3
sVurl
p6840
(dp6841
Vurl
p6842
Vhttp://www.imdb.com/title/tt9688
p6843
ssVposter
p6844
(dp6845
Vlarge
p6846
V_V1_.jpg
p6847
sVthumb
p6848
g3
ssVrelease_date
p6849
g3
sVcontent_rating
p6850
g3
sVoriginal_title
p6851
g3
sVwriters
p6852
(lp6853
sVimdb_id
p6854
g3
sVdirector
p6855
g3
sVcast
p6856
(lp6857
sVlength
p6858
g3
sVrating_count
p6859
g3
sVstoryline
p6860
g3
sVstars
p6861
(lp6862
sVyear
p6863
g3
sVgenre
p6864
(lp6865
sVtrailer
p6866
(lp6867
sVmetadata
p6868
(dp6869
Vasp_retio
p6870
g3
sVsound_mix
p6871
(lp6872
sVgross
p6873
g3
sVcountries
p6874
(lp6875
sVbudget
p6876
g3
sVlanguages
p6877
(lp6878
sVfilming_locations
p6879
(lp6880
sValso_known_as
p6881
(lp6882
ssa(dp6883
Vrating
p6884
g3
sVdescription
p6885
g3
sVtitle
p6886
g3
sVurl
p6887
(dp6888
Vurl
p6889
Vhttp://www.imdb.com/title/tt9689
p6890
ssVposter
p6891
(dp6892
Vlarge
p6893
V_V1_.jpg
p6894
sVthumb
p6895
g3
ssVrelease_date
p6896
g3
sVcontent_rating
p6897
g3
sVoriginal_title
p6898
g3
sVwriters
p6899
(lp6900
sVimdb_id
p6901
g3
sVdirector
p6902
g3
sVcast
p6903
(lp6904
sVlength
p6905
g3
sVrating_count
p6906
g3
sVstoryline
p6907
g3
sVstars
p6908
(lp6909
sVyear
p6910
g3
sVgenre
p6911
(lp6912
sVtrailer
p6913
(lp6914
sVmetadata
p6915
(dp6916
Vasp_retio
p6917
g3
sVsound_mix
p6918
(lp6919
sVgross
p6920
g3
sVcountries
p6921
(lp6922
sVbudget
p6923
g3
sVlanguages
p6924
(lp6925
sVfilming_locations
p6926
(lp6927
sValso_known_as
p6928
(lp6929
ssa(dp6930
Vrating
p6931
g3
sVdescription
p6932
g3
sVtitle
p6933
g3
sVurl
p6934
(dp6935
Vurl
p6936
Vhttp://www.imdb.com/title/tt9690
p6937
ssVposter
p6938
(dp6939
Vlarge
p6940
V_V1_.jpg
p6941
sVthumb
p6942
g3
ssVrelease_date
p6943
g3
sVcontent_rating
p6944
g3
sVoriginal_title
p6945
g3
sVwriters
p6946
(lp6947
sVimdb_id
p6948
g3
sVdirector
p6949
g3
sVcast
p6950
(lp6951
sVlength
p6952
g3
sVrating_count
p6953
g3
sVstoryline
p6954
g3
sVstars
p6955
(lp6956
sVyear
p6957
g3
sVgenre
p6958
(lp6959
sVtrailer
p6960
(lp6961
sVmetadata
p6962
(dp6963
Vasp_retio
p6964
g3
sVsound_mix
p6965
(lp6966
sVgross
p6967
g3
sVcountries
p6968
(lp6969
sVbudget
p6970
g3
sVlanguages
p6971
(lp6972
sVfilming_locations
p6973
(lp6974
sValso_known_as
p6975
(lp6976
ssa(dp6977
Vrating
p6978
g3
sVdescription
p6979
g3
sVtitle
p6980
g3
sVurl
p6981
(dp6982
Vurl
p6983
Vhttp://www.imdb.com/title/tt9691
p6984
ssVposter
p6985
(dp6986
Vlarge
p6987
V_V1_.jpg
p6988
sVthumb
p6989
g3
ssVrelease_date
p6990
g3
sVcontent_rating
p6991
g3
sVoriginal_title
p6992
g3
sVwriters
p6993
(lp6994
sVimdb_id
p6995
g3
sVdirector
p6996
g3
sVcast
p6997
(lp6998
sVlength
p6999
g3
sVrating_count
p7000
g3
sVstoryline
p7001
g3
sVstars
p7002
(lp7003
sVyear
p7004
g3
sVgenre
p7005
(lp7006
sVtrailer
p7007
(lp7008
sVmetadata
p7009
(dp7010
Vasp_retio
p7011
g3
sVsound_mix
p7012
(lp7013
sVgross
p7014
g3
sVcountries
p7015
(lp7016
sVbudget
p7017
g3
sVlanguages
p7018
(lp7019
sVfilming_locations
p7020
(lp7021
sValso_known_as
p7022
(lp7023
ssa(dp7024
Vrating
p7025
g3
sVdescription
p7026
g3
sVtitle
p7027
g3
sVurl
p7028
(dp7029
Vurl
p7030
Vhttp://www.imdb.com/title/tt9692
p7031
ssVposter
p7032
(dp7033
Vlarge
p7034
V_V1_.jpg
p7035
sVthumb
p7036
g3
ssVrelease_date
p7037
g3
sVcontent_rating
p7038
g3
sVoriginal_title
p7039
g3
sVwriters
p7040
(lp7041
sVimdb_id
p7042
g3
sVdirector
p7043
g3
sVcast
p7044
(lp7045
sVlength
p7046
g3
sVrating_count
p7047
g3
sVstoryline
p7048
g3
sVstars
p7049
(lp7050
sVyear
p7051
g3
sVgenre
p7052
(lp7053
sVtrailer
p7054
(lp7055
sVmetadata
p7056
(dp7057
Vasp_retio
p7058
g3
sVsound_mix
p7059
(lp7060
sVgross
p7061
g3
sVcountries
p7062
(lp7063
sVbudget
p7064
g3
sVlanguages
p7065
(lp7066
sVfilming_locations
p7067
(lp7068
sValso_known_as
p7069
(lp7070
ssa(dp7071
Vrating
p7072
g3
sVdescription
p7073
g3
sVtitle
p7074
g3
sVurl
p7075
(dp7076
Vurl
p7077
Vhttp://www.imdb.com/title/tt9693
p7078
ssVposter
p7079
(dp7080
Vlarge
p7081
V_V1_.jpg
p7082
sVthumb
p7083
g3
ssVrelease_date
p7084
g3
sVcontent_rating
p7085
g3
sVoriginal_title
p7086
g3
sVwriters
p7087
(lp7088
sVimdb_id
p7089
g3
sVdirector
p7090
g3
sVcast
p7091
(lp7092
sVlength
p7093
g3
sVrating_count
p7094
g3
sVstoryline
p7095
g3
sVstars
p7096
(lp7097
sVyear
p7098
g3
sVgenre
p7099
(lp7100
sVtrailer
p7101
(lp7102
sVmetadata
p7103
(dp7104
Vasp_retio
p7105
g3
sVsound_mix
p7106
(lp7107
sVgross
p7108
g3
sVcountries
p7109
(lp7110
sVbudget
p7111
g3
sVlanguages
p7112
(lp7113
sVfilming_locations
p7114
(lp7115
sValso_known_as
p7116
(lp7117
ssa(dp7118
Vrating
p7119
g3
sVdescription
p7120
g3
sVtitle
p7121
g3
sVurl
p7122
(dp7123
Vurl
p7124
Vhttp://www.imdb.com/title/tt9694
p7125
ssVposter
p7126
(dp7127
Vlarge
p7128
V_V1_.jpg
p7129
sVthumb
p7130
g3
ssVrelease_date
p7131
g3
sVcontent_rating
p7132
g3
sVoriginal_title
p7133
g3
sVwriters
p7134
(lp7135
sVimdb_id
p7136
g3
sVdirector
p7137
g3
sVcast
p7138
(lp7139
sVlength
p7140
g3
sVrating_count
p7141
g3
sVstoryline
p7142
g3
sVstars
p7143
(lp7144
sVyear
p7145
g3
sVgenre
p7146
(lp7147
sVtrailer
p7148
(lp7149
sVmetadata
p7150
(dp7151
Vasp_retio
p7152
g3
sVsound_mix
p7153
(lp7154
sVgross
p7155
g3
sVcountries
p7156
(lp7157
sVbudget
p7158
g3
sVlanguages
p7159
(lp7160
sVfilming_locations
p7161
(lp7162
sValso_known_as
p7163
(lp7164
ssa(dp7165
Vrating
p7166
g3
sVdescription
p7167
g3
sVtitle
p7168
g3
sVurl
p7169
(dp7170
Vurl
p7171
Vhttp://www.imdb.com/title/tt9695
p7172
ssVposter
p7173
(dp7174
Vlarge
p7175
V_V1_.jpg
p7176
sVthumb
p7177
g3
ssVrelease_date
p7178
g3
sVcontent_rating
p7179
g3
sVoriginal_title
p7180
g3
sVwriters
p7181
(lp7182
sVimdb_id
p7183
g3
sVdirector
p7184
g3
sVcast
p7185
(lp7186
sVlength
p7187
g3
sVrating_count
p7188
g3
sVstoryline
p7189
g3
sVstars
p7190
(lp7191
sVyear
p7192
g3
sVgenre
p7193
(lp7194
sVtrailer
p7195
(lp7196
sVmetadata
p7197
(dp7198
Vasp_retio
p7199
g3
sVsound_mix
p7200
(lp7201
sVgross
p7202
g3
sVcountries
p7203
(lp7204
sVbudget
p7205
g3
sVlanguages
p7206
(lp7207
sVfilming_locations
p7208
(lp7209
sValso_known_as
p7210
(lp7211
ssa(dp7212
Vrating
p7213
g3
sVdescription
p7214
g3
sVtitle
p7215
g3
sVurl
p7216
(dp7217
Vurl
p7218
Vhttp://www.imdb.com/title/tt9696
p7219
ssVposter
p7220
(dp7221
Vlarge
p7222
V_V1_.jpg
p7223
sVthumb
p7224
g3
ssVrelease_date
p7225
g3
sVcontent_rating
p7226
g3
sVoriginal_title
p7227
g3
sVwriters
p7228
(lp7229
sVimdb_id
p7230
g3
sVdirector
p7231
g3
sVcast
p7232
(lp7233
sVlength
p7234
g3
sVrating_count
p7235
g3
sVstoryline
p7236
g3
sVstars
p7237
(lp7238
sVyear
p7239
g3
sVgenre
p7240
(lp7241
sVtrailer
p7242
(lp7243
sVmetadata
p7244
(dp7245
Vasp_retio
p7246
g3
sVsound_mix
p7247
(lp7248
sVgross
p7249
g3
sVcountries
p7250
(lp7251
sVbudget
p7252
g3
sVlanguages
p7253
(lp7254
sVfilming_locations
p7255
(lp7256
sValso_known_as
p7257
(lp7258
ssa(dp7259
Vrating
p7260
g3
sVdescription
p7261
g3
sVtitle
p7262
g3
sVurl
p7263
(dp7264
Vurl
p7265
Vhttp://www.imdb.com/title/tt9697
p7266
ssVposter
p7267
(dp7268
Vlarge
p7269
V_V1_.jpg
p7270
sVthumb
p7271
g3
ssVrelease_date
p7272
g3
sVcontent_rating
p7273
g3
sVoriginal_title
p7274
g3
sVwriters
p7275
(lp7276
sVimdb_id
p7277
g3
sVdirector
p7278
g3
sVcast
p7279
(lp7280
sVlength
p7281
g3
sVrating_count
p7282
g3
sVstoryline
p7283
g3
sVstars
p7284
(lp7285
sVyear
p7286
g3
sVgenre
p7287
(lp7288
sVtrailer
p7289
(lp7290
sVmetadata
p7291
(dp7292
Vasp_retio
p7293
g3
sVsound_mix
p7294
(lp7295
sVgross
p7296
g3
sVcountries
p7297
(lp7298
sVbudget
p7299
g3
sVlanguages
p7300
(lp7301
sVfilming_locations
p7302
(lp7303
sValso_known_as
p7304
(lp7305
ssa(dp7306
Vrating
p7307
g3
sVdescription
p7308
g3
sVtitle
p7309
g3
sVurl
p7310
(dp7311
Vurl
p7312
Vhttp://www.imdb.com/title/tt9698
p7313
ssVposter
p7314
(dp7315
Vlarge
p7316
V_V1_.jpg
p7317
sVthumb
p7318
g3
ssVrelease_date
p7319
g3
sVcontent_rating
p7320
g3
sVoriginal_title
p7321
g3
sVwriters
p7322
(lp7323
sVimdb_id
p7324
g3
sVdirector
p7325
g3
sVcast
p7326
(lp7327
sVlength
p7328
g3
sVrating_count
p7329
g3
sVstoryline
p7330
g3
sVstars
p7331
(lp7332
sVyear
p7333
g3
sVgenre
p7334
(lp7335
sVtrailer
p7336
(lp7337
sVmetadata
p7338
(dp7339
Vasp_retio
p7340
g3
sVsound_mix
p7341
(lp7342
sVgross
p7343
g3
sVcountries
p7344
(lp7345
sVbudget
p7346
g3
sVlanguages
p7347
(lp7348
sVfilming_locations
p7349
(lp7350
sValso_known_as
p7351
(lp7352
ssa(dp7353
Vrating
p7354
g3
sVdescription
p7355
g3
sVtitle
p7356
g3
sVurl
p7357
(dp7358
Vurl
p7359
Vhttp://www.imdb.com/title/tt9699
p7360
ssVposter
p7361
(dp7362
Vlarge
p7363
V_V1_.jpg
p7364
sVthumb
p7365
g3
ssVrelease_date
p7366
g3
sVcontent_rating
p7367
g3
sVoriginal_title
p7368
g3
sVwriters
p7369
(lp7370
sVimdb_id
p7371
g3
sVdirector
p7372
g3
sVcast
p7373
(lp7374
sVlength
p7375
g3
sVrating_count
p7376
g3
sVstoryline
p7377
g3
sVstars
p7378
(lp7379
sVyear
p7380
g3
sVgenre
p7381
(lp7382
sVtrailer
p7383
(lp7384
sVmetadata
p7385
(dp7386
Vasp_retio
p7387
g3
sVsound_mix
p7388
(lp7389
sVgross
p7390
g3
sVcountries
p7391
(lp7392
sVbudget
p7393
g3
sVlanguages
p7394
(lp7395
sVfilming_locations
p7396
(lp7397
sValso_known_as
p7398
(lp7399
ssa.