(lp0
(dp1
Vrating
p2
V
p3
sVdescription
p4
VA man is found guilty of murdering a woman by way of circumstantial evidence, and is executed. Afterwards, it is discovered that his supposed victim is not dead at all, but working as a ...\u000a                    See full summary
p5
sVtitle
p6
VWho Shall Take My Life?
p7
sVurl
p8
(dp9
Vurl
p10
Vhttp://www.imdb.com/title/tt9800
p11
ssVposter
p12
(dp13
Vlarge
p14
Vhttp://ia.media-imdb.com/images/G/01/imdb/images/logos/imdb_fb_logo-1730868325._CB514892123_.png_V1_.jpg
p15
sVthumb
p16
g3
ssVrelease_date
p17
V1917-12
p18
sVcontent_rating
p19
g3
sVoriginal_title
p20
g3
sVwriters
p21
(lp22
VMaibelle Heikes Justice
p23
aVGilson Willets
p24
asVimdb_id
p25
Vtt0009800
p26
sVdirector
p27
VColin Campbell
p28
sVcast
p29
(lp30
(dp31
Vlink
p32
Vhttp://www.imdb.com/name/nm0764346/?ref_=tt_cl_t1
p33
sVimage
p34
Vhttps://images-na.ssl-images-amazon.com/images/M/MV5BYmE5MzVhM2YtNGZlZi00OTcwLWE1NzEtZDAxODEyMWUxNTlhXkEyXkFqcGdeQXVyMDMxMjQwMw@@._V1_UY44_CR1,0,32,44_AL_.jpg
p35
sVcharacter
p36
VBig Bill O'Shaughnessy       (as Thomas Santschi)
p37
sVname
p38
VTom Santschi
p39
sa(dp40
Vlink
p41
Vhttp://www.imdb.com/name/nm0116227/?ref_=tt_cl_t2
p42
sVimage
p43
Vhttps://images-na.ssl-images-amazon.com/images/M/MV5BMmViZDRmYTMtOWJlYy00ZDk1LTliYjAtZTNiNjQ3NmRlMDNlL2ltYWdlL2ltYWdlXkEyXkFqcGdeQXVyMzI5NDcxNzI@._UY317_CR16,0,214,317_AL_.jpg
p44
sVcharacter
p45
VKate Taylor
p46
sVname
p47
VFritzi Brunette
p48
sa(dp49
Vlink
p50
Vhttp://www.imdb.com/name/nm0185300/?ref_=tt_cl_t3
p51
sVimage
p52
Vhttps://images-na.ssl-images-amazon.com/images/M/MV5BZjgxNTQ0YWUtM2Y5Ni00ZmU0LWI4NGUtODJkYzIyODIxNWQwXkEyXkFqcGdeQXVyMzI5NDcxNzI@._UY317_CR16,0,214,317_AL_.jpg
p53
sVcharacter
p54
VFran Coswell       (as Ed Coxen)
p55
sVname
p56
VEdward Coxen
p57
sa(dp58
Vlink
p59
Vhttp://www.imdb.com/name/nm0264286/?ref_=tt_cl_t4
p60
sVimage
p61
Vhttps://images-na.ssl-images-amazon.com/images/M/MV5BY2YzNjBkMjgtZmM0OS00YWJkLWEzZWQtZGJhOWIxYjE3NzJhXkEyXkFqcGdeQXVyMDUyOTUyNQ@@._V1_UY44_CR1,0,32,44_AL_.jpg
p62
sVcharacter
p63
VMary Moran
p64
sVname
p65
VBessie Eyton
p66
sa(dp67
Vlink
p68
Vhttp://www.imdb.com/name/nm0519559/?ref_=tt_cl_t5
p69
sVimage
p70
Vhttps://images-na.ssl-images-amazon.com/images/M/MV5BZmNkZjExNTQtZDdlMS00ODgxLWFiZGQtMmRlZmMxZTljN2JhL2ltYWdlL2ltYWdlXkEyXkFqcGdeQXVyMDUyOTUyNQ@@._V1_UY44_CR0,0,32,44_AL_.jpg
p71
sVcharacter
p72
VHonorable James Munroe
p73
sVname
p74
VHarry Lonsdale
p75
sa(dp76
Vlink
p77
Vhttp://www.imdb.com/name/nm0078806/?ref_=tt_cl_t6
p78
sVimage
p79
Vhttps://images-na.ssl-images-amazon.com/images/M/MV5BZjlmNWQ5ZjctYmEwYS00ODIyLWE0MTItN2U2MWU1YjBmMjAyXkEyXkFqcGdeQXVyMzI5NDcxNzI@._UY317_CR16,0,214,317_AL_.jpg
p80
sVcharacter
p81
VMrs. Munroe
p82
sVname
p83
VEugenie Besserer
p84
sa(dp85
Vlink
p86
Vhttp://www.imdb.com/name/nm0277313/?ref_=tt_cl_t7
p87
sVimage
p88
g3
sVcharacter
p89
VThe governor
p90
sVname
p91
VAl W. Filson
p92
sa(dp93
Vlink
p94
Vhttp://www.imdb.com/name/nm0457045/?ref_=tt_cl_t8
p95
sVimage
p96
g3
sVcharacter
p97
VMag Scott
p98
sVname
p99
VVirginia Kirtley
p100
sasVlength
p101
g3
sVrating_count
p102
g3
sVstoryline
p103
VA man is found guilty of murdering a woman by way of circumstantial evidence, and is executed. Afterwards, it is discovered that his supposed victim is not dead at all, but working as a prostitute in a Western city. Scenario was written for the screen by Maibelle Heikes Justice, who was an outspoken opponent of capital punishment.
p104
sVstars
p105
(lp106
VTom Santschi
p107
aVFritzi Brunette
p108
aVEdward Coxen
p109
asVyear
p110
V1917
p111
sVgenre
p112
(lp113
VDrama
p114
asVtrailer
p115
(lp116
sVmetadata
p117
(dp118
Vasp_retio
p119
V1.33 : 1
p120
sVsound_mix
p121
(lp122
VSilent
p123
asVgross
p124
g3
sVcountries
p125
(lp126
VUSA
p127
asVbudget
p128
g3
sVlanguages
p129
(lp130
VEnglish
p131
asVfilming_locations
p132
(lp133
sValso_known_as
p134
(lp135
VSamfundets Martyr
p136
assa(dp137
Vrating
p138
V6.4
p139
sVdescription
p140
g3
sVtitle
p141
VWho's Your Father?
p142
sVurl
p143
(dp144
Vurl
p145
Vhttp://www.imdb.com/title/tt9801
p146
ssVposter
p147
(dp148
Vlarge
p149
Vhttps://images-na.ssl-images-amazon.com/images/M/MV5BNGYyNDRkNDItMmNmYS00Zjk4LThjZjctNjUyNTg1ODVjZTgwXkEyXkFqcGdeQXVyMDUyOTUyNQ@@._V1_.jpg
p150
sVthumb
p151
Vhttps://images-na.ssl-images-amazon.com/images/M/MV5BNGYyNDRkNDItMmNmYS00Zjk4LThjZjctNjUyNTg1ODVjZTgwXkEyXkFqcGdeQXVyMDUyOTUyNQ@@._V1_UY268_CR87,0,182,268_AL_.jpg
p152
ssVrelease_date
p153
V1918-06-30
p154
sVcontent_rating
p155
g3
sVoriginal_title
p156
g3
sVwriters
p157
(lp158
sVimdb_id
p159
Vtt0009801
p160
sVdirector
p161
VTom Mix
p162
sVcast
p163
(lp164
(dp165
Vlink
p166
Vhttp://www.imdb.com/name/nm0594291/?ref_=tt_cl_t1
p167
sVimage
p168
Vhttps://images-na.ssl-images-amazon.com/images/M/MV5BMTYzMDE2NDYxMV5BMl5BanBnXkFtZTYwMjAwOTM2._V1_UY44_CR1,0,32,44_AL_.jpg
p169
sVcharacter
p170
VTom Hartrigger
p171
sVname
p172
VTom Mix
p173
sa(dp174
Vlink
p175
Vhttp://www.imdb.com/name/nm0782985/?ref_=tt_cl_t2
p176
sVimage
p177
g3
sVcharacter
p178
g3
sVname
p179
VGertrude Selby
p180
sa(dp181
Vlink
p182
Vhttp://www.imdb.com/name/nm0693055/?ref_=tt_cl_t3
p183
sVimage
p184
Vhttps://images-na.ssl-images-amazon.com/images/M/MV5BNjRmNmE4MDMtMTAwYS00N2ZlLTlmZjAtY2MxZTg2YjFkNTM4XkEyXkFqcGdeQXVyMzI5NDcxNzI@._V1_UY44_CR1,0,32,44_AL_.jpg
p185
sVcharacter
p186
VComedy Role
p187
sVname
p188
VVictor Potel
p189
sasVlength
p190
g3
sVrating_count
p191
V5
p192
sVstoryline
p193
g3
sVstars
p194
(lp195
VTom Mix
p196
aVGertrude Selby
p197
aVVictor Potel
p198
asVyear
p199
V1918
p200
sVgenre
p201
(lp202
VShort
p203
aVComedy
p204
aVWestern
p205
asVtrailer
p206
(lp207
sVmetadata
p208
(dp209
Vasp_retio
p210
V1.33 : 1
p211
sVsound_mix
p212
(lp213
VSilent
p214
asVgross
p215
g3
sVcountries
p216
(lp217
VUSA
p218
asVbudget
p219
g3
sVlanguages
p220
(lp221
VEnglish
p222
asVfilming_locations
p223
(lp224
sValso_known_as
p225
(lp226
ssa(dp227
Vrating
p228
g3
sVdescription
p229
g3
sVtitle
p230
VWhose Little Wife Are You?
p231
sVurl
p232
(dp233
Vurl
p234
Vhttp://www.imdb.com/title/tt9802
p235
ssVposter
p236
(dp237
Vlarge
p238
Vhttp://ia.media-imdb.com/images/G/01/imdb/images/logos/imdb_fb_logo-1730868325._CB514892123_.png_V1_.jpg
p239
sVthumb
p240
g3
ssVrelease_date
p241
V1918-11-17
p242
sVcontent_rating
p243
g3
sVoriginal_title
p244
g3
sVwriters
p245
(lp246
sVimdb_id
p247
Vtt0009802
p248
sVdirector
p249
VEdward F. Cline
p250
sVcast
p251
(lp252
(dp253
Vlink
p254
Vhttp://www.imdb.com/name/nm0614879/?ref_=tt_cl_t1
p255
sVimage
p256
Vhttps://images-na.ssl-images-amazon.com/images/M/MV5BNDM5NzVkMDgtYTRiYy00OTcwLTg5MzAtOWY1MmU1NDI5MmMwXkEyXkFqcGdeQXVyMzI5NDcxNzI@._V1_UY44_CR1,0,32,44_AL_.jpg
p257
sVcharacter
p258
VThe Druggist       (as Charlie Murray)
p259
sVname
p260
VCharles Murray
p261
sa(dp262
Vlink
p263
Vhttp://www.imdb.com/name/nm0857118/?ref_=tt_cl_t2
p264
sVimage
p265
g3
sVcharacter
p266
VThe Druggist's Wife
p267
sVname
p268
VEva Thatcher
p269
sa(dp270
Vlink
p271
Vhttp://www.imdb.com/name/nm0069327/?ref_=tt_cl_t3
p272
sVimage
p273
g3
sVcharacter
p274
VThe Druggist's Son       (as Baldy Belmont)
p275
sVname
p276
VJoseph Belmont
p277
sa(dp278
Vlink
p279
Vhttp://www.imdb.com/name/nm0871139/?ref_=tt_cl_t4
p280
sVimage
p281
g3
sVcharacter
p282
VThe Druggist's Partner
p283
sVname
p284
VWayland Trask
p285
sa(dp286
Vlink
p287
Vhttp://www.imdb.com/name/nm0482115/?ref_=tt_cl_t5
p288
sVimage
p289
Vhttps://images-na.ssl-images-amazon.com/images/M/MV5BYzZhNmI2ZGQtYzQzOS00NmVkLWI4NDktYjE2OTJmZWM0ZDA4XkEyXkFqcGdeQXVyMzI5NDcxNzI@._V1_UY44_CR1,0,32,44_AL_.jpg
p290
sVcharacter
p291
VThe Manicurist
p292
sVname
p293
VAlice Lake
p294
sa(dp295
Vlink
p296
Vhttp://www.imdb.com/name/nm0862197/?ref_=tt_cl_t6
p297
sVimage
p298
g3
sVcharacter
p299
VThe Customer
p300
sVname
p301
VMary Thurman
p302
sa(dp303
Vlink
p304
Vhttp://www.imdb.com/name/nm0878035/?ref_=tt_cl_t7
p305
sVimage
p306
Vhttps://images-na.ssl-images-amazon.com/images/M/MV5BMTUwMzMzMjA0OF5BMl5BanBnXkFtZTgwMjI0OTg0MzE@._V1._CR109,133,531,706_UY44_CR0,0,32,44_AL_.jpg
p307
sVcharacter
p308
V1st Nut on Raft
p309
sVname
p310
VBen Turpin
p311
sa(dp312
Vlink
p313
Vhttp://www.imdb.com/name/nm0174692/?ref_=tt_cl_t8
p314
sVimage
p315
Vhttps://images-na.ssl-images-amazon.com/images/M/MV5BYzFmNGU2MDYtMzBhNC00OTFjLTg5ZTQtMDczYjJmYjRjZDZiXkEyXkFqcGdeQXVyMzI5NDcxNzI@._V1_UY44_CR1,0,32,44_AL_.jpg
p316
sVcharacter
p317
V2nd Nut on Raft       (as Charles Lynn)
p318
sVname
p319
VHeinie Conklin
p320
sa(dp321
Vlink
p322
Vhttp://www.imdb.com/name/nm0448366/?ref_=tt_cl_t9
p323
sVimage
p324
Vhttps://images-na.ssl-images-amazon.com/images/M/MV5BMzk0OTk2ZjctNTdiZi00OGZjLWFhYWUtMDgzYjQ0ZWQ2Y2ViL2ltYWdlL2ltYWdlXkEyXkFqcGdeQXVyMzI5NDcxNzI@._UY317_CR16,0,214,317_AL_.jpg
p325
sVcharacter
p326
VThe Janitor
p327
sVname
p328
VTom Kennedy
p329
sa(dp330
Vlink
p331
Vhttp://www.imdb.com/name/nm0736882/?ref_=tt_cl_t10
p332
sVimage
p333
g3
sVcharacter
p334
VThe Police Captain
p335
sVname
p336
VGene Rogers
p337
sa(dp338
Vlink
p339
Vhttp://www.imdb.com/name/nm0570274/?ref_=tt_cl_t11
p340
sVimage
p341
Vhttps://images-na.ssl-images-amazon.com/images/M/MV5BZWRlYjc5ZTUtMGNlYy00ZmFkLWIzNDYtNTFhODg2MzdiYTYwXkEyXkFqcGdeQXVyMDUyOTUyNQ@@._V1_UY44_CR25,0,32,44_AL_.jpg
p342
sVcharacter
p343
VMan in Steam Room
p344
sVname
p345
VPaddy McGuire
p346
sa(dp347
Vlink
p348
Vhttp://www.imdb.com/name/nm1275393/?ref_=tt_cl_t12
p349
sVimage
p350
g3
sVcharacter
p351
VTeddy the Dog
p352
sVname
p353
VTeddy the Dog
p354
sa(dp355
Vlink
p356
Vhttp://www.imdb.com/name/nm1627993/?ref_=tt_cl_t13
p357
sVimage
p358
g3
sVcharacter
p359
VPepper the Cat
p360
sVname
p361
VPepper the Cat
p362
sasVlength
p363
V20
p364
sVrating_count
p365
g3
sVstoryline
p366
g3
sVstars
p367
(lp368
VCharles Murray
p369
aVEva Thatcher
p370
aVJoseph Belmont
p371
asVyear
p372
V1918
p373
sVgenre
p374
(lp375
VShort
p376
aVComedy
p377
asVtrailer
p378
(lp379
sVmetadata
p380
(dp381
Vasp_retio
p382
V1.33 : 1
p383
sVsound_mix
p384
(lp385
VSilent
p386
asVgross
p387
g3
sVcountries
p388
(lp389
VUSA
p390
asVbudget
p391
g3
sVlanguages
p392
(lp393
VEnglish
p394
asVfilming_locations
p395
(lp396
sValso_known_as
p397
(lp398
VVida de Casados
p399
assa(dp400
Vrating
p401
g3
sVdescription
p402
g3
sVtitle
p403
VWho's Zoo?
p404
sVurl
p405
(dp406
Vurl
p407
Vhttp://www.imdb.com/title/tt9803
p408
ssVposter
p409
(dp410
Vlarge
p411
Vhttp://ia.media-imdb.com/images/G/01/imdb/images/logos/imdb_fb_logo-1730868325._CB514892123_.png_V1_.jpg
p412
sVthumb
p413
g3
ssVrelease_date
p414
V1918-05-22
p415
sVcontent_rating
p416
g3
sVoriginal_title
p417
g3
sVwriters
p418
(lp419
VCraig Hutchinson
p420
asVimdb_id
p421
Vtt0009803
p422
sVdirector
p423
VCraig Hutchinson
p424
sVcast
p425
(lp426
(dp427
Vlink
p428
Vhttp://www.imdb.com/name/nm0640405/?ref_=tt_cl_t1
p429
sVimage
p430
Vhttps://images-na.ssl-images-amazon.com/images/M/MV5BNTU5NTQwYmEtNjMxNi00ODg4LTg0MTQtNTU4YjgxZmNkY2FhXkEyXkFqcGdeQXVyMTcyODY2NDQ@._V1_UY44_CR0,0,32,44_AL_.jpg
p431
sVcharacter
p432
VKatherine
p433
sVname
p434
VKathleen O'Connor
p435
sa(dp436
Vlink
p437
Vhttp://www.imdb.com/name/nm0587829/?ref_=tt_cl_t2
p438
sVimage
p439
g3
sVcharacter
p440
VRube
p441
sVname
p442
VRube Miller
p443
sa(dp444
Vlink
p445
Vhttp://www.imdb.com/name/nm0491048/?ref_=tt_cl_t3
p446
sVimage
p447
Vhttps://images-na.ssl-images-amazon.com/images/M/MV5BMTUwNTE0OTA2Nl5BMl5BanBnXkFtZTYwODk1MjI2._V1_UY44_CR2,0,32,44_AL_.jpg
p448
sVcharacter
p449
VStanley       (as Stanley Laurel)
p450
sVname
p451
VStan Laurel
p452
sa(dp453
Vlink
p454
Vhttp://www.imdb.com/name/nm5030055/?ref_=tt_cl_t4
p455
sVimage
p456
g3
sVcharacter
p457
VCharlie the Elephant
p458
sVname
p459
VEddie the Ellfa-Nut
p460
sasVlength
p461
g3
sVrating_count
p462
g3
sVstoryline
p463
g3
sVstars
p464
(lp465
VStan Laurel
p466
aVKathleen O'Connor
p467
aVRube Miller
p468
asVyear
p469
V1918
p470
sVgenre
p471
(lp472
VShort
p473
aVComedy
p474
asVtrailer
p475
(lp476
sVmetadata
p477
(dp478
Vasp_retio
p479
V1.33 : 1
p480
sVsound_mix
p481
(lp482
VSilent
p483
asVgross
p484
g3
sVcountries
p485
(lp486
VUSA
p487
asVbudget
p488
g3
sVlanguages
p489
(lp490
VEnglish
p491
asVfilming_locations
p492
(lp493
sValso_known_as
p494
(lp495
ssa(dp496
Vrating
p497
g3
sVdescription
p498
g3
sVtitle
p499
VWhy I Should Not Marry
p500
sVurl
p501
(dp502
Vurl
p503
Vhttp://www.imdb.com/title/tt9804
p504
ssVposter
p505
(dp506
Vlarge
p507
Vhttp://ia.media-imdb.com/images/G/01/imdb/images/logos/imdb_fb_logo-1730868325._CB514892123_.png_V1_.jpg
p508
sVthumb
p509
g3
ssVrelease_date
p510
g3
sVcontent_rating
p511
g3
sVoriginal_title
p512
g3
sVwriters
p513
(lp514
sVimdb_id
p515
Vtt0009804
p516
sVdirector
p517
VRichard Stanton
p518
sVcast
p519
(lp520
(dp521
Vlink
p522
Vhttp://www.imdb.com/name/nm0054856/?ref_=tt_cl_t1
p523
sVimage
p524
g3
sVcharacter
p525
g3
sVname
p526
VCorinne Barker
p527
sa(dp528
Vlink
p529
Vhttp://www.imdb.com/name/nm0203527/?ref_=tt_cl_t2
p530
sVimage
p531
Vhttps://images-na.ssl-images-amazon.com/images/M/MV5BMWQ5NGU5MzYtMDQxMS00ODkyLWFkZjQtMGFiMGIyYjRmMmRmXkEyXkFqcGdeQXVyMzI5NDcxNzI@._UY317_CR16,0,214,317_AL_.jpg
p532
sVcharacter
p533
g3
sVname
p534
VWilliam B. Davidson
p535
sa(dp536
Vlink
p537
Vhttp://www.imdb.com/name/nm0227022/?ref_=tt_cl_t3
p538
sVimage
p539
g3
sVcharacter
p540
V(as John Webb Dillon)
p541
sVname
p542
VJohn Webb Dillion
p543
sa(dp544
Vlink
p545
Vhttp://www.imdb.com/name/nm0289127/?ref_=tt_cl_t4
p546
sVimage
p547
g3
sVcharacter
p548
g3
sVname
p549
VLucy Fox
p550
sasVlength
p551
g3
sVrating_count
p552
g3
sVstoryline
p553
g3
sVstars
p554
(lp555
VCorinne Barker
p556
aVWilliam B. Davidson
p557
aVJohn Webb Dillion
p558
asVyear
p559
V1918
p560
sVgenre
p561
(lp562
sVtrailer
p563
(lp564
sVmetadata
p565
(dp566
Vasp_retio
p567
V1.33 : 1
p568
sVsound_mix
p569
(lp570
VSilent
p571
asVgross
p572
g3
sVcountries
p573
(lp574
VUSA
p575
asVbudget
p576
g3
sVlanguages
p577
(lp578
sVfilming_locations
p579
(lp580
sValso_known_as
p581
(lp582
ssa(dp583
Vrating
p584
g3
sVdescription
p585
g3
sVtitle
p586
VWhy I Would Not Marry
p587
sVurl
p588
(dp589
Vurl
p590
Vhttp://www.imdb.com/title/tt9805
p591
ssVposter
p592
(dp593
Vlarge
p594
Vhttp://ia.media-imdb.com/images/G/01/imdb/images/logos/imdb_fb_logo-1730868325._CB514892123_.png_V1_.jpg
p595
sVthumb
p596
g3
ssVrelease_date
p597
V1918-11-24
p598
sVcontent_rating
p599
g3
sVoriginal_title
p600
g3
sVwriters
p601
(lp602
VAdrian Johnson
p603
aVAdrian Johnson
p604
asVimdb_id
p605
Vtt0009805
p606
sVdirector
p607
VRichard Stanton
p608
sVcast
p609
(lp610
(dp611
Vlink
p612
Vhttp://www.imdb.com/name/nm0289127/?ref_=tt_cl_t1
p613
sVimage
p614
g3
sVcharacter
p615
VAdele Moore
p616
sVname
p617
VLucy Fox
p618
sa(dp619
Vlink
p620
Vhttp://www.imdb.com/name/nm0781292/?ref_=tt_cl_t2
p621
sVimage
p622
g3
sVcharacter
p623
VUndetermined Role       (as Ed Sedgwick)
p624
sVname
p625
VEdward Sedgwick
p626
sa(dp627
Vlink
p628
Vhttp://www.imdb.com/name/nm0203527/?ref_=tt_cl_t3
p629
sVimage
p630
Vhttps://images-na.ssl-images-amazon.com/images/M/MV5BMWQ5NGU5MzYtMDQxMS00ODkyLWFkZjQtMGFiMGIyYjRmMmRmXkEyXkFqcGdeQXVyMzI5NDcxNzI@._UY317_CR16,0,214,317_AL_.jpg
p631
sVcharacter
p632
VUndetermined Role
p633
sVname
p634
VWilliam B. Davidson
p635
sasVlength
p636
g3
sVrating_count
p637
g3
sVstoryline
p638
g3
sVstars
p639
(lp640
VLucy Fox
p641
aVEdward Sedgwick
p642
aVWilliam B. Davidson
p643
asVyear
p644
V1918
p645
sVgenre
p646
(lp647
VComedy
p648
aVDrama
p649
asVtrailer
p650
(lp651
sVmetadata
p652
(dp653
Vasp_retio
p654
V1.33 : 1
p655
sVsound_mix
p656
(lp657
VSilent
p658
asVgross
p659
g3
sVcountries
p660
(lp661
VUSA
p662
asVbudget
p663
g3
sVlanguages
p664
(lp665
sVfilming_locations
p666
(lp667
sValso_known_as
p668
(lp669
ssa(dp670
Vrating
p671
V6.5
p672
sVdescription
p673
g3
sVtitle
p674
VWhy Pick on Me?
p675
sVurl
p676
(dp677
Vurl
p678
Vhttp://www.imdb.com/title/tt9806
p679
ssVposter
p680
(dp681
Vlarge
p682
Vhttps://images-na.ssl-images-amazon.com/images/M/MV5BMTY1NDg2NDgxOV5BMl5BanBnXkFtZTcwODg0NzA4Mg@@._V1_.jpg
p683
sVthumb
p684
Vhttps://images-na.ssl-images-amazon.com/images/M/MV5BMTY1NDg2NDgxOV5BMl5BanBnXkFtZTcwODg0NzA4Mg@@._V1_UY268_CR43,0,182,268_AL_.jpg
p685
ssVrelease_date
p686
V1918-10-13
p687
sVcontent_rating
p688
g3
sVoriginal_title
p689
g3
sVwriters
p690
(lp691
sVimdb_id
p692
Vtt0009806
p693
sVdirector
p694
g3
sVcast
p695
(lp696
(dp697
Vlink
p698
Vhttp://www.imdb.com/name/nm0516001/?ref_=tt_cl_t1
p699
sVimage
p700
Vhttps://images-na.ssl-images-amazon.com/images/M/MV5BMjA0ODc5MTIyOV5BMl5BanBnXkFtZTgwNDgxODIwMjE@._V1_UY44_CR1,0,32,44_AL_.jpg
p701
sVcharacter
p702
g3
sVname
p703
VHarold Lloyd
p704
sa(dp705
Vlink
p706
Vhttp://www.imdb.com/name/nm0689444/?ref_=tt_cl_t2
p707
sVimage
p708
Vhttps://images-na.ssl-images-amazon.com/images/M/MV5BMTA1NTM2NTAzODdeQTJeQWpwZ15BbWU4MDkzOTM3MDIx._V1_UY44_CR1,0,32,44_AL_.jpg
p709
sVcharacter
p710
VHarry Ham       (as Harry Pollard)
p711
sVname
p712
V'Snub' Pollard
p713
sa(dp714
Vlink
p715
Vhttp://www.imdb.com/name/nm0199841/?ref_=tt_cl_t3
p716
sVimage
p717
Vhttps://images-na.ssl-images-amazon.com/images/M/MV5BMTU3OTI5NDc5M15BMl5BanBnXkFtZTYwMjY1MjI2._V1_UY44_CR1,0,32,44_AL_.jpg
p718
sVcharacter
p719
g3
sVname
p720
VBebe Daniels
p721
sa(dp722
Vlink
p723
g3
sVimage
p724
g3
sVcharacter
p725
g3
sVname
p726
g3
sa(dp727
Vlink
p728
Vhttp://www.imdb.com/name/nm0086430/?ref_=tt_cl_t4
p729
sVimage
p730
Vhttps://images-na.ssl-images-amazon.com/images/M/MV5BMzliYzhmOTQtMzAzOS00OTU1LWEwZDUtNGM5YTgwNTgyNjI2XkEyXkFqcGdeQXVyMzI5NDcxNzI@._V1_UY44_CR0,0,32,44_AL_.jpg
p731
sVcharacter
p732
g3
sVname
p733
VWilliam Blaisdell
p734
sa(dp735
Vlink
p736
Vhttp://www.imdb.com/name/nm0112239/?ref_=tt_cl_t5
p737
sVimage
p738
g3
sVcharacter
p739
g3
sVname
p740
VSammy Brooks
p741
sa(dp742
Vlink
p743
Vhttp://www.imdb.com/name/nm0122685/?ref_=tt_cl_t6
p744
sVimage
p745
g3
sVcharacter
p746
g3
sVname
p747
VHarry Burns
p748
sa(dp749
Vlink
p750
Vhttp://www.imdb.com/name/nm0318981/?ref_=tt_cl_t7
p751
sVimage
p752
Vhttps://images-na.ssl-images-amazon.com/images/M/MV5BYWE0ZWZjMWItN2EwMC00NjA0LTgzOGUtNzc4ZjY2OGVmN2M4XkEyXkFqcGdeQXVyMTk2MzI2Ng@@._V1_UY44_CR13,0,32,44_AL_.jpg
p753
sVcharacter
p754
g3
sVname
p755
VWilliam Gillespie
p756
sa(dp757
Vlink
p758
Vhttp://www.imdb.com/name/nm0319532/?ref_=tt_cl_t8
p759
sVimage
p760
Vhttps://images-na.ssl-images-amazon.com/images/M/MV5BZjI1ZGE4N2ItNjI0Ny00ZjYzLTg3YmUtM2YzM2QxNmI3ODVjXkEyXkFqcGdeQXVyMzI5NDcxNzI@._V1_UY44_CR2,0,32,44_AL_.jpg
p761
sVcharacter
p762
g3
sVname
p763
VHelen Gilmore
p764
sa(dp765
Vlink
p766
Vhttp://www.imdb.com/name/nm0367612/?ref_=tt_cl_t9
p767
sVimage
p768
g3
sVcharacter
p769
g3
sVname
p770
VLew Harvey
p771
sa(dp772
Vlink
p773
Vhttp://www.imdb.com/name/nm0417168/?ref_=tt_cl_t10
p774
sVimage
p775
Vhttps://images-na.ssl-images-amazon.com/images/M/MV5BYjM2OGQ1YzEtZDE2OS00NzViLTg5YWUtMjNhMjBhZWI1MzlhXkEyXkFqcGdeQXVyMzI5NDcxNzI@._V1_UY44_CR1,0,32,44_AL_.jpg
p776
sVcharacter
p777
g3
sVname
p778
VBud Jamison
p779
sa(dp780
Vlink
p781
Vhttp://www.imdb.com/name/nm0663613/?ref_=tt_cl_t11
p782
sVimage
p783
g3
sVcharacter
p784
g3
sVname
p785
VJames Parrott
p786
sasVlength
p787
V10
p788
sVrating_count
p789
V40
p790
sVstoryline
p791
g3
sVstars
p792
(lp793
VHarold Lloyd
p794
aV'Snub' Pollard
p795
aVBebe Daniels
p796
asVyear
p797
V1918
p798
sVgenre
p799
(lp800
VComedy
p801
aVShort
p802
asVtrailer
p803
(lp804
sVmetadata
p805
(dp806
Vasp_retio
p807
V1.33 : 1
p808
sVsound_mix
p809
(lp810
VSilent
p811
asVgross
p812
g3
sVcountries
p813
(lp814
VUSA
p815
asVbudget
p816
g3
sVlanguages
p817
(lp818
sVfilming_locations
p819
(lp820
VHal Roach Studios - 8822 Washington Blvd.
p821
aVCulver City
p822
aVCalifornia
p823
aVUSA
p824
asValso_known_as
p825
(lp826
VLui et l'assiette au beurre
p827
assa(dp828
Vrating
p829
g3
sVdescription
p830
g3
sVtitle
p831
VThe Wife He Bought
p832
sVurl
p833
(dp834
Vurl
p835
Vhttp://www.imdb.com/title/tt9807
p836
ssVposter
p837
(dp838
Vlarge
p839
Vhttps://images-na.ssl-images-amazon.com/images/M/MV5BZWQ0NzNkYWYtYWE4Mi00ZWVlLTk4N2MtNjI4ZDNhYmZiYTY2XkEyXkFqcGdeQXVyMjUxODE0MDY@._V1_.jpg
p840
sVthumb
p841
Vhttps://images-na.ssl-images-amazon.com/images/M/MV5BZWQ0NzNkYWYtYWE4Mi00ZWVlLTk4N2MtNjI4ZDNhYmZiYTY2XkEyXkFqcGdeQXVyMjUxODE0MDY@._V1_UX182_CR0,0,182,268_AL_.jpg
p842
ssVrelease_date
p843
V1918-02-04
p844
sVcontent_rating
p845
g3
sVoriginal_title
p846
g3
sVwriters
p847
(lp848
VLarry Evans
p849
aVHarvey Gates
p850
asVimdb_id
p851
Vtt0009807
p852
sVdirector
p853
VHarry Solter
p854
sVcast
p855
(lp856
(dp857
Vlink
p858
Vhttp://www.imdb.com/name/nm0616659/?ref_=tt_cl_t1
p859
sVimage
p860
Vhttps://images-na.ssl-images-amazon.com/images/M/MV5BMjI4MTUyMDcwMl5BMl5BanBnXkFtZTgwMzc2ODY3MTE@._V1._CR134.88333129882812,167.53334045410156,737,986_UY44_CR0,0,32,44_AL_.jpg
p861
sVcharacter
p862
VJanice Brieson
p863
sVname
p864
VCarmel Myers
p865
sa(dp866
Vlink
p867
Vhttp://www.imdb.com/name/nm0363218/?ref_=tt_cl_t2
p868
sVimage
p869
Vhttps://images-na.ssl-images-amazon.com/images/M/MV5BM2IxNWM2NTQtMWZiYi00OGExLTkxYTYtZGJkMjBhNGIyN2Y1XkEyXkFqcGdeQXVyMzI5NDcxNzI@._V1_UY44_CR1,0,32,44_AL_.jpg
p870
sVcharacter
p871
VSteele Valiant
p872
sVname
p873
VKenneth Harlan
p874
sa(dp875
Vlink
p876
Vhttp://www.imdb.com/name/nm0186232/?ref_=tt_cl_t3
p877
sVimage
p878
Vhttps://images-na.ssl-images-amazon.com/images/M/MV5BZDMwYmRmZGUtMWI0Zi00ODNkLWI4ZjctNjY2N2MwMWNlOGZhXkEyXkFqcGdeQXVyMzI5NDcxNzI@._V1_UY44_CR0,0,32,44_AL_.jpg
p879
sVcharacter
p880
VHutch Valiant
p881
sVname
p882
VHoward Crampton
p883
sa(dp884
Vlink
p885
Vhttp://www.imdb.com/name/nm0213049/?ref_=tt_cl_t4
p886
sVimage
p887
g3
sVcharacter
p888
VJames Brierson
p889
sVname
p890
VSydney Deane
p891
sa(dp892
Vlink
p893
Vhttp://www.imdb.com/name/nm0780739/?ref_=tt_cl_t5
p894
sVimage
p895
g3
sVcharacter
p896
g3
sVname
p897
VAllan Sears
p898
sa(dp899
Vlink
p900
g3
sVimage
p901
g3
sVcharacter
p902
g3
sVname
p903
g3
sa(dp904
Vlink
p905
Vhttp://www.imdb.com/name/nm0793479/?ref_=tt_cl_t6
p906
sVimage
p907
g3
sVcharacter
p908
V(as Fred Schilling)
p909
sVname
p910
VS.K. Shilling
p911
sasVlength
p912
V50
p913
sVrating_count
p914
g3
sVstoryline
p915
g3
sVstars
p916
(lp917
VCarmel Myers
p918
aVKenneth Harlan
p919
aVHoward Crampton
p920
asVyear
p921
V1918
p922
sVgenre
p923
(lp924
VDrama
p925
asVtrailer
p926
(lp927
sVmetadata
p928
(dp929
Vasp_retio
p930
V1.33 : 1
p931
sVsound_mix
p932
(lp933
VSilent
p934
asVgross
p935
g3
sVcountries
p936
(lp937
VUSA
p938
asVbudget
p939
g3
sVlanguages
p940
(lp941
VEnglish
p942
asVfilming_locations
p943
(lp944
sValso_known_as
p945
(lp946
ssa(dp947
Vrating
p948
g3
sVdescription
p949
VSylia Hamilton rehabilitates an alcoholic attorney and marries him. When World War I breaks out, she is persuaded to help the German cause and later commits suicide rather than compromise ...\u000a                    See full summary
p950
sVtitle
p951
VWife or Country
p952
sVurl
p953
(dp954
Vurl
p955
Vhttp://www.imdb.com/title/tt9808
p956
ssVposter
p957
(dp958
Vlarge
p959
Vhttp://ia.media-imdb.com/images/G/01/imdb/images/logos/imdb_fb_logo-1730868325._CB514892123_.png_V1_.jpg
p960
sVthumb
p961
g3
ssVrelease_date
p962
V1918-12-29
p963
sVcontent_rating
p964
g3
sVoriginal_title
p965
g3
sVwriters
p966
(lp967
VHarry Mestayer
p968
aVCharles J. Wilson
p969
asVimdb_id
p970
Vtt0009808
p971
sVdirector
p972
VE. Mason Hopper
p973
sVcast
p974
(lp975
(dp976
Vlink
p977
Vhttp://www.imdb.com/name/nm0582284/?ref_=tt_cl_t1
p978
sVimage
p979
g3
sVcharacter
p980
VDale Barker
p981
sVname
p982
VHarry Mestayer
p983
sa(dp984
Vlink
p985
Vhttp://www.imdb.com/name/nm0496477/?ref_=tt_cl_t2
p986
sVimage
p987
Vhttps://images-na.ssl-images-amazon.com/images/M/MV5BZjNkOTBiZjItZGU1OS00ZTI3LWExZWYtMzdlNGY3YzdiN2VhL2ltYWdlL2ltYWdlXkEyXkFqcGdeQXVyMzI5NDcxNzI@._V1_UY44_CR1,0,32,44_AL_.jpg
p988
sVcharacter
p989
VGretchen Barker
p990
sVname
p991
VGretchen Lederer
p992
sa(dp993
Vlink
p994
Vhttp://www.imdb.com/name/nm0841797/?ref_=tt_cl_t3
p995
sVimage
p996
Vhttps://images-na.ssl-images-amazon.com/images/M/MV5BMTU3NzIxOTUwOV5BMl5BanBnXkFtZTYwNDM5MTI2._UY317_CR16,0,214,317_AL_.jpg
p997
sVcharacter
p998
VSylvia Hamilton
p999
sVname
p1000
VGloria Swanson
p1001
sa(dp1002
Vlink
p1003
Vhttp://www.imdb.com/name/nm0724586/?ref_=tt_cl_t4
p1004
sVimage
p1005
Vhttps://images-na.ssl-images-amazon.com/images/M/MV5BYzViMDU4MzAtMGQ4YS00YmM0LTlhZjItMWIxZTM0Yjc1NTUwXkEyXkFqcGdeQXVyNTUyMTMyMDg@._UY317_CR16,0,214,317_AL_.jpg
p1006
sVcharacter
p1007
VDr. Meyer Stahl
p1008
sVname
p1009
VJack Richardson
p1010
sa(dp1011
Vlink
p1012
Vhttp://www.imdb.com/name/nm0921980/?ref_=tt_cl_t5
p1013
sVimage
p1014
g3
sVcharacter
p1015
VJack Holiday
p1016
sVname
p1017
VCharles West
p1018
sasVlength
p1019
g3
sVrating_count
p1020
g3
sVstoryline
p1021
VSylia Hamilton rehabilitates an alcoholic attorney and marries him. When World War I breaks out, she is persuaded to help the German cause and later commits suicide rather than compromise her husbands career.
p1022
sVstars
p1023
(lp1024
VHarry Mestayer
p1025
aVGretchen Lederer
p1026
aVGloria Swanson
p1027
asVyear
p1028
V1918
p1029
sVgenre
p1030
(lp1031
VDrama
p1032
aVWar
p1033
aVShort
p1034
asVtrailer
p1035
(lp1036
sVmetadata
p1037
(dp1038
Vasp_retio
p1039
V1.33 : 1
p1040
sVsound_mix
p1041
(lp1042
VSilent
p1043
asVgross
p1044
g3
sVcountries
p1045
(lp1046
VUSA
p1047
asVbudget
p1048
g3
sVlanguages
p1049
(lp1050
sVfilming_locations
p1051
(lp1052
sValso_known_as
p1053
(lp1054
ssa(dp1055
Vrating
p1056
g3
sVdescription
p1057
VA documentary on the procuring and raising of wild birds.
p1058
sVtitle
p1059
VWild Bird Pets
p1060
sVurl
p1061
(dp1062
Vurl
p1063
Vhttp://www.imdb.com/title/tt9809
p1064
ssVposter
p1065
(dp1066
Vlarge
p1067
Vhttp://ia.media-imdb.com/images/G/01/imdb/images/logos/imdb_fb_logo-1730868325._CB514892123_.png_V1_.jpg
p1068
sVthumb
p1069
g3
ssVrelease_date
p1070
V1918-04-22
p1071
sVcontent_rating
p1072
g3
sVoriginal_title
p1073
g3
sVwriters
p1074
(lp1075
sVimdb_id
p1076
Vtt0009809
p1077
sVdirector
p1078
g3
sVcast
p1079
(lp1080
sVlength
p1081
g3
sVrating_count
p1082
g3
sVstoryline
p1083
VA documentary on the procuring and raising of wild birds.
p1084
sVstars
p1085
(lp1086
sVyear
p1087
V1918
p1088
sVgenre
p1089
(lp1090
VDocumentary
p1091
aVShort
p1092
asVtrailer
p1093
(lp1094
sVmetadata
p1095
(dp1096
Vasp_retio
p1097
V1.33 : 1
p1098
sVsound_mix
p1099
(lp1100
VSilent
p1101
asVgross
p1102
g3
sVcountries
p1103
(lp1104
VUSA
p1105
asVbudget
p1106
g3
sVlanguages
p1107
(lp1108
sVfilming_locations
p1109
(lp1110
sValso_known_as
p1111
(lp1112
ssa(dp1113
Vrating
p1114
g3
sVdescription
p1115
g3
sVtitle
p1116
VThe Wildcat of Paris
p1117
sVurl
p1118
(dp1119
Vurl
p1120
Vhttp://www.imdb.com/title/tt9810
p1121
ssVposter
p1122
(dp1123
Vlarge
p1124
Vhttps://images-na.ssl-images-amazon.com/images/M/MV5BNGUyMTI0MmYtNTZhZS00Y2E4LWJjYTctMDlhZTg4MjZmOTIzXkEyXkFqcGdeQXVyMjUxODE0MDY@._V1_.jpg
p1125
sVthumb
p1126
Vhttps://images-na.ssl-images-amazon.com/images/M/MV5BNGUyMTI0MmYtNTZhZS00Y2E4LWJjYTctMDlhZTg4MjZmOTIzXkEyXkFqcGdeQXVyMjUxODE0MDY@._V1_UY268_CR9,0,182,268_AL_.jpg
p1127
ssVrelease_date
p1128
V1918-12-15
p1129
sVcontent_rating
p1130
g3
sVoriginal_title
p1131
g3
sVwriters
p1132
(lp1133
VHarvey Gates
p1134
aVHarvey Gates
p1135
asVimdb_id
p1136
Vtt0009810
p1137
sVdirector
p1138
VJoseph De Grasse
p1139
sVcast
p1140
(lp1141
(dp1142
Vlink
p1143
Vhttp://www.imdb.com/name/nm0212912/?ref_=tt_cl_t1
p1144
sVimage
p1145
Vhttps://images-na.ssl-images-amazon.com/images/M/MV5BMjYxMzQwOTQ3OF5BMl5BanBnXkFtZTgwOTEzODY3MTE@._V1._CR109.88333129882812,113.53334045410156,866,1198_UX32_CR0,0,32,44_AL_.jpg
p1146
sVcharacter
p1147
VColette
p1148
sVname
p1149
VPriscilla Dean
p1150
sa(dp1151
Vlink
p1152
Vhttp://www.imdb.com/name/nm0201029/?ref_=tt_cl_t2
p1153
sVimage
p1154
g3
sVcharacter
p1155
VThe Toad
p1156
sVname
p1157
VLouis Darclay
p1158
sa(dp1159
Vlink
p1160
Vhttp://www.imdb.com/name/nm0147692/?ref_=tt_cl_t3
p1161
sVimage
p1162
g3
sVcharacter
p1163
VJean Rovel
p1164
sVname
p1165
VEdward Cecil
p1166
sa(dp1167
Vlink
p1168
Vhttp://www.imdb.com/name/nm0299036/?ref_=tt_cl_t4
p1169
sVimage
p1170
g3
sVcharacter
p1171
VCheron
p1172
sVname
p1173
VLucille Furness
p1174
sasVlength
p1175
V60
p1176
sVrating_count
p1177
g3
sVstoryline
p1178
g3
sVstars
p1179
(lp1180
VPriscilla Dean
p1181
aVLouis Darclay
p1182
aVEdward Cecil
p1183
asVyear
p1184
V1918
p1185
sVgenre
p1186
(lp1187
VCrime
p1188
aVDrama
p1189
aVWar
p1190
asVtrailer
p1191
(lp1192
sVmetadata
p1193
(dp1194
Vasp_retio
p1195
V1.33 : 1
p1196
sVsound_mix
p1197
(lp1198
VSilent
p1199
asVgross
p1200
g3
sVcountries
p1201
(lp1202
VUSA
p1203
asVbudget
p1204
g3
sVlanguages
p1205
(lp1206
sVfilming_locations
p1207
(lp1208
sValso_known_as
p1209
(lp1210
ssa(dp1211
Vrating
p1212
V4.4
p1213
sVdescription
p1214
VCheyenne Harry and his pals, bent on helping their friend Rawhide Jack, attend a rodeo with the intent to win the prize and to hand the winnings over to Jack. Harry is the successful winner...\u000a                    See full summary
p1215
sVtitle
p1216
VWild Women
p1217
sVurl
p1218
(dp1219
Vurl
p1220
Vhttp://www.imdb.com/title/tt9811
p1221
ssVposter
p1222
(dp1223
Vlarge
p1224
Vhttp://ia.media-imdb.com/images/G/01/imdb/images/logos/imdb_fb_logo-1730868325._CB514892123_.png_V1_.jpg
p1225
sVthumb
p1226
g3
ssVrelease_date
p1227
V1918-02-25
p1228
sVcontent_rating
p1229
g3
sVoriginal_title
p1230
g3
sVwriters
p1231
(lp1232
VHarry Carey
p1233
aVJohn Ford
p1234
asVimdb_id
p1235
Vtt0009811
p1236
sVdirector
p1237
VJohn Ford
p1238
sVcast
p1239
(lp1240
(dp1241
Vlink
p1242
Vhttp://www.imdb.com/name/nm0002503/?ref_=tt_cl_t1
p1243
sVimage
p1244
Vhttps://images-na.ssl-images-amazon.com/images/M/MV5BODI2MDY3OTExNV5BMl5BanBnXkFtZTcwNjM2NDg5Nw@@._V1_UY44_CR1,0,32,44_AL_.jpg
p1245
sVcharacter
p1246
VCheyenne Harry
p1247
sVname
p1248
VHarry Carey
p1249
sa(dp1250
Vlink
p1251
Vhttp://www.imdb.com/name/nm0540485/?ref_=tt_cl_t2
p1252
sVimage
p1253
g3
sVcharacter
p1254
VThe Princess
p1255
sVname
p1256
VMolly Malone
p1257
sa(dp1258
Vlink
p1259
Vhttp://www.imdb.com/name/nm0560442/?ref_=tt_cl_t3
p1260
sVimage
p1261
Vhttps://images-na.ssl-images-amazon.com/images/M/MV5BNDY0OTYwZDEtYWY1Ny00YWJhLThkNDAtMzJkZWM0YTgwYzFiL2ltYWdlL2ltYWdlXkEyXkFqcGdeQXVyMzI5NDcxNzI@._V1_UY44_CR7,0,32,44_AL_.jpg
p1262
sVcharacter
p1263
VThe Queen
p1264
sVname
p1265
VMartha Mattox
p1266
sa(dp1267
Vlink
p1268
Vhttp://www.imdb.com/name/nm0427995/?ref_=tt_cl_t4
p1269
sVimage
p1270
g3
sVcharacter
p1271
VPelon       (as Edward Jones)
p1272
sVname
p1273
VEd Jones
p1274
sa(dp1275
Vlink
p1276
Vhttp://www.imdb.com/name/nm0670409/?ref_=tt_cl_t5
p1277
sVimage
p1278
g3
sVcharacter
p1279
VPegg
p1280
sVname
p1281
VVester Pegg
p1282
sa(dp1283
Vlink
p1284
Vhttp://www.imdb.com/name/nm0885663/?ref_=tt_cl_t6
p1285
sVimage
p1286
g3
sVcharacter
p1287
VThe Boss
p1288
sVname
p1289
VE. Van Beaver
p1290
sa(dp1291
Vlink
p1292
Vhttp://www.imdb.com/name/nm0853345/?ref_=tt_cl_t7
p1293
sVimage
p1294
g3
sVcharacter
p1295
VSlugger Joe       (as Wilfred Taylor)
p1296
sVname
p1297
VWilton Taylor
p1298
sasVlength
p1299
V50
p1300
sVrating_count
p1301
V22
p1302
sVstoryline
p1303
VCheyenne Harry and his pals, bent on helping their friend Rawhide Jack, attend a rodeo with the intent to win the prize and to hand the winnings over to Jack. Harry is the successful winner and after the rodeo the boys get drunk and fall asleep.
p1304
sVstars
p1305
(lp1306
VHarry Carey
p1307
aVMolly Malone
p1308
aVMartha Mattox
p1309
asVyear
p1310
V1918
p1311
sVgenre
p1312
(lp1313
VComedy
p1314
aVWestern
p1315
asVtrailer
p1316
(lp1317
sVmetadata
p1318
(dp1319
Vasp_retio
p1320
V1.33 : 1
p1321
sVsound_mix
p1322
(lp1323
VSilent
p1324
asVgross
p1325
g3
sVcountries
p1326
(lp1327
VUSA
p1328
asVbudget
p1329
g3
sVlanguages
p1330
(lp1331
VEnglish
p1332
asVfilming_locations
p1333
(lp1334
sValso_known_as
p1335
(lp1336
VDivlje zene
p1337
assa(dp1338
Vrating
p1339
g3
sVdescription
p1340
g3
sVtitle
p1341
VWild Women and Tame Lions
p1342
sVurl
p1343
(dp1344
Vurl
p1345
Vhttp://www.imdb.com/title/tt9812
p1346
ssVposter
p1347
(dp1348
Vlarge
p1349
Vhttps://images-na.ssl-images-amazon.com/images/M/MV5BNGJlOWRkMzAtMDZlYS00MDBjLWEwOGUtYjExMjdiYWQxZjMxXkEyXkFqcGdeQXVyMDUyOTUyNQ@@._V1_.jpg
p1350
sVthumb
p1351
Vhttps://images-na.ssl-images-amazon.com/images/M/MV5BNGJlOWRkMzAtMDZlYS00MDBjLWEwOGUtYjExMjdiYWQxZjMxXkEyXkFqcGdeQXVyMDUyOTUyNQ@@._V1_UY268_CR252,0,182,268_AL_.jpg
p1352
ssVrelease_date
p1353
V1918-06-02
p1354
sVcontent_rating
p1355
g3
sVoriginal_title
p1356
g3
sVwriters
p1357
(lp1358
VHenry Lehrman
p1359
asVimdb_id
p1360
Vtt0009812
p1361
sVdirector
p1362
VWilliam Campbell
p1363
sVcast
p1364
(lp1365
(dp1366
Vlink
p1367
Vhttp://www.imdb.com/name/nm0827509/?ref_=tt_cl_t1
p1368
sVimage
p1369
Vhttps://images-na.ssl-images-amazon.com/images/M/MV5BMTYwMTgzNDM4MV5BMl5BanBnXkFtZTgwMDkzODE1MzE@._V1._CR140,177,717,957_UY44_CR0,0,32,44_AL_.jpg
p1370
sVcharacter
p1371
g3
sVname
p1372
VFord Sterling
p1373
sa(dp1374
Vlink
p1375
Vhttp://www.imdb.com/name/nm0011063/?ref_=tt_cl_t2
p1376
sVimage
p1377
g3
sVcharacter
p1378
g3
sVname
p1379
VJimmie Adams
p1380
sa(dp1381
Vlink
p1382
Vhttp://www.imdb.com/name/nm0853600/?ref_=tt_cl_t3
p1383
sVimage
p1384
Vhttps://images-na.ssl-images-amazon.com/images/M/MV5BNGJlOWRkMzAtMDZlYS00MDBjLWEwOGUtYjExMjdiYWQxZjMxXkEyXkFqcGdeQXVyMDUyOTUyNQ@@._V1_UY44_CR40,0,32,44_AL_.jpg
p1385
sVcharacter
p1386
g3
sVname
p1387
VEthel Teare
p1388
sa(dp1389
Vlink
p1390
Vhttp://www.imdb.com/name/nm0448366/?ref_=tt_cl_t4
p1391
sVimage
p1392
Vhttps://images-na.ssl-images-amazon.com/images/M/MV5BMzk0OTk2ZjctNTdiZi00OGZjLWFhYWUtMDgzYjQ0ZWQ2Y2ViL2ltYWdlL2ltYWdlXkEyXkFqcGdeQXVyMzI5NDcxNzI@._UY317_CR16,0,214,317_AL_.jpg
p1393
sVcharacter
p1394
g3
sVname
p1395
VTom Kennedy
p1396
sa(dp1397
Vlink
p1398
g3
sVimage
p1399
g3
sVcharacter
p1400
g3
sVname
p1401
g3
sa(dp1402
Vlink
p1403
Vhttp://www.imdb.com/name/nm0269572/?ref_=tt_cl_t5
p1404
sVimage
p1405
g3
sVcharacter
p1406
g3
sVname
p1407
VHugh Fay
p1408
sa(dp1409
Vlink
p1410
Vhttp://www.imdb.com/name/nm0728531/?ref_=tt_cl_t6
p1411
sVimage
p1412
g3
sVcharacter
p1413
g3
sVname
p1414
VBillie Ritchie
p1415
sasVlength
p1416
g3
sVrating_count
p1417
g3
sVstoryline
p1418
g3
sVstars
p1419
(lp1420
VFord Sterling
p1421
aVJimmie Adams
p1422
aVEthel Teare
p1423
asVyear
p1424
V1918
p1425
sVgenre
p1426
(lp1427
VComedy
p1428
aVShort
p1429
asVtrailer
p1430
(lp1431
sVmetadata
p1432
(dp1433
Vasp_retio
p1434
V1.33 : 1
p1435
sVsound_mix
p1436
(lp1437
VSilent
p1438
asVgross
p1439
g3
sVcountries
p1440
(lp1441
VUSA
p1442
asVbudget
p1443
g3
sVlanguages
p1444
(lp1445
VEnglish
p1446
asVfilming_locations
p1447
(lp1448
sValso_known_as
p1449
(lp1450
VVilde Kvinder og tamme L&#248;ver!
p1451
assa(dp1452
Vrating
p1453
g3
sVdescription
p1454
g3
sVtitle
p1455
g3
sVurl
p1456
(dp1457
Vurl
p1458
Vhttp://www.imdb.com/title/tt9813
p1459
ssVposter
p1460
(dp1461
Vlarge
p1462
V_V1_.jpg
p1463
sVthumb
p1464
g3
ssVrelease_date
p1465
g3
sVcontent_rating
p1466
g3
sVoriginal_title
p1467
g3
sVwriters
p1468
(lp1469
sVimdb_id
p1470
g3
sVdirector
p1471
g3
sVcast
p1472
(lp1473
sVlength
p1474
g3
sVrating_count
p1475
g3
sVstoryline
p1476
g3
sVstars
p1477
(lp1478
sVyear
p1479
g3
sVgenre
p1480
(lp1481
sVtrailer
p1482
(lp1483
sVmetadata
p1484
(dp1485
Vasp_retio
p1486
g3
sVsound_mix
p1487
(lp1488
sVgross
p1489
g3
sVcountries
p1490
(lp1491
sVbudget
p1492
g3
sVlanguages
p1493
(lp1494
sVfilming_locations
p1495
(lp1496
sValso_known_as
p1497
(lp1498
ssa(dp1499
Vrating
p1500
g3
sVdescription
p1501
g3
sVtitle
p1502
VThe Winding Trail
p1503
sVurl
p1504
(dp1505
Vurl
p1506
Vhttp://www.imdb.com/title/tt9814
p1507
ssVposter
p1508
(dp1509
Vlarge
p1510
Vhttps://images-na.ssl-images-amazon.com/images/M/MV5BYmY0NjMxZWYtNTMzZS00NDYyLWI1ZjctNjU4YTZhNWYzODZjXkEyXkFqcGdeQXVyNjc5OTQ1MjQ@._V1_.jpg
p1511
sVthumb
p1512
Vhttps://images-na.ssl-images-amazon.com/images/M/MV5BYmY0NjMxZWYtNTMzZS00NDYyLWI1ZjctNjU4YTZhNWYzODZjXkEyXkFqcGdeQXVyNjc5OTQ1MjQ@._V1_UY268_CR9,0,182,268_AL_.jpg
p1513
ssVrelease_date
p1514
V1918-01-14
p1515
sVcontent_rating
p1516
g3
sVoriginal_title
p1517
g3
sVwriters
p1518
(lp1519
VKatharine Kavanaugh
p1520
aVH.P. Keeler
p1521
asVimdb_id
p1522
Vtt0009814
p1523
sVdirector
p1524
VJohn H. Collins
p1525
sVcast
p1526
(lp1527
(dp1528
Vlink
p1529
Vhttp://www.imdb.com/name/nm0199087/?ref_=tt_cl_t1
p1530
sVimage
p1531
Vhttps://images-na.ssl-images-amazon.com/images/M/MV5BOTI2ODg0MzczMl5BMl5BanBnXkFtZTYwOTI1MDU2._V1_UY44_CR1,0,32,44_AL_.jpg
p1532
sVcharacter
p1533
VAudrey Graham
p1534
sVname
p1535
VViola Dana
p1536
sa(dp1537
Vlink
p1538
Vhttp://www.imdb.com/name/nm0115446/?ref_=tt_cl_t2
p1539
sVimage
p1540
Vhttps://images-na.ssl-images-amazon.com/images/M/MV5BNTc2MmRjMDktOWYxNC00NTA3LWEwY2QtNGU5MzY4MmRiOTZhXkEyXkFqcGdeQXVyMzI5NDcxNzI@._UY317_CR16,0,214,317_AL_.jpg
p1541
sVcharacter
p1542
VZachary Wando
p1543
sVname
p1544
VClifford Bruce
p1545
sa(dp1546
Vlink
p1547
Vhttp://www.imdb.com/name/nm0532996/?ref_=tt_cl_t3
p1548
sVimage
p1549
Vhttps://images-na.ssl-images-amazon.com/images/M/MV5BNjk3OGNlNDctYjEyNC00OTBmLWI3NmYtYzMyZTdlN2RkZjc3XkEyXkFqcGdeQXVyMzI5NDcxNzI@._V1_UY44_CR6,0,32,44_AL_.jpg
p1550
sVcharacter
p1551
VAlvin Steele
p1552
sVname
p1553
VHayward Mack
p1554
sa(dp1555
Vlink
p1556
Vhttp://www.imdb.com/name/nm0885818/?ref_=tt_cl_t4
p1557
sVimage
p1558
Vhttps://images-na.ssl-images-amazon.com/images/M/MV5BMTVjNTZjMGUtZmZlYS00NGZlLTgyYzgtNjlmOTM0OTc5MGU0XkEyXkFqcGdeQXVyMDUyOTUyNQ@@._V1_UY44_CR15,0,32,44_AL_.jpg
p1559
sVcharacter
p1560
VLou
p1561
sVname
p1562
VMabel Van Buren
p1563
sasVlength
p1564
g3
sVrating_count
p1565
g3
sVstoryline
p1566
g3
sVstars
p1567
(lp1568
VViola Dana
p1569
aVClifford Bruce
p1570
aVHayward Mack
p1571
asVyear
p1572
V1918
p1573
sVgenre
p1574
(lp1575
VWestern
p1576
asVtrailer
p1577
(lp1578
sVmetadata
p1579
(dp1580
Vasp_retio
p1581
V1.33 : 1
p1582
sVsound_mix
p1583
(lp1584
VSilent
p1585
asVgross
p1586
g3
sVcountries
p1587
(lp1588
VUSA
p1589
asVbudget
p1590
g3
sVlanguages
p1591
(lp1592
VEnglish
p1593
asVfilming_locations
p1594
(lp1595
sValso_known_as
p1596
(lp1597
ssa(dp1598
Vrating
p1599
g3
sVdescription
p1600
g3
sVtitle
p1601
VThe Wine Girl
p1602
sVurl
p1603
(dp1604
Vurl
p1605
Vhttp://www.imdb.com/title/tt9815
p1606
ssVposter
p1607
(dp1608
Vlarge
p1609
Vhttp://ia.media-imdb.com/images/G/01/imdb/images/logos/imdb_fb_logo-1730868325._CB514892123_.png_V1_.jpg
p1610
sVthumb
p1611
g3
ssVrelease_date
p1612
V1918-03-25
p1613
sVcontent_rating
p1614
g3
sVoriginal_title
p1615
g3
sVwriters
p1616
(lp1617
VHarvey Gates
p1618
asVimdb_id
p1619
Vtt0009815
p1620
sVdirector
p1621
VStuart Paton
p1622
sVcast
p1623
(lp1624
(dp1625
Vlink
p1626
Vhttp://www.imdb.com/name/nm0616659/?ref_=tt_cl_t1
p1627
sVimage
p1628
Vhttps://images-na.ssl-images-amazon.com/images/M/MV5BMjI4MTUyMDcwMl5BMl5BanBnXkFtZTgwMzc2ODY3MTE@._V1._CR134.88333129882812,167.53334045410156,737,986_UY44_CR0,0,32,44_AL_.jpg
p1629
sVcharacter
p1630
VBona
p1631
sVname
p1632
VCarmel Myers
p1633
sa(dp1634
Vlink
p1635
Vhttp://www.imdb.com/name/nm0211274/?ref_=tt_cl_t2
p1636
sVimage
p1637
g3
sVcharacter
p1638
VAndrea Minghetti
p1639
sVname
p1640
VRex De Rosselli
p1641
sa(dp1642
Vlink
p1643
Vhttp://www.imdb.com/name/nm0912810/?ref_=tt_cl_t3
p1644
sVimage
p1645
Vhttps://images-na.ssl-images-amazon.com/images/M/MV5BYzU1ODcyN2UtYjI4MC00ZTg1LWI4YWMtZDI2YzBlNGJjZDRjXkEyXkFqcGdeQXVyMTQxMjk0Mg@@._V1_UY44_CR1,0,32,44_AL_.jpg
p1646
sVcharacter
p1647
VChico Piave       (as E.A. Warren)
p1648
sVname
p1649
VE. Alyn Warren
p1650
sa(dp1651
Vlink
p1652
Vhttp://www.imdb.com/name/nm0363218/?ref_=tt_cl_t4
p1653
sVimage
p1654
Vhttps://images-na.ssl-images-amazon.com/images/M/MV5BM2IxNWM2NTQtMWZiYi00OGExLTkxYTYtZGJkMjBhNGIyN2Y1XkEyXkFqcGdeQXVyMzI5NDcxNzI@._V1_UY44_CR1,0,32,44_AL_.jpg
p1655
sVcharacter
p1656
VFrank Harris
p1657
sVname
p1658
VKenneth Harlan
p1659
sa(dp1660
Vlink
p1661
Vhttp://www.imdb.com/name/nm0456807/?ref_=tt_cl_t5
p1662
sVimage
p1663
g3
sVcharacter
p1664
VMrs. Harris
p1665
sVname
p1666
VKatherine Kirkwood
p1667
sasVlength
p1668
V50
p1669
sVrating_count
p1670
g3
sVstoryline
p1671
g3
sVstars
p1672
(lp1673
VCarmel Myers
p1674
aVRex De Rosselli
p1675
aVE. Alyn Warren
p1676
asVyear
p1677
V1918
p1678
sVgenre
p1679
(lp1680
VDrama
p1681
asVtrailer
p1682
(lp1683
sVmetadata
p1684
(dp1685
Vasp_retio
p1686
V1.33 : 1
p1687
sVsound_mix
p1688
(lp1689
VSilent
p1690
asVgross
p1691
g3
sVcountries
p1692
(lp1693
VUSA
p1694
asVbudget
p1695
g3
sVlanguages
p1696
(lp1697
VEnglish
p1698
asVfilming_locations
p1699
(lp1700
sValso_known_as
p1701
(lp1702
ssa(dp1703
Vrating
p1704
g3
sVdescription
p1705
g3
sVtitle
p1706
VWinner Takes All
p1707
sVurl
p1708
(dp1709
Vurl
p1710
Vhttp://www.imdb.com/title/tt9816
p1711
ssVposter
p1712
(dp1713
Vlarge
p1714
Vhttp://ia.media-imdb.com/images/G/01/imdb/images/logos/imdb_fb_logo-1730868325._CB514892123_.png_V1_.jpg
p1715
sVthumb
p1716
g3
ssVrelease_date
p1717
V1918-07-20
p1718
sVcontent_rating
p1719
g3
sVoriginal_title
p1720
g3
sVwriters
p1721
(lp1722
VC.W. Ogden
p1723
aVVerne Hardin Porter
p1724
asVimdb_id
p1725
Vtt0009816
p1726
sVdirector
p1727
VElmer Clifton
p1728
sVcast
p1729
(lp1730
(dp1731
Vlink
p1732
Vhttp://www.imdb.com/name/nm0758457/?ref_=tt_cl_t1
p1733
sVimage
p1734
Vhttps://images-na.ssl-images-amazon.com/images/M/MV5BOTJlMzZhYmMtN2NmZS00MGIxLWFjN2YtYzA5YTFiZTIzODQ1XkEyXkFqcGdeQXVyMDUyOTUyNQ@@._V1_UY44_CR22,0,32,44_AL_.jpg
p1735
sVcharacter
p1736
VAlan MacDonald
p1737
sVname
p1738
VMonroe Salisbury
p1739
sa(dp1740
Vlink
p1741
Vhttp://www.imdb.com/name/nm0020251/?ref_=tt_cl_t2
p1742
sVimage
p1743
Vhttps://images-na.ssl-images-amazon.com/images/M/MV5BYTI1ODY5ZDctMGQ2YS00YWM0LWI5NzItYTE5MzllM2E1MTg1XkEyXkFqcGdeQXVyMzI5NDcxNzI@._V1_UY44_CR1,0,32,44_AL_.jpg
p1744
sVcharacter
p1745
VSaul Chadron
p1746
sVname
p1747
VAlfred Allen
p1748
sa(dp1749
Vlink
p1750
Vhttp://www.imdb.com/name/nm0769554/?ref_=tt_cl_t3
p1751
sVimage
p1752
g3
sVcharacter
p1753
VNola Chadron
p1754
sVname
p1755
VBetty Schade
p1756
sa(dp1757
Vlink
p1758
Vhttp://www.imdb.com/name/nm0248890/?ref_=tt_cl_t4
p1759
sVimage
p1760
Vhttps://images-na.ssl-images-amazon.com/images/M/MV5BMjM2MDk3NjcyN15BMl5BanBnXkFtZTgwNTMyNjc3MTE@._V1._CR53.883331298828125,58.53334045410156,888,1245_UX32_CR0,0,32,44_AL_.jpg
p1761
sVcharacter
p1762
VFrances Landcrafe
p1763
sVname
p1764
VHelen Jerome Eddy
p1765
sa(dp1766
Vlink
p1767
Vhttp://www.imdb.com/name/nm0208659/?ref_=tt_cl_t5
p1768
sVimage
p1769
Vhttps://images-na.ssl-images-amazon.com/images/M/MV5BZTI3ODVmMTItOTJhMy00YWQ1LWEyNDQtNDQ1NDRhZmViMThhL2ltYWdlL2ltYWdlXkEyXkFqcGdeQXVyMzI5NDcxNzI@._V1_UY44_CR0,0,32,44_AL_.jpg
p1770
sVcharacter
p1771
VMark Thorne
p1772
sVname
p1773
VSam De Grasse
p1774
sa(dp1775
Vlink
p1776
Vhttp://www.imdb.com/name/nm0625424/?ref_=tt_cl_t6
p1777
sVimage
p1778
Vhttps://images-na.ssl-images-amazon.com/images/M/MV5BY2E3ZjliNTQtYWYzNS00MDk0LWExYTEtMTc2NmNlMWZmMTk2XkEyXkFqcGdeQXVyMzI5NDcxNzI@._UY317_CR16,0,214,317_AL_.jpg
p1779
sVcharacter
p1780
VBanjo Gibson
p1781
sVname
p1782
VJack Nelson
p1783
sasVlength
p1784
V50
p1785
sVrating_count
p1786
g3
sVstoryline
p1787
g3
sVstars
p1788
(lp1789
VMonroe Salisbury
p1790
aVAlfred Allen
p1791
aVBetty Schade
p1792
asVyear
p1793
V1918
p1794
sVgenre
p1795
(lp1796
VDrama
p1797
aVWestern
p1798
asVtrailer
p1799
(lp1800
sVmetadata
p1801
(dp1802
Vasp_retio
p1803
V1.33 : 1
p1804
sVsound_mix
p1805
(lp1806
VSilent
p1807
asVgross
p1808
g3
sVcountries
p1809
(lp1810
VUSA
p1811
asVbudget
p1812
g3
sVlanguages
p1813
(lp1814
VEnglish
p1815
asVfilming_locations
p1816
(lp1817
sValso_known_as
p1818
(lp1819
VThe Rustler of Wind River
p1820
assa(dp1821
Vrating
p1822
g3
sVdescription
p1823
g3
sVtitle
p1824
g3
sVurl
p1825
(dp1826
Vurl
p1827
Vhttp://www.imdb.com/title/tt9817
p1828
ssVposter
p1829
(dp1830
Vlarge
p1831
V_V1_.jpg
p1832
sVthumb
p1833
g3
ssVrelease_date
p1834
g3
sVcontent_rating
p1835
g3
sVoriginal_title
p1836
g3
sVwriters
p1837
(lp1838
sVimdb_id
p1839
g3
sVdirector
p1840
g3
sVcast
p1841
(lp1842
sVlength
p1843
g3
sVrating_count
p1844
g3
sVstoryline
p1845
g3
sVstars
p1846
(lp1847
sVyear
p1848
g3
sVgenre
p1849
(lp1850
sVtrailer
p1851
(lp1852
sVmetadata
p1853
(dp1854
Vasp_retio
p1855
g3
sVsound_mix
p1856
(lp1857
sVgross
p1858
g3
sVcountries
p1859
(lp1860
sVbudget
p1861
g3
sVlanguages
p1862
(lp1863
sVfilming_locations
p1864
(lp1865
sValso_known_as
p1866
(lp1867
ssa(dp1868
Vrating
p1869
g3
sVdescription
p1870
g3
sVtitle
p1871
VThe Winning of the Mocking Bird
p1872
sVurl
p1873
(dp1874
Vurl
p1875
Vhttp://www.imdb.com/title/tt9818
p1876
ssVposter
p1877
(dp1878
Vlarge
p1879
Vhttp://ia.media-imdb.com/images/G/01/imdb/images/logos/imdb_fb_logo-1730868325._CB514892123_.png_V1_.jpg
p1880
sVthumb
p1881
g3
ssVrelease_date
p1882
V1918-07-27
p1883
sVcontent_rating
p1884
g3
sVoriginal_title
p1885
g3
sVwriters
p1886
(lp1887
VAlfred Henry Lewis
p1888
asVimdb_id
p1889
Vtt0009818
p1890
sVdirector
p1891
VLewis A. Watts
p1892
sVcast
p1893
(lp1894
(dp1895
Vlink
p1896
Vhttp://www.imdb.com/name/nm0391295/?ref_=tt_cl_t1
p1897
sVimage
p1898
g3
sVcharacter
p1899
VThe Mockingbird
p1900
sVname
p1901
VCarol Holloway
p1902
sa(dp1903
Vlink
p1904
Vhttp://www.imdb.com/name/nm0075318/?ref_=tt_cl_t2
p1905
sVimage
p1906
g3
sVcharacter
p1907
V(as William Lester)
p1908
sVname
p1909
VWilliam Berke
p1910
sa(dp1911
Vlink
p1912
Vhttp://www.imdb.com/name/nm0122590/?ref_=tt_cl_t3
p1913
sVimage
p1914
Vhttps://images-na.ssl-images-amazon.com/images/M/MV5BZDMzMjdhYTktOTk4MC00M2UwLWJmNTMtZWNjZWE1MjVkMzQ3XkEyXkFqcGdeQXVyMzI5NDcxNzI@._V1_UY44_CR1,0,32,44_AL_.jpg
p1915
sVcharacter
p1916
VCherokee Hall       (as Robert Burns)
p1917
sVname
p1918
VBob Burns
p1919
sasVlength
p1920
g3
sVrating_count
p1921
g3
sVstoryline
p1922
g3
sVstars
p1923
(lp1924
VCarol Holloway
p1925
aVWilliam Berke
p1926
aVBob Burns
p1927
asVyear
p1928
V1918
p1929
sVgenre
p1930
(lp1931
VShort
p1932
aVAdventure
p1933
aVWestern
p1934
asVtrailer
p1935
(lp1936
sVmetadata
p1937
(dp1938
Vasp_retio
p1939
V1.33 : 1
p1940
sVsound_mix
p1941
(lp1942
VSilent
p1943
asVgross
p1944
g3
sVcountries
p1945
(lp1946
VUSA
p1947
asVbudget
p1948
g3
sVlanguages
p1949
(lp1950
VEnglish
p1951
asVfilming_locations
p1952
(lp1953
sValso_known_as
p1954
(lp1955
ssa(dp1956
Vrating
p1957
g3
sVdescription
p1958
VA documentary/travelogue describing life in the Pyrenees mountains of Southern France, filmed during World War I in this comparatively peaceful portion of the country.
p1959
sVtitle
p1960
VWinter Scenes in Southern France
p1961
sVurl
p1962
(dp1963
Vurl
p1964
Vhttp://www.imdb.com/title/tt9819
p1965
ssVposter
p1966
(dp1967
Vlarge
p1968
Vhttp://ia.media-imdb.com/images/G/01/imdb/images/logos/imdb_fb_logo-1730868325._CB514892123_.png_V1_.jpg
p1969
sVthumb
p1970
g3
ssVrelease_date
p1971
V1918-05-26
p1972
sVcontent_rating
p1973
g3
sVoriginal_title
p1974
g3
sVwriters
p1975
(lp1976
sVimdb_id
p1977
Vtt0009819
p1978
sVdirector
p1979
g3
sVcast
p1980
(lp1981
sVlength
p1982
g3
sVrating_count
p1983
g3
sVstoryline
p1984
VA documentary/travelogue describing life in the Pyrenees mountains of Southern France, filmed during World War I in this comparatively peaceful portion of the country.
p1985
sVstars
p1986
(lp1987
sVyear
p1988
V1918
p1989
sVgenre
p1990
(lp1991
VDocumentary
p1992
asVtrailer
p1993
(lp1994
sVmetadata
p1995
(dp1996
Vasp_retio
p1997
V1.33 : 1
p1998
sVsound_mix
p1999
(lp2000
VSilent
p2001
asVgross
p2002
g3
sVcountries
p2003
(lp2004
VUSA
p2005
asVbudget
p2006
g3
sVlanguages
p2007
(lp2008
sVfilming_locations
p2009
(lp2010
VFrance
p2011
asValso_known_as
p2012
(lp2013
ssa(dp2014
Vrating
p2015
g3
sVdescription
p2016
g3
sVtitle
p2017
VThe Witch Woman
p2018
sVurl
p2019
(dp2020
Vurl
p2021
Vhttp://www.imdb.com/title/tt9820
p2022
ssVposter
p2023
(dp2024
Vlarge
p2025
Vhttp://ia.media-imdb.com/images/G/01/imdb/images/logos/imdb_fb_logo-1730868325._CB514892123_.png_V1_.jpg
p2026
sVthumb
p2027
g3
ssVrelease_date
p2028
V1918-04-08
p2029
sVcontent_rating
p2030
g3
sVoriginal_title
p2031
g3
sVwriters
p2032
(lp2033
VWillard Mack
p2034
asVimdb_id
p2035
Vtt0009820
p2036
sVdirector
p2037
VTravers Vale
p2038
sVcast
p2039
(lp2040
(dp2041
Vlink
p2042
Vhttp://www.imdb.com/name/nm0165691/?ref_=tt_cl_t1
p2043
sVimage
p2044
Vhttps://images-na.ssl-images-amazon.com/images/M/MV5BMTgyOTg3NDQzNF5BMl5BanBnXkFtZTgwNzQxODY3MTE@._V1._CR29.883331298828125,29.533340454101562,300,440_UX32_CR0,0,32,44_AL_.jpg
p2045
sVcharacter
p2046
VMarie Beaupre
p2047
sVname
p2048
VEthel Clayton
p2049
sa(dp2050
Vlink
p2051
Vhttp://www.imdb.com/name/nm0562866/?ref_=tt_cl_t2
p2052
sVimage
p2053
Vhttps://images-na.ssl-images-amazon.com/images/M/MV5BMWNkMDNkMTItNGY1NC00OTIzLTg2NjUtZWQ2MTFhNzk0NGU1XkEyXkFqcGdeQXVyMzI5NDcxNzI@._V1_UY44_CR0,0,32,44_AL_.jpg
p2054
sVcharacter
p2055
VLouis La Farge /              Maurice La Farge
p2056
sVname
p2057
VFrank Mayo
p2058
sa(dp2059
Vlink
p2060
Vhttp://www.imdb.com/name/nm0034090/?ref_=tt_cl_t3
p2061
sVimage
p2062
g3
sVcharacter
p2063
VDr. Cochefort
p2064
sVname
p2065
VJohn Ardizoni
p2066
sa(dp2067
Vlink
p2068
Vhttp://www.imdb.com/name/nm0238532/?ref_=tt_cl_t4
p2069
sVimage
p2070
g3
sVcharacter
p2071
VDelaunay
p2072
sVname
p2073
VJack Drumier
p2074
sa(dp2075
Vlink
p2076
Vhttp://www.imdb.com/name/nm0883898/?ref_=tt_cl_t5
p2077
sVimage
p2078
Vhttps://images-na.ssl-images-amazon.com/images/M/MV5BMTdjZmY5MDItNjY2OS00YjY3LWEzN2EtODNkY2UzM2E0MmFkXkEyXkFqcGdeQXVyMDUyOTUyNQ@@._V1_UY44_CR14,0,32,44_AL_.jpg
p2079
sVcharacter
p2080
VAndrea Montignac
p2081
sVname
p2082
VLouise Vale
p2083
sa(dp2084
Vlink
p2085
Vhttp://www.imdb.com/name/nm0849806/?ref_=tt_cl_t6
p2086
sVimage
p2087
g3
sVcharacter
p2088
VPaul Martinet       (as Robert Tansey)
p2089
sVname
p2090
VRobert Emmett Tansey
p2091
sasVlength
p2092
g3
sVrating_count
p2093
g3
sVstoryline
p2094
g3
sVstars
p2095
(lp2096
VEthel Clayton
p2097
aVFrank Mayo
p2098
aVJohn Ardizoni
p2099
asVyear
p2100
V1918
p2101
sVgenre
p2102
(lp2103
VDrama
p2104
asVtrailer
p2105
(lp2106
sVmetadata
p2107
(dp2108
Vasp_retio
p2109
V1.33 : 1
p2110
sVsound_mix
p2111
(lp2112
VSilent
p2113
asVgross
p2114
g3
sVcountries
p2115
(lp2116
VUSA
p2117
asVbudget
p2118
g3
sVlanguages
p2119
(lp2120
sVfilming_locations
p2121
(lp2122
sValso_known_as
p2123
(lp2124
ssa(dp2125
Vrating
p2126
g3
sVdescription
p2127
g3
sVtitle
p2128
g3
sVurl
p2129
(dp2130
Vurl
p2131
Vhttp://www.imdb.com/title/tt9821
p2132
ssVposter
p2133
(dp2134
Vlarge
p2135
V_V1_.jpg
p2136
sVthumb
p2137
g3
ssVrelease_date
p2138
g3
sVcontent_rating
p2139
g3
sVoriginal_title
p2140
g3
sVwriters
p2141
(lp2142
sVimdb_id
p2143
g3
sVdirector
p2144
g3
sVcast
p2145
(lp2146
sVlength
p2147
g3
sVrating_count
p2148
g3
sVstoryline
p2149
g3
sVstars
p2150
(lp2151
sVyear
p2152
g3
sVgenre
p2153
(lp2154
sVtrailer
p2155
(lp2156
sVmetadata
p2157
(dp2158
Vasp_retio
p2159
g3
sVsound_mix
p2160
(lp2161
sVgross
p2162
g3
sVcountries
p2163
(lp2164
sVbudget
p2165
g3
sVlanguages
p2166
(lp2167
sVfilming_locations
p2168
(lp2169
sValso_known_as
p2170
(lp2171
ssa(dp2172
Vrating
p2173
g3
sVdescription
p2174
g3
sVtitle
p2175
VWithin the Cup
p2176
sVurl
p2177
(dp2178
Vurl
p2179
Vhttp://www.imdb.com/title/tt9822
p2180
ssVposter
p2181
(dp2182
Vlarge
p2183
Vhttp://ia.media-imdb.com/images/G/01/imdb/images/logos/imdb_fb_logo-1730868325._CB514892123_.png_V1_.jpg
p2184
sVthumb
p2185
g3
ssVrelease_date
p2186
V1918-03-01
p2187
sVcontent_rating
p2188
g3
sVoriginal_title
p2189
g3
sVwriters
p2190
(lp2191
VMonte M. Katterjohn
p2192
aVMonte M. Katterjohn
p2193
asVimdb_id
p2194
Vtt0009822
p2195
sVdirector
p2196
VRaymond B. West
p2197
sVcast
p2198
(lp2199
(dp2200
Vlink
p2201
Vhttp://www.imdb.com/name/nm0057585/?ref_=tt_cl_t1
p2202
sVimage
p2203
Vhttps://images-na.ssl-images-amazon.com/images/M/MV5BNzRlMDFlOGItYjUwOC00ZTdjLThkODItZTk4N2FhNGY5YTIyXkEyXkFqcGdeQXVyMjUxODE0MDY@._V1_UY44_CR1,0,32,44_AL_.jpg
p2204
sVcharacter
p2205
VThisbe Lorraine
p2206
sVname
p2207
VBessie Barriscale
p2208
sa(dp2209
Vlink
p2210
Vhttp://www.imdb.com/name/nm0279508/?ref_=tt_cl_t2
p2211
sVimage
p2212
Vhttps://images-na.ssl-images-amazon.com/images/M/MV5BNzAwODI5YzItMjhlNy00NzA1LWEyNjktNGEwZjNlZjFmOTlmXkEyXkFqcGdeQXVyMzI5NDcxNzI@._UY317_CR16,0,214,317_AL_.jpg
p2213
sVcharacter
p2214
VLe Saint Hammond
p2215
sVname
p2216
VGeorge Fisher
p2217
sa(dp2218
Vlink
p2219
Vhttp://www.imdb.com/name/nm0185300/?ref_=tt_cl_t3
p2220
sVimage
p2221
Vhttps://images-na.ssl-images-amazon.com/images/M/MV5BZjgxNTQ0YWUtM2Y5Ni00ZmU0LWI4NGUtODJkYzIyODIxNWQwXkEyXkFqcGdeQXVyMzI5NDcxNzI@._UY317_CR16,0,214,317_AL_.jpg
p2222
sVcharacter
p2223
VErnst Faber
p2224
sVname
p2225
VEdward Coxen
p2226
sa(dp2227
Vlink
p2228
Vhttp://www.imdb.com/name/nm0380647/?ref_=tt_cl_t4
p2229
sVimage
p2230
g3
sVcharacter
p2231
VTea Cup Ann
p2232
sVname
p2233
VAggie Herring
p2234
sa(dp2235
Vlink
p2236
Vhttp://www.imdb.com/name/nm0515272/?ref_=tt_cl_t5
p2237
sVimage
p2238
Vhttps://images-na.ssl-images-amazon.com/images/M/MV5BMTk5ODY0ODQxMl5BMl5BanBnXkFtZTgwMTM4NDk3MTE@._V1._CR0.883331298828125,2.5333404541015625,231,297_UY44_CR1,0,32,44_AL_.jpg
p2239
sVcharacter
p2240
VUndetermined role
p2241
sVname
p2242
VMargaret Livingston
p2243
sasVlength
p2244
g3
sVrating_count
p2245
g3
sVstoryline
p2246
g3
sVstars
p2247
(lp2248
VBessie Barriscale
p2249
aVGeorge Fisher
p2250
aVEdward Coxen
p2251
asVyear
p2252
V1918
p2253
sVgenre
p2254
(lp2255
VDrama
p2256
asVtrailer
p2257
(lp2258
sVmetadata
p2259
(dp2260
Vasp_retio
p2261
V1.33 : 1
p2262
sVsound_mix
p2263
(lp2264
VSilent
p2265
asVgross
p2266
g3
sVcountries
p2267
(lp2268
VUSA
p2269
asVbudget
p2270
g3
sVlanguages
p2271
(lp2272
sVfilming_locations
p2273
(lp2274
sValso_known_as
p2275
(lp2276
VAu fond de la coupe
p2277
assa(dp2278
Vrating
p2279
g3
sVdescription
p2280
g3
sVtitle
p2281
VWives and Other Wives
p2282
sVurl
p2283
(dp2284
Vurl
p2285
Vhttp://www.imdb.com/title/tt9823
p2286
ssVposter
p2287
(dp2288
Vlarge
p2289
Vhttps://images-na.ssl-images-amazon.com/images/M/MV5BYjllMWNmYzUtNDEzOS00NzVkLTk1NDYtMjZhMGJiMjIyNGM4XkEyXkFqcGdeQXVyMjUxODE0MDY@._V1_.jpg
p2290
sVthumb
p2291
Vhttps://images-na.ssl-images-amazon.com/images/M/MV5BYjllMWNmYzUtNDEzOS00NzVkLTk1NDYtMjZhMGJiMjIyNGM4XkEyXkFqcGdeQXVyMjUxODE0MDY@._V1_UX182_CR0,0,182,268_AL_.jpg
p2292
ssVrelease_date
p2293
V1918-12-15
p2294
sVcontent_rating
p2295
g3
sVoriginal_title
p2296
g3
sVwriters
p2297
(lp2298
VJules Furthman
p2299
aVJules Furthman
p2300
asVimdb_id
p2301
Vtt0009823
p2302
sVdirector
p2303
VLloyd Ingraham
p2304
sVcast
p2305
(lp2306
(dp2307
Vlink
p2308
Vhttp://www.imdb.com/name/nm0591704/?ref_=tt_cl_t1
p2309
sVimage
p2310
Vhttps://images-na.ssl-images-amazon.com/images/M/MV5BMTAwOTY5NDQzMDdeQTJeQWpwZ15BbWU2MDIyMTQzNg@@._V1_UY44_CR0,0,32,44_AL_.jpg
p2311
sVcharacter
p2312
VRobin Challoner
p2313
sVname
p2314
VMary Miles Minter
p2315
sa(dp2316
Vlink
p2317
Vhttp://www.imdb.com/name/nm0153702/?ref_=tt_cl_t2
p2318
sVimage
p2319
g3
sVcharacter
p2320
VGeoffrey Challoner
p2321
sVname
p2322
VColin Chase
p2323
sa(dp2324
Vlink
p2325
Vhttp://www.imdb.com/name/nm0673814/?ref_=tt_cl_t3
p2326
sVimage
p2327
Vhttps://images-na.ssl-images-amazon.com/images/M/MV5BMWZhMWMxZGQtYTljYi00MjM0LWE3ZmEtNDkzNTRhYzM1YjliXkEyXkFqcGdeQXVyMzI5NDcxNzI@._V1_UY44_CR2,0,32,44_AL_.jpg
p2328
sVcharacter
p2329
VJudge Corcoran
p2330
sVname
p2331
VGeorge Periolat
p2332
sa(dp2333
Vlink
p2334
Vhttp://www.imdb.com/name/nm0308848/?ref_=tt_cl_t4
p2335
sVimage
p2336
Vhttps://images-na.ssl-images-amazon.com/images/M/MV5BMDdmNTgwODgtMDNkZi00NDM2LTljMmEtYjMxNjIwMWIwOTYwXkEyXkFqcGdeQXVyMDUyOTUyNQ@@._V1_UY44_CR14,0,32,44_AL_.jpg
p2337
sVcharacter
p2338
VNorman Craig
p2339
sVname
p2340
VWilliam Garwood
p2341
sa(dp2342
Vlink
p2343
Vhttp://www.imdb.com/name/nm0790973/?ref_=tt_cl_t5
p2344
sVimage
p2345
g3
sVcharacter
p2346
VMrs. Craig
p2347
sVname
p2348
VMargaret Shelby
p2349
sa(dp2350
Vlink
p2351
Vhttp://www.imdb.com/name/nm0912160/?ref_=tt_cl_t6
p2352
sVimage
p2353
g3
sVcharacter
p2354
VMrs. Corcoran
p2355
sVname
p2356
VVirginia Ware
p2357
sa(dp2358
Vlink
p2359
Vhttp://www.imdb.com/name/nm0830769/?ref_=tt_cl_t7
p2360
sVimage
p2361
Vhttps://images-na.ssl-images-amazon.com/images/M/MV5BMTYwY2Y5YjQtMWE1NS00ZjYyLTg0OGMtY2U3MTY5NTEyNWFkXkEyXkFqcGdeQXVyMzI5NDcxNzI@._V1_UY44_CR1,0,32,44_AL_.jpg
p2362
sVcharacter
p2363
VTed Doubleday
p2364
sVname
p2365
VCarl Stockdale
p2366
sa(dp2367
Vlink
p2368
Vhttp://www.imdb.com/name/nm0285947/?ref_=tt_cl_t8
p2369
sVimage
p2370
g3
sVcharacter
p2371
VMrs. Doubleday
p2372
sVname
p2373
VEugenie Forde
p2374
sa(dp2375
Vlink
p2376
Vhttp://www.imdb.com/name/nm0605852/?ref_=tt_cl_t9
p2377
sVimage
p2378
g3
sVcharacter
p2379
VRita
p2380
sVname
p2381
VMarie Morledge
p2382
sa(dp2383
Vlink
p2384
Vhttp://www.imdb.com/name/nm0332217/?ref_=tt_cl_t10
p2385
sVimage
p2386
g3
sVcharacter
p2387
VHiggins
p2388
sVname
p2389
VJohn Gough
p2390
sasVlength
p2391
g3
sVrating_count
p2392
g3
sVstoryline
p2393
g3
sVstars
p2394
(lp2395
VMary Miles Minter
p2396
aVColin Chase
p2397
aVGeorge Periolat
p2398
asVyear
p2399
V1918
p2400
sVgenre
p2401
(lp2402
VComedy
p2403
aVDrama
p2404
asVtrailer
p2405
(lp2406
sVmetadata
p2407
(dp2408
Vasp_retio
p2409
V1.33 : 1
p2410
sVsound_mix
p2411
(lp2412
VSilent
p2413
asVgross
p2414
g3
sVcountries
p2415
(lp2416
VUSA
p2417
asVbudget
p2418
g3
sVlanguages
p2419
(lp2420
sVfilming_locations
p2421
(lp2422
sValso_known_as
p2423
(lp2424
VLes tr&#233;sors du coeur
p2425
assa(dp2426
Vrating
p2427
g3
sVdescription
p2428
g3
sVtitle
p2429
g3
sVurl
p2430
(dp2431
Vurl
p2432
Vhttp://www.imdb.com/title/tt9824
p2433
ssVposter
p2434
(dp2435
Vlarge
p2436
V_V1_.jpg
p2437
sVthumb
p2438
g3
ssVrelease_date
p2439
g3
sVcontent_rating
p2440
g3
sVoriginal_title
p2441
g3
sVwriters
p2442
(lp2443
sVimdb_id
p2444
g3
sVdirector
p2445
g3
sVcast
p2446
(lp2447
sVlength
p2448
g3
sVrating_count
p2449
g3
sVstoryline
p2450
g3
sVstars
p2451
(lp2452
sVyear
p2453
g3
sVgenre
p2454
(lp2455
sVtrailer
p2456
(lp2457
sVmetadata
p2458
(dp2459
Vasp_retio
p2460
g3
sVsound_mix
p2461
(lp2462
sVgross
p2463
g3
sVcountries
p2464
(lp2465
sVbudget
p2466
g3
sVlanguages
p2467
(lp2468
sVfilming_locations
p2469
(lp2470
sValso_known_as
p2471
(lp2472
ssa(dp2473
Vrating
p2474
g3
sVdescription
p2475
g3
sVtitle
p2476
g3
sVurl
p2477
(dp2478
Vurl
p2479
Vhttp://www.imdb.com/title/tt9825
p2480
ssVposter
p2481
(dp2482
Vlarge
p2483
V_V1_.jpg
p2484
sVthumb
p2485
g3
ssVrelease_date
p2486
g3
sVcontent_rating
p2487
g3
sVoriginal_title
p2488
g3
sVwriters
p2489
(lp2490
sVimdb_id
p2491
g3
sVdirector
p2492
g3
sVcast
p2493
(lp2494
sVlength
p2495
g3
sVrating_count
p2496
g3
sVstoryline
p2497
g3
sVstars
p2498
(lp2499
sVyear
p2500
g3
sVgenre
p2501
(lp2502
sVtrailer
p2503
(lp2504
sVmetadata
p2505
(dp2506
Vasp_retio
p2507
g3
sVsound_mix
p2508
(lp2509
sVgross
p2510
g3
sVcountries
p2511
(lp2512
sVbudget
p2513
g3
sVlanguages
p2514
(lp2515
sVfilming_locations
p2516
(lp2517
sValso_known_as
p2518
(lp2519
ssa(dp2520
Vrating
p2521
g3
sVdescription
p2522
VSmoky Gap Railroad president Murray Lemantier is fed up with a bandit gang led by Buck Andrade constantly holding up his train and getting away with it. He hires ace detective David Cassidy...\u000a                    See full summary
p2523
sVtitle
p2524
VWolves of the Rail
p2525
sVurl
p2526
(dp2527
Vurl
p2528
Vhttp://www.imdb.com/title/tt9826
p2529
ssVposter
p2530
(dp2531
Vlarge
p2532
Vhttps://images-na.ssl-images-amazon.com/images/M/MV5BMGRjMThmZGMtNGM2MC00OWQwLTg0N2EtMGNiMjY0NTQyYTRjXkEyXkFqcGdeQXVyMDMxMjQwMw@@._V1_.jpg
p2533
sVthumb
p2534
Vhttps://images-na.ssl-images-amazon.com/images/M/MV5BMGRjMThmZGMtNGM2MC00OWQwLTg0N2EtMGNiMjY0NTQyYTRjXkEyXkFqcGdeQXVyMDMxMjQwMw@@._V1_UY268_CR82,0,182,268_AL_.jpg
p2535
ssVrelease_date
p2536
V1918-01-01
p2537
sVcontent_rating
p2538
g3
sVoriginal_title
p2539
g3
sVwriters
p2540
(lp2541
VDenison Clift
p2542
asVimdb_id
p2543
Vtt0009826
p2544
sVdirector
p2545
VWilliam S. Hart
p2546
sVcast
p2547
(lp2548
(dp2549
Vlink
p2550
Vhttp://www.imdb.com/name/nm0366586/?ref_=tt_cl_t1
p2551
sVimage
p2552
Vhttps://images-na.ssl-images-amazon.com/images/M/MV5BMjE0MzczMTYzM15BMl5BanBnXkFtZTYwMTcyNzM2._V1_UY44_CR1,0,32,44_AL_.jpg
p2553
sVcharacter
p2554
V'Buck' Andrade
p2555
sVname
p2556
VWilliam S. Hart
p2557
sa(dp2558
Vlink
p2559
Vhttp://www.imdb.com/name/nm0358653/?ref_=tt_cl_t2
p2560
sVimage
p2561
g3
sVcharacter
p2562
VDavid Cassidy
p2563
sVname
p2564
VC. Norman Hammond
p2565
sa(dp2566
Vlink
p2567
Vhttp://www.imdb.com/name/nm0255420/?ref_=tt_cl_t3
p2568
sVimage
p2569
g3
sVcharacter
p2570
VPablo Trilles       (as Billy Elmer)
p2571
sVname
p2572
VWilliam Elmer
p2573
sa(dp2574
Vlink
p2575
Vhttp://www.imdb.com/name/nm0532047/?ref_=tt_cl_t4
p2576
sVimage
p2577
g3
sVcharacter
p2578
VMurray Lemantier
p2579
sVname
p2580
VMelbourne MacDowell
p2581
sa(dp2582
Vlink
p2583
Vhttp://www.imdb.com/name/nm0883923/?ref_=tt_cl_t5
p2584
sVimage
p2585
g3
sVcharacter
p2586
VFaith Lawson
p2587
sVname
p2588
VVola Vale
p2589
sa(dp2590
Vlink
p2591
Vhttp://www.imdb.com/name/nm0475706/?ref_=tt_cl_t6
p2592
sVimage
p2593
g3
sVcharacter
p2594
VPasquale Trilles       (as Thomas Kurihara)
p2595
sVname
p2596
VKisabur Kurihara
p2597
sasVlength
p2598
V50
p2599
sVrating_count
p2600
g3
sVstoryline
p2601
VSmoky Gap Railroad president Murray Lemantier is fed up with a bandit gang led by Buck Andrade constantly holding up his train and getting away with it. He hires ace detective David Cassidy to track down and get Buck, dead or alive. However, when Buck goes to see his dying mother she makes him promise to reform, and he does. Cassidy, though, doesn't care about that and tries to arrest him. Buck decides to do something that will once and for all show everyone that he has indeed reformed--especially Faith Lawson, a pretty station agent he's in love with.
p2602
sVstars
p2603
(lp2604
VWilliam S. Hart
p2605
aVC. Norman Hammond
p2606
aVWilliam Elmer
p2607
asVyear
p2608
V1918
p2609
sVgenre
p2610
(lp2611
VWestern
p2612
asVtrailer
p2613
(lp2614
sVmetadata
p2615
(dp2616
Vasp_retio
p2617
V1.33 : 1
p2618
sVsound_mix
p2619
(lp2620
VSilent
p2621
asVgross
p2622
g3
sVcountries
p2623
(lp2624
VUSA
p2625
asVbudget
p2626
g3
sVlanguages
p2627
(lp2628
sVfilming_locations
p2629
(lp2630
sValso_known_as
p2631
(lp2632
VFribytteren fra New Mexico
p2633
assa(dp2634
Vrating
p2635
V5.9
p2636
sVdescription
p2637
VA series of stories reflecting the changing position of women in the world, including the familiar tales of Adam and Eve, Messalina and Claudius, Abelard and Heloise, Cyrene and the ...\u000a                    See full summary
p2638
sVtitle
p2639
VWoman
p2640
sVurl
p2641
(dp2642
Vurl
p2643
Vhttp://www.imdb.com/title/tt9827
p2644
ssVposter
p2645
(dp2646
Vlarge
p2647
Vhttps://images-na.ssl-images-amazon.com/images/M/MV5BMzcyNTE0Njk4Nl5BMl5BanBnXkFtZTgwNjgzNjI1NDE@._V1_.jpg
p2648
sVthumb
p2649
Vhttps://images-na.ssl-images-amazon.com/images/M/MV5BMzcyNTE0Njk4Nl5BMl5BanBnXkFtZTgwNjgzNjI1NDE@._V1_UX182_CR0,0,182,268_AL_.jpg
p2650
ssVrelease_date
p2651
V1918-10-27
p2652
sVcontent_rating
p2653
g3
sVoriginal_title
p2654
g3
sVwriters
p2655
(lp2656
VCharles E. Whittaker
p2657
asVimdb_id
p2658
Vtt0009827
p2659
sVdirector
p2660
VMaurice Tourneur
p2661
sVcast
p2662
(lp2663
(dp2664
Vlink
p2665
Vhttp://www.imdb.com/name/nm0177330/?ref_=tt_cl_t1
p2666
sVimage
p2667
g3
sVcharacter
p2668
VThe Man
p2669
sVname
p2670
VWarren Cook
p2671
sa(dp2672
Vlink
p2673
Vhttp://www.imdb.com/name/nm0082470/?ref_=tt_cl_t2
p2674
sVimage
p2675
g3
sVcharacter
p2676
VThe Woman
p2677
sVname
p2678
VFlorence Billings
p2679
sa(dp2680
Vlink
p2681
Vhttp://www.imdb.com/name/nm0356707/?ref_=tt_cl_t3
p2682
sVimage
p2683
g3
sVcharacter
p2684
VEve
p2685
sVname
p2686
VEthel Hallor
p2687
sa(dp2688
Vlink
p2689
Vhttp://www.imdb.com/name/nm0922096/?ref_=tt_cl_t4
p2690
sVimage
p2691
g3
sVcharacter
p2692
VAdam
p2693
sVname
p2694
VHenry West
p2695
sa(dp2696
Vlink
p2697
Vhttp://www.imdb.com/name/nm0720754/?ref_=tt_cl_t5
p2698
sVimage
p2699
g3
sVcharacter
p2700
VMessalina
p2701
sVname
p2702
VFlora Revalles
p2703
sa(dp2704
Vlink
p2705
Vhttp://www.imdb.com/name/nm0166399/?ref_=tt_cl_t6
p2706
sVimage
p2707
g3
sVcharacter
p2708
VClaudius
p2709
sVname
p2710
VPaul Clerget
p2711
sa(dp2712
Vlink
p2713
Vhttp://www.imdb.com/name/nm0020447/?ref_=tt_cl_t7
p2714
sVimage
p2715
g3
sVcharacter
p2716
VHeloise
p2717
sVname
p2718
VDiana Allen
p2719
sa(dp2720
Vlink
p2721
Vhttp://www.imdb.com/name/nm0272959/?ref_=tt_cl_t8
p2722
sVimage
p2723
Vhttps://images-na.ssl-images-amazon.com/images/M/MV5BODVjZmVhZmQtNGNmZC00MGVkLTliYmUtMjA2YjRlZWViMjEyXkEyXkFqcGdeQXVyMzI5NDcxNzI@._V1_UY44_CR0,0,32,44_AL_.jpg
p2724
sVcharacter
p2725
VAbelard
p2726
sVname
p2727
VE.L. Fernandez
p2728
sa(dp2729
Vlink
p2730
Vhttp://www.imdb.com/name/nm0329463/?ref_=tt_cl_t9
p2731
sVimage
p2732
g3
sVcharacter
p2733
VCyrene
p2734
sVname
p2735
VGloria Goodwin
p2736
sa(dp2737
Vlink
p2738
Vhttp://www.imdb.com/name/nm0055865/?ref_=tt_cl_t10
p2739
sVimage
p2740
Vhttps://images-na.ssl-images-amazon.com/images/M/MV5BYTdiY2VkM2MtMGMwMC00MmNlLTlkYTItM2U5ZjYyOTM4Nzk0XkEyXkFqcGdeQXVyMzI5NDcxNzI@._UY317_CR16,0,214,317_AL_.jpg
p2741
sVcharacter
p2742
VThe Fisherman
p2743
sVname
p2744
VChester Barnett
p2745
sa(dp2746
Vlink
p2747
Vhttp://www.imdb.com/name/nm0083061/?ref_=tt_cl_t11
p2748
sVimage
p2749
Vhttps://images-na.ssl-images-amazon.com/images/M/MV5BOWVhNTY1OGItN2JjNS00Y2Y4LTg3NDAtZjdjNzdiOGRiMjhkXkEyXkFqcGdeQXVyMzI5NDcxNzI@._V1_UY44_CR1,0,32,44_AL_.jpg
p2750
sVcharacter
p2751
VCivil War Girl
p2752
sVname
p2753
VFaire Binney
p2754
sa(dp2755
Vlink
p2756
Vhttp://www.imdb.com/name/nm0725173/?ref_=tt_cl_t12
p2757
sVimage
p2758
Vhttps://images-na.ssl-images-amazon.com/images/M/MV5BOTRjNjkzNGUtOGQzZi00MjY2LWJmZGEtYzM3MGU0Mjk4YTE1L2ltYWdlXkEyXkFqcGdeQXVyMzI5NDcxNzI@._V1_UY44_CR0,0,32,44_AL_.jpg
p2759
sVcharacter
p2760
VCivil War Officer
p2761
sVname
p2762
VWarner Richmond
p2763
sa(dp2764
Vlink
p2765
Vhttp://www.imdb.com/name/nm0232429/?ref_=tt_cl_t13
p2766
sVimage
p2767
g3
sVcharacter
p2768
g3
sVname
p2769
VLyn Donelson
p2770
sa(dp2771
Vlink
p2772
Vhttp://www.imdb.com/name/nm0738095/?ref_=tt_cl_t14
p2773
sVimage
p2774
g3
sVcharacter
p2775
g3
sVname
p2776
VRose Rolanda
p2777
sa(dp2778
Vlink
p2779
Vhttp://www.imdb.com/name/nm0480156/?ref_=tt_cl_t15
p2780
sVimage
p2781
Vhttps://images-na.ssl-images-amazon.com/images/M/MV5BY2Q2NjMyZDEtMGRjMy00MDAwLTk4OTQtZGUzZmMzNWI2ZWVjXkEyXkFqcGdeQXVyMDMxMjQwMw@@._V1_UY44_CR1,0,32,44_AL_.jpg
p2782
sVcharacter
p2783
g3
sVname
p2784
VFrank Lackteen
p2785
sasVlength
p2786
V70
p2787
sVrating_count
p2788
V8
p2789
sVstoryline
p2790
VA series of stories reflecting the changing position of women in the world, including the familiar tales of Adam and Eve, Messalina and Claudius, Abelard and Heloise, Cyrene and the Fisherman, as well as that of a young girl and an officer in the American Civil War.
p2791
sVstars
p2792
(lp2793
VWarren Cook
p2794
aVFlorence Billings
p2795
aVEthel Hallor
p2796
asVyear
p2797
V1918
p2798
sVgenre
p2799
(lp2800
VDrama
p2801
aVWar
p2802
asVtrailer
p2803
(lp2804
sVmetadata
p2805
(dp2806
Vasp_retio
p2807
V1.33 : 1
p2808
sVsound_mix
p2809
(lp2810
VSilent
p2811
asVgross
p2812
g3
sVcountries
p2813
(lp2814
VUSA
p2815
asVbudget
p2816
g3
sVlanguages
p2817
(lp2818
VEnglish
p2819
asVfilming_locations
p2820
(lp2821
VBar Harbor
p2822
aVMaine
p2823
aVUSA
p2824
asValso_known_as
p2825
(lp2826
VL'&#233;ternelle tentatrice
p2827
assa(dp2828
Vrating
p2829
g3
sVdescription
p2830
g3
sVtitle
p2831
VThe Woman Between Friends
p2832
sVurl
p2833
(dp2834
Vurl
p2835
Vhttp://www.imdb.com/title/tt9828
p2836
ssVposter
p2837
(dp2838
Vlarge
p2839
Vhttp://ia.media-imdb.com/images/G/01/imdb/images/logos/imdb_fb_logo-1730868325._CB514892123_.png_V1_.jpg
p2840
sVthumb
p2841
g3
ssVrelease_date
p2842
V1918-02-11
p2843
sVcontent_rating
p2844
g3
sVoriginal_title
p2845
g3
sVwriters
p2846
(lp2847
VRobert W. Chambers
p2848
aVTom Terriss
p2849
asVimdb_id
p2850
Vtt0009828
p2851
sVdirector
p2852
VTom Terriss
p2853
sVcast
p2854
(lp2855
(dp2856
Vlink
p2857
Vhttp://www.imdb.com/name/nm0431484/?ref_=tt_cl_t1
p2858
sVimage
p2859
Vhttps://images-na.ssl-images-amazon.com/images/M/MV5BMjAzNDM5NTQzM15BMl5BanBnXkFtZTgwNzM4MjA4MTE@._V1_UY44_CR1,0,32,44_AL_.jpg
p2860
sVcharacter
p2861
VCecelie White
p2862
sVname
p2863
VAlice Joyce
p2864
sa(dp2865
Vlink
p2866
Vhttp://www.imdb.com/name/nm0531584/?ref_=tt_cl_t2
p2867
sVimage
p2868
Vhttps://images-na.ssl-images-amazon.com/images/M/MV5BMjExNTgzOTY3N15BMl5BanBnXkFtZTgwNzE0OTg0MzE@._V1._CR114,139,528,707_UY44_CR0,0,32,44_AL_.jpg
p2869
sVcharacter
p2870
VJohn Drene
p2871
sVname
p2872
VMarc McDermott
p2873
sa(dp2874
Vlink
p2875
Vhttp://www.imdb.com/name/nm0908154/?ref_=tt_cl_t3
p2876
sVimage
p2877
Vhttps://images-na.ssl-images-amazon.com/images/M/MV5BMjRkZmUzM2MtNjAzZS00MmRjLTkyNGYtYzlkY2E5MzRmNDM0XkEyXkFqcGdeQXVyMzI5NDcxNzI@._V1_UY44_CR4,0,32,44_AL_.jpg
p2878
sVcharacter
p2879
VJack Graylock
p2880
sVname
p2881
VRobert Walker
p2882
sa(dp2883
Vlink
p2884
g3
sVimage
p2885
g3
sVcharacter
p2886
g3
sVname
p2887
g3
sa(dp2888
Vlink
p2889
Vhttp://www.imdb.com/name/nm0561126/?ref_=tt_cl_t4
p2890
sVimage
p2891
Vhttps://images-na.ssl-images-amazon.com/images/M/MV5BNjJmZTJjNmQtMGUxZS00ZWM4LTk2MWMtNDhkMTdlOTI0NWQ0XkEyXkFqcGdeQXVyMDUyOTUyNQ@@._V1_UY44_CR11,0,32,44_AL_.jpg
p2892
sVcharacter
p2893
g3
sVname
p2894
VMary Maurice
p2895
sa(dp2896
Vlink
p2897
Vhttp://www.imdb.com/name/nm0796900/?ref_=tt_cl_t5
p2898
sVimage
p2899
g3
sVcharacter
p2900
g3
sVname
p2901
VBernard Siegel
p2902
sasVlength
p2903
g3
sVrating_count
p2904
g3
sVstoryline
p2905
g3
sVstars
p2906
(lp2907
VAlice Joyce
p2908
aVMarc McDermott
p2909
aVRobert Walker
p2910
asVyear
p2911
V1918
p2912
sVgenre
p2913
(lp2914
VDrama
p2915
asVtrailer
p2916
(lp2917
sVmetadata
p2918
(dp2919
Vasp_retio
p2920
V1.33 : 1
p2921
sVsound_mix
p2922
(lp2923
VSilent
p2924
asVgross
p2925
g3
sVcountries
p2926
(lp2927
VUSA
p2928
asVbudget
p2929
g3
sVlanguages
p2930
(lp2931
sVfilming_locations
p2932
(lp2933
sValso_known_as
p2934
(lp2935
ssa(dp2936
Vrating
p2937
V5.3
p2938
sVdescription
p2939
g3
sVtitle
p2940
VThe Woman Suffers
p2941
sVurl
p2942
(dp2943
Vurl
p2944
Vhttp://www.imdb.com/title/tt9829
p2945
ssVposter
p2946
(dp2947
Vlarge
p2948
Vhttps://images-na.ssl-images-amazon.com/images/M/MV5BNjlkMDljNjEtNGUwMC00YzA3LWE0MmMtYjRmYTY5ZjgyODc5XkEyXkFqcGdeQXVyMTgwMzg4NzY@._V1_.jpg
p2949
sVthumb
p2950
Vhttps://images-na.ssl-images-amazon.com/images/M/MV5BNjlkMDljNjEtNGUwMC00YzA3LWE0MmMtYjRmYTY5ZjgyODc5XkEyXkFqcGdeQXVyMTgwMzg4NzY@._V1_UX182_CR0,0,182,268_AL_.jpg
p2951
ssVrelease_date
p2952
V1918-03-23
p2953
sVcontent_rating
p2954
g3
sVoriginal_title
p2955
g3
sVwriters
p2956
(lp2957
VRaymond Longford
p2958
asVimdb_id
p2959
Vtt0009829
p2960
sVdirector
p2961
VRaymond Longford
p2962
sVcast
p2963
(lp2964
(dp2965
Vlink
p2966
Vhttp://www.imdb.com/name/nm0528022/?ref_=tt_cl_t1
p2967
sVimage
p2968
g3
sVcharacter
p2969
VMarjory Manton
p2970
sVname
p2971
VLottie Lyell
p2972
sa(dp2973
Vlink
p2974
Vhttp://www.imdb.com/name/nm0410352/?ref_=tt_cl_t2
p2975
sVimage
p2976
g3
sVcharacter
p2977
VPhillip Masters
p2978
sVname
p2979
VBoyd Irwin
p2980
sa(dp2981
Vlink
p2982
Vhttp://www.imdb.com/name/nm0176771/?ref_=tt_cl_t3
p2983
sVimage
p2984
g3
sVcharacter
p2985
VRalph Manton
p2986
sVname
p2987
VRoland Conway
p2988
sa(dp2989
Vlink
p2990
Vhttp://www.imdb.com/name/nm0554412/?ref_=tt_cl_t4
p2991
sVimage
p2992
g3
sVcharacter
p2993
VMarion Masters
p2994
sVname
p2995
VConnie Martyn
p2996
sa(dp2997
Vlink
p2998
Vhttp://www.imdb.com/name/nm0062795/?ref_=tt_cl_t5
p2999
sVimage
p3000
g3
sVcharacter
p3001
VLittle Phillip
p3002
sVname
p3003
VPaul Baxter
p3004
sa(dp3005
Vlink
p3006
Vhttp://www.imdb.com/name/nm0822161/?ref_=tt_cl_t6
p3007
sVimage
p3008
g3
sVcharacter
p3009
VJohn Stockdale
p3010
sVname
p3011
VC.R. Stanford
p3012
sa(dp3013
Vlink
p3014
Vhttp://www.imdb.com/name/nm0340337/?ref_=tt_cl_t7
p3015
sVimage
p3016
g3
sVcharacter
p3017
VMrs. Stockdale
p3018
sVname
p3019
VIda Gresham
p3020
sa(dp3021
Vlink
p3022
Vhttp://www.imdb.com/name/nm0085272/?ref_=tt_cl_t8
p3023
sVimage
p3024
g3
sVcharacter
p3025
VJoan Stockdale
p3026
sVname
p3027
VEvelyn Black
p3028
sa(dp3029
Vlink
p3030
Vhttp://www.imdb.com/name/nm0290105/?ref_=tt_cl_t9
p3031
sVimage
p3032
g3
sVcharacter
p3033
VStephen Manton
p3034
sVname
p3035
VCharles Francis
p3036
sa(dp3037
Vlink
p3038
Vhttp://www.imdb.com/name/nm0241850/?ref_=tt_cl_t10
p3039
sVimage
p3040
g3
sVcharacter
p3041
VDoctor
p3042
sVname
p3043
VLaurence Dunbar
p3044
sa(dp3045
Vlink
p3046
Vhttp://www.imdb.com/name/nm0940891/?ref_=tt_cl_t11
p3047
sVimage
p3048
g3
sVcharacter
p3049
VBoundary rider
p3050
sVname
p3051
VTom Woodville
p3052
sa(dp3053
Vlink
p3054
Vhttp://www.imdb.com/name/nm0551435/?ref_=tt_cl_t12
p3055
sVimage
p3056
g3
sVcharacter
p3057
VOverseer
p3058
sVname
p3059
VJoe Martar
p3060
sa(dp3061
Vlink
p3062
Vhttp://www.imdb.com/name/nm0064600/?ref_=tt_cl_t13
p3063
sVimage
p3064
Vhttps://images-na.ssl-images-amazon.com/images/M/MV5BZjgxOGIyOWEtYmJjYy00NzA1LWExYWUtZWYwZjNhYTdmY2QwXkEyXkFqcGdeQXVyMjUxODE0MDY@._UY317_CR16,0,214,317_AL_.jpg
p3065
sVcharacter
p3066
VSwagman
p3067
sVname
p3068
VHarry Beaumont
p3069
sa(dp3070
Vlink
p3071
Vhttp://www.imdb.com/name/nm0909663/?ref_=tt_cl_t14
p3072
sVimage
p3073
g3
sVcharacter
p3074
VClergyman
p3075
sVname
p3076
VHerbert Walsh
p3077
sa(dp3078
Vlink
p3079
Vhttp://www.imdb.com/name/nm0608044/?ref_=tt_cl_t15
p3080
sVimage
p3081
g3
sVcharacter
p3082
VChild
p3083
sVname
p3084
VMarjorie Morton
p3085
sasVlength
p3086
V77
p3087
sVrating_count
p3088
V11
p3089
sVstoryline
p3090
g3
sVstars
p3091
(lp3092
VLottie Lyell
p3093
aVBoyd Irwin
p3094
aVRoland Conway
p3095
asVyear
p3096
V1918
p3097
sVgenre
p3098
(lp3099
VDrama
p3100
asVtrailer
p3101
(lp3102
sVmetadata
p3103
(dp3104
Vasp_retio
p3105
V1.33 : 1
p3106
sVsound_mix
p3107
(lp3108
VSilent
p3109
asVgross
p3110
g3
sVcountries
p3111
(lp3112
VAustralia
p3113
asVbudget
p3114
g3
sVlanguages
p3115
(lp3116
VEnglish
p3117
asVfilming_locations
p3118
(lp3119
VAdelaide Railway Station
p3120
aVAdelaide
p3121
aVSouth Australia
p3122
aVAustralia
p3123
asValso_known_as
p3124
(lp3125
ssa(dp3126
Vrating
p3127
g3
sVdescription
p3128
g3
sVtitle
p3129
g3
sVurl
p3130
(dp3131
Vurl
p3132
Vhttp://www.imdb.com/title/tt9830
p3133
ssVposter
p3134
(dp3135
Vlarge
p3136
V_V1_.jpg
p3137
sVthumb
p3138
g3
ssVrelease_date
p3139
g3
sVcontent_rating
p3140
g3
sVoriginal_title
p3141
g3
sVwriters
p3142
(lp3143
sVimdb_id
p3144
g3
sVdirector
p3145
g3
sVcast
p3146
(lp3147
sVlength
p3148
g3
sVrating_count
p3149
g3
sVstoryline
p3150
g3
sVstars
p3151
(lp3152
sVyear
p3153
g3
sVgenre
p3154
(lp3155
sVtrailer
p3156
(lp3157
sVmetadata
p3158
(dp3159
Vasp_retio
p3160
g3
sVsound_mix
p3161
(lp3162
sVgross
p3163
g3
sVcountries
p3164
(lp3165
sVbudget
p3166
g3
sVlanguages
p3167
(lp3168
sVfilming_locations
p3169
(lp3170
sValso_known_as
p3171
(lp3172
ssa(dp3173
Vrating
p3174
g3
sVdescription
p3175
VAfter a harsh childhood, orphan Jane Eyre is hired by Edward Rochester, the brooding lord of a mysterious manor house, to care for his young daughter.
p3176
sVtitle
p3177
VWoman and Wife
p3178
sVurl
p3179
(dp3180
Vurl
p3181
Vhttp://www.imdb.com/title/tt9831
p3182
ssVposter
p3183
(dp3184
Vlarge
p3185
Vhttps://images-na.ssl-images-amazon.com/images/M/MV5BOGNmZDU4OGQtMDhiOC00NzE3LTkzYWEtOTIxOTQ0YmNhOGQ5XkEyXkFqcGdeQXVyMjUxODE0MDY@._V1_.jpg
p3186
sVthumb
p3187
Vhttps://images-na.ssl-images-amazon.com/images/M/MV5BOGNmZDU4OGQtMDhiOC00NzE3LTkzYWEtOTIxOTQ0YmNhOGQ5XkEyXkFqcGdeQXVyMjUxODE0MDY@._V1_UY268_CR2,0,182,268_AL_.jpg
p3188
ssVrelease_date
p3189
V1918-01
p3190
sVcontent_rating
p3191
g3
sVoriginal_title
p3192
g3
sVwriters
p3193
(lp3194
VCharlotte Bront
p3195
aVPaul West
p3196
asVimdb_id
p3197
Vtt0009831
p3198
sVdirector
p3199
VEdward Jos
p3200
sVcast
p3201
(lp3202
(dp3203
Vlink
p3204
Vhttp://www.imdb.com/name/nm0103567/?ref_=tt_cl_t1
p3205
sVimage
p3206
Vhttps://images-na.ssl-images-amazon.com/images/M/MV5BMTY1MDQxMDI3OV5BMl5BanBnXkFtZTgwMjgzNzY3MTE@._V1._CR1.883331298828125,5.5333404541015625,291,374_UY44_CR1,0,32,44_AL_.jpg
p3207
sVcharacter
p3208
VJane Eyre
p3209
sVname
p3210
VAlice Brady
p3211
sa(dp3212
Vlink
p3213
Vhttp://www.imdb.com/name/nm0223296/?ref_=tt_cl_t2
p3214
sVimage
p3215
Vhttps://images-na.ssl-images-amazon.com/images/M/MV5BM2ZiNjQ4OGQtNWJmMi00MDI3LWE1NDYtN2Q1MjA4OWIxNThjXkEyXkFqcGdeQXVyMzI5NDcxNzI@._V1_UY44_CR0,0,32,44_AL_.jpg
p3216
sVcharacter
p3217
VEdward Rochester
p3218
sVname
p3219
VElliott Dexter
p3220
sa(dp3221
Vlink
p3222
Vhttp://www.imdb.com/name/nm0338773/?ref_=tt_cl_t3
p3223
sVimage
p3224
Vhttps://images-na.ssl-images-amazon.com/images/M/MV5BZWVlMTRhNmQtODBhOC00NGZiLTg3OTEtOTgyZDc0Mjk0ODNmXkEyXkFqcGdeQXVyMDUyOTUyNQ@@._V1_UY44_CR13,0,32,44_AL_.jpg
p3225
sVcharacter
p3226
VTherese       (as Helene Greene)
p3227
sVname
p3228
VHelen Greene
p3229
sa(dp3230
Vlink
p3231
Vhttp://www.imdb.com/name/nm0512164/?ref_=tt_cl_t4
p3232
sVimage
p3233
Vhttps://images-na.ssl-images-amazon.com/images/M/MV5BNDkxZjZkMTEtMzQ5My00Njg0LTk1OWEtNTgyYTU4NGEzNGUwXkEyXkFqcGdeQXVyMDUyOTUyNQ@@._V1_UY44_CR11,0,32,44_AL_.jpg
p3234
sVcharacter
p3235
VGrace Poole
p3236
sVname
p3237
VHelen Lindroth
p3238
sa(dp3239
Vlink
p3240
Vhttp://www.imdb.com/name/nm0072269/?ref_=tt_cl_t5
p3241
sVimage
p3242
g3
sVcharacter
p3243
VRaoul Daquin
p3244
sVname
p3245
VVictor Benoit
p3246
sa(dp3247
Vlink
p3248
Vhttp://www.imdb.com/name/nm0604834/?ref_=tt_cl_t6
p3249
sVimage
p3250
g3
sVcharacter
p3251
VValerie Rochester
p3252
sVname
p3253
VLeonora Morgan
p3254
sa(dp3255
Vlink
p3256
Vhttp://www.imdb.com/name/nm0263004/?ref_=tt_cl_t7
p3257
sVimage
p3258
Vhttps://images-na.ssl-images-amazon.com/images/M/MV5BMjA2Mzk2MzE1NV5BMl5BanBnXkFtZTYwMjAzNjU2._V1_UY44_CR0,0,32,44_AL_.jpg
p3259
sVcharacter
p3260
g3
sVname
p3261
VMadge Evans
p3262
sa(dp3263
Vlink
p3264
g3
sVimage
p3265
g3
sVcharacter
p3266
g3
sVname
p3267
g3
sa(dp3268
Vlink
p3269
Vhttp://www.imdb.com/name/nm0601436/?ref_=tt_cl_t8
p3270
sVimage
p3271
g3
sVcharacter
p3272
VAdele
p3273
sVname
p3274
VJuliette Moore
p3275
sasVlength
p3276
V50
p3277
sVrating_count
p3278
g3
sVstoryline
p3279
VAfter a harsh childhood, orphan Jane Eyre is hired by Edward Rochester, the brooding lord of a mysterious manor house, to care for his young daughter.
p3280
sVstars
p3281
(lp3282
VAlice Brady
p3283
aVElliott Dexter
p3284
aVHelen Greene
p3285
asVyear
p3286
V1918
p3287
sVgenre
p3288
(lp3289
VDrama
p3290
aVRomance
p3291
asVtrailer
p3292
(lp3293
sVmetadata
p3294
(dp3295
Vasp_retio
p3296
V1.33 : 1
p3297
sVsound_mix
p3298
(lp3299
VSilent
p3300
asVgross
p3301
g3
sVcountries
p3302
(lp3303
VUSA
p3304
asVbudget
p3305
g3
sVlanguages
p3306
(lp3307
sVfilming_locations
p3308
(lp3309
sValso_known_as
p3310
(lp3311
VThe Lifted Cross
p3312
assa(dp3313
Vrating
p3314
g3
sVdescription
p3315
g3
sVtitle
p3316
g3
sVurl
p3317
(dp3318
Vurl
p3319
Vhttp://www.imdb.com/title/tt9832
p3320
ssVposter
p3321
(dp3322
Vlarge
p3323
V_V1_.jpg
p3324
sVthumb
p3325
g3
ssVrelease_date
p3326
g3
sVcontent_rating
p3327
g3
sVoriginal_title
p3328
g3
sVwriters
p3329
(lp3330
sVimdb_id
p3331
g3
sVdirector
p3332
g3
sVcast
p3333
(lp3334
sVlength
p3335
g3
sVrating_count
p3336
g3
sVstoryline
p3337
g3
sVstars
p3338
(lp3339
sVyear
p3340
g3
sVgenre
p3341
(lp3342
sVtrailer
p3343
(lp3344
sVmetadata
p3345
(dp3346
Vasp_retio
p3347
g3
sVsound_mix
p3348
(lp3349
sVgross
p3350
g3
sVcountries
p3351
(lp3352
sVbudget
p3353
g3
sVlanguages
p3354
(lp3355
sVfilming_locations
p3356
(lp3357
sValso_known_as
p3358
(lp3359
ssa(dp3360
Vrating
p3361
g3
sVdescription
p3362
g3
sVtitle
p3363
VThe Woman in the Web
p3364
sVurl
p3365
(dp3366
Vurl
p3367
Vhttp://www.imdb.com/title/tt9833
p3368
ssVposter
p3369
(dp3370
Vlarge
p3371
Vhttps://images-na.ssl-images-amazon.com/images/M/MV5BYmQzZTc4NDktZTBhNi00NDEzLWI4MjMtN2ZmMjc4ZTMyMmUzXkEyXkFqcGdeQXVyMDMxMjQwMw@@._V1_.jpg
p3372
sVthumb
p3373
Vhttps://images-na.ssl-images-amazon.com/images/M/MV5BYmQzZTc4NDktZTBhNi00NDEzLWI4MjMtN2ZmMjc4ZTMyMmUzXkEyXkFqcGdeQXVyMDMxMjQwMw@@._V1_UY268_CR109,0,182,268_AL_.jpg
p3374
ssVrelease_date
p3375
V1918-04-08
p3376
sVcontent_rating
p3377
g3
sVoriginal_title
p3378
g3
sVwriters
p3379
(lp3380
VAlbert E. Smith
p3381
aVCyrus Townsend Brady
p3382
asVimdb_id
p3383
Vtt0009833
p3384
sVdirector
p3385
VPaul Hurst David Smith
p3386
sVcast
p3387
(lp3388
(dp3389
Vlink
p3390
Vhttp://www.imdb.com/name/nm0636763/?ref_=tt_cl_t1
p3391
sVimage
p3392
g3
sVcharacter
p3393
VPrincess Olga Muratoft
p3394
sVname
p3395
VHedda Nova
p3396
sa(dp3397
Vlink
p3398
Vhttp://www.imdb.com/name/nm0322551/?ref_=tt_cl_t2
p3399
sVimage
p3400
Vhttps://images-na.ssl-images-amazon.com/images/M/MV5BZDQ3MzM2N2YtODVkOS00NDNmLWI3ODktOThkMGJiNDBlNzQyXkEyXkFqcGdeQXVyMzI5NDcxNzI@._UY317_CR16,0,214,317_AL_.jpg
p3401
sVcharacter
p3402
VJack Lawford
p3403
sVname
p3404
VJ. Frank Glendon
p3405
sa(dp3406
Vlink
p3407
Vhttp://www.imdb.com/name/nm0102908/?ref_=tt_cl_t3
p3408
sVimage
p3409
g3
sVcharacter
p3410
VBaron Kovsky       (as Robert Bradbury)
p3411
sVname
p3412
VRobert N. Bradbury
p3413
sa(dp3414
Vlink
p3415
Vhttp://www.imdb.com/name/nm0496470/?ref_=tt_cl_t4
p3416
sVimage
p3417
Vhttps://images-na.ssl-images-amazon.com/images/M/MV5BODFjOGM1N2MtODg1MS00ODIzLWEyYjQtOGRjOWJlMGFkNGUzL2ltYWdlL2ltYWdlXkEyXkFqcGdeQXVyMzI5NDcxNzI@._V1_UY44_CR1,0,32,44_AL_.jpg
p3418
sVcharacter
p3419
VCol. Bormsk
p3420
sVname
p3421
VOtto Lederer
p3422
sa(dp3423
Vlink
p3424
Vhttp://www.imdb.com/name/nm0752465/?ref_=tt_cl_t5
p3425
sVimage
p3426
g3
sVcharacter
p3427
VIvan - the Cossack
p3428
sVname
p3429
VChet Ryan
p3430
sa(dp3431
Vlink
p3432
Vhttp://www.imdb.com/name/nm0316995/?ref_=tt_cl_t6
p3433
sVimage
p3434
Vhttps://images-na.ssl-images-amazon.com/images/M/MV5BNTg3NTUzNTcwM15BMl5BanBnXkFtZTYwMTg1ODU2._V1_UY44_CR1,0,32,44_AL_.jpg
p3435
sVcharacter
p3436
VVassily - Ivan's Brother
p3437
sVname
p3438
VHoot Gibson
p3439
sa(dp3440
Vlink
p3441
Vhttp://www.imdb.com/name/nm0317098/?ref_=tt_cl_t7
p3442
sVimage
p3443
Vhttps://images-na.ssl-images-amazon.com/images/M/MV5BYWE5MGE3ZmMtMzAyMS00ZjNkLTk5ZTctMzFmNTgyMmM1YmFiXkEyXkFqcGdeQXVyMzI5NDcxNzI@._UY317_CR16,0,214,317_AL_.jpg
p3444
sVcharacter
p3445
VCountess Irsky
p3446
sVname
p3447
VPatricia Palmer
p3448
sa(dp3449
Vlink
p3450
Vhttp://www.imdb.com/name/nm0476659/?ref_=tt_cl_t8
p3451
sVimage
p3452
g3
sVcharacter
p3453
g3
sVname
p3454
VGeorge Kuwa
p3455
sasVlength
p3456
g3
sVrating_count
p3457
g3
sVstoryline
p3458
g3
sVstars
p3459
(lp3460
VHedda Nova
p3461
aVJ. Frank Glendon
p3462
aVRobert N. Bradbury
p3463
asVyear
p3464
V1918
p3465
sVgenre
p3466
(lp3467
VAction
p3468
aVAdventure
p3469
aVDrama
p3470
asVtrailer
p3471
(lp3472
sVmetadata
p3473
(dp3474
Vasp_retio
p3475
V1.33 : 1
p3476
sVsound_mix
p3477
(lp3478
VSilent
p3479
asVgross
p3480
g3
sVcountries
p3481
(lp3482
VUSA
p3483
asVbudget
p3484
g3
sVlanguages
p3485
(lp3486
VEnglish
p3487
asVfilming_locations
p3488
(lp3489
sValso_known_as
p3490
(lp3491
VEm Palpos de Aranha
p3492
assa(dp3493
Vrating
p3494
g3
sVdescription
p3495
g3
sVtitle
p3496
g3
sVurl
p3497
(dp3498
Vurl
p3499
Vhttp://www.imdb.com/title/tt9834
p3500
ssVposter
p3501
(dp3502
Vlarge
p3503
V_V1_.jpg
p3504
sVthumb
p3505
g3
ssVrelease_date
p3506
g3
sVcontent_rating
p3507
g3
sVoriginal_title
p3508
g3
sVwriters
p3509
(lp3510
sVimdb_id
p3511
g3
sVdirector
p3512
g3
sVcast
p3513
(lp3514
sVlength
p3515
g3
sVrating_count
p3516
g3
sVstoryline
p3517
g3
sVstars
p3518
(lp3519
sVyear
p3520
g3
sVgenre
p3521
(lp3522
sVtrailer
p3523
(lp3524
sVmetadata
p3525
(dp3526
Vasp_retio
p3527
g3
sVsound_mix
p3528
(lp3529
sVgross
p3530
g3
sVcountries
p3531
(lp3532
sVbudget
p3533
g3
sVlanguages
p3534
(lp3535
sVfilming_locations
p3536
(lp3537
sValso_known_as
p3538
(lp3539
ssa(dp3540
Vrating
p3541
g3
sVdescription
p3542
VThe true story of Edith Cavell, a British nurse who served with the underground in Belgium during the First World War.
p3543
sVtitle
p3544
VThe Woman the Germans Shot
p3545
sVurl
p3546
(dp3547
Vurl
p3548
Vhttp://www.imdb.com/title/tt9835
p3549
ssVposter
p3550
(dp3551
Vlarge
p3552
Vhttp://ia.media-imdb.com/images/G/01/imdb/images/logos/imdb_fb_logo-1730868325._CB514892123_.png_V1_.jpg
p3553
sVthumb
p3554
g3
ssVrelease_date
p3555
V1918-10-27
p3556
sVcontent_rating
p3557
g3
sVoriginal_title
p3558
g3
sVwriters
p3559
(lp3560
VAnthony Paul Kelly
p3561
aVAnthony Paul Kelly
p3562
asVimdb_id
p3563
Vtt0008954
p3564
sVdirector
p3565
VJohn G. Adolfi
p3566
sVcast
p3567
(lp3568
(dp3569
Vlink
p3570
Vhttp://www.imdb.com/name/nm0037789/?ref_=tt_cl_t1
p3571
sVimage
p3572
g3
sVcharacter
p3573
VNurse Edith Cavell
p3574
sVname
p3575
VJulia Arthur
p3576
sa(dp3577
Vlink
p3578
Vhttp://www.imdb.com/name/nm0354878/?ref_=tt_cl_t2
p3579
sVimage
p3580
Vhttps://images-na.ssl-images-amazon.com/images/M/MV5BZmZhMjFmY2YtMzZjZC00ZDgwLTlhNmItOTkzOWFlNTVjNDgwXkEyXkFqcGdeQXVyMzI5NDcxNzI@._UY317_CR16,0,214,317_AL_.jpg
p3581
sVcharacter
p3582
VFrank Brooks
p3583
sVname
p3584
VCreighton Hale
p3585
sa(dp3586
Vlink
p3587
Vhttp://www.imdb.com/name/nm0112281/?ref_=tt_cl_t3
p3588
sVimage
p3589
g3
sVcharacter
p3590
VGeorge Brooks
p3591
sVname
p3592
VThomas Brooks
p3593
sa(dp3594
Vlink
p3595
Vhttp://www.imdb.com/name/nm0499548/?ref_=tt_cl_t4
p3596
sVimage
p3597
Vhttps://images-na.ssl-images-amazon.com/images/M/MV5BY2U0ZjU4N2MtYmM1Ny00NWY5LWE0MzktOGZmMGU3YjhhODQzXkEyXkFqcGdeQXVyMDUyOTUyNQ@@._V1_UY44_CR2,0,32,44_AL_.jpg
p3598
sVcharacter
p3599
VGeorge Brooks, as a young man
p3600
sVname
p3601
VGeorge LeGuere
p3602
sa(dp3603
Vlink
p3604
Vhttp://www.imdb.com/name/nm0867469/?ref_=tt_cl_t5
p3605
sVimage
p3606
g3
sVcharacter
p3607
VGeneral von Blissing
p3608
sVname
p3609
VWilliam H. Tooker
p3610
sa(dp3611
Vlink
p3612
Vhttp://www.imdb.com/name/nm0426668/?ref_=tt_cl_t6
p3613
sVimage
p3614
Vhttps://images-na.ssl-images-amazon.com/images/M/MV5BZTVjZjlmNTgtMTU3Mi00M2Y5LTg1MjgtMjU1NzFlNzNmZDI2XkEyXkFqcGdeQXVyMzI5NDcxNzI@._V1_UY44_CR0,0,32,44_AL_.jpg
p3615
sVcharacter
p3616
VU.S. Minister to Belgium       (as J.W. Johnston)
p3617
sVname
p3618
VJack W. Johnston
p3619
sa(dp3620
Vlink
p3621
Vhttp://www.imdb.com/name/nm0659947/?ref_=tt_cl_t7
p3622
sVimage
p3623
Vhttps://images-na.ssl-images-amazon.com/images/M/MV5BNTQ4ZTRlYmYtY2NkYy00ZTg2LTk2OTMtMjEwMzJkZmNiZDYwL2ltYWdlL2ltYWdlXkEyXkFqcGdeQXVyMzI5NDcxNzI@._V1_UY44_CR2,0,32,44_AL_.jpg
p3624
sVcharacter
p3625
VBaron von der Lancker
p3626
sVname
p3627
VPaul Panzer
p3628
sa(dp3629
Vlink
p3630
Vhttp://www.imdb.com/name/nm0265419/?ref_=tt_cl_t8
p3631
sVimage
p3632
g3
sVcharacter
p3633
VJoan Clemons
p3634
sVname
p3635
VJoyce Fair
p3636
sa(dp3637
Vlink
p3638
Vhttp://www.imdb.com/name/nm0538081/?ref_=tt_cl_t9
p3639
sVimage
p3640
g3
sVcharacter
p3641
VSpanish Minister to Belgium
p3642
sVname
p3643
VGeorge Majeroni
p3644
sa(dp3645
Vlink
p3646
Vhttp://www.imdb.com/name/nm0018727/?ref_=tt_cl_t10
p3647
sVimage
p3648
g3
sVcharacter
p3649
VMrs. Clavell
p3650
sVname
p3651
VSara Alexander
p3652
sa(dp3653
Vlink
p3654
Vhttp://www.imdb.com/name/nm0219413/?ref_=tt_cl_t11
p3655
sVimage
p3656
g3
sVcharacter
p3657
VEdith Cavell as a young woman
p3658
sVname
p3659
VAmy Dennis
p3660
sa(dp3661
Vlink
p3662
Vhttp://www.imdb.com/name/nm0578475/?ref_=tt_cl_t12
p3663
sVimage
p3664
g3
sVcharacter
p3665
VU.S. Ambassador to Great Britain
p3666
sVname
p3667
VFred Melville
p3668
sa(dp3669
Vlink
p3670
Vhttp://www.imdb.com/name/nm0269265/?ref_=tt_cl_t13
p3671
sVimage
p3672
Vhttps://images-na.ssl-images-amazon.com/images/M/MV5BOWM2MTYxYzAtOTE5ZS00NTQyLThlMzYtZTU3MDQ3NjFiOWFiXkEyXkFqcGdeQXVyMDUyOTUyNQ@@._V1_UY44_CR13,0,32,44_AL_.jpg
p3673
sVcharacter
p3674
VSecretary to American Legation at Brussels       (as Marty Faust)
p3675
sVname
p3676
VMartin Faust
p3677
sa(dp3678
Vlink
p3679
Vhttp://www.imdb.com/name/nm0243413/?ref_=tt_cl_t14
p3680
sVimage
p3681
g3
sVcharacter
p3682
VA Belgian lawyer
p3683
sVname
p3684
VGeorge Dupree
p3685
sa(dp3686
Vlink
p3687
Vhttp://www.imdb.com/name/nm0435731/?ref_=tt_cl_t15
p3688
sVimage
p3689
g3
sVcharacter
p3690
VCaptain von Baring
p3691
sVname
p3692
VFred Kalgren
p3693
sasVlength
p3694
V60
p3695
sVrating_count
p3696
g3
sVstoryline
p3697
VThe true story of Edith Cavell, a British nurse who served with the underground in Belgium during the First World War.
p3698
sVstars
p3699
(lp3700
VJulia Arthur
p3701
aVCreighton Hale
p3702
aVThomas Brooks
p3703
asVyear
p3704
V1918
p3705
sVgenre
p3706
(lp3707
VBiography
p3708
aVDrama
p3709
aVWar
p3710
asVtrailer
p3711
(lp3712
sVmetadata
p3713
(dp3714
Vasp_retio
p3715
V1.33 : 1
p3716
sVsound_mix
p3717
(lp3718
VSilent
p3719
asVgross
p3720
g3
sVcountries
p3721
(lp3722
VUSA
p3723
asVbudget
p3724
g3
sVlanguages
p3725
(lp3726
sVfilming_locations
p3727
(lp3728
sValso_known_as
p3729
(lp3730
VThe Cavell Case
p3731
assa(dp3732
Vrating
p3733
g3
sVdescription
p3734
g3
sVtitle
p3735
g3
sVurl
p3736
(dp3737
Vurl
p3738
Vhttp://www.imdb.com/title/tt9836
p3739
ssVposter
p3740
(dp3741
Vlarge
p3742
V_V1_.jpg
p3743
sVthumb
p3744
g3
ssVrelease_date
p3745
g3
sVcontent_rating
p3746
g3
sVoriginal_title
p3747
g3
sVwriters
p3748
(lp3749
sVimdb_id
p3750
g3
sVdirector
p3751
g3
sVcast
p3752
(lp3753
sVlength
p3754
g3
sVrating_count
p3755
g3
sVstoryline
p3756
g3
sVstars
p3757
(lp3758
sVyear
p3759
g3
sVgenre
p3760
(lp3761
sVtrailer
p3762
(lp3763
sVmetadata
p3764
(dp3765
Vasp_retio
p3766
g3
sVsound_mix
p3767
(lp3768
sVgross
p3769
g3
sVcountries
p3770
(lp3771
sVbudget
p3772
g3
sVlanguages
p3773
(lp3774
sVfilming_locations
p3775
(lp3776
sValso_known_as
p3777
(lp3778
ssa(dp3779
Vrating
p3780
g3
sVdescription
p3781
g3
sVtitle
p3782
g3
sVurl
p3783
(dp3784
Vurl
p3785
Vhttp://www.imdb.com/title/tt9837
p3786
ssVposter
p3787
(dp3788
Vlarge
p3789
V_V1_.jpg
p3790
sVthumb
p3791
g3
ssVrelease_date
p3792
g3
sVcontent_rating
p3793
g3
sVoriginal_title
p3794
g3
sVwriters
p3795
(lp3796
sVimdb_id
p3797
g3
sVdirector
p3798
g3
sVcast
p3799
(lp3800
sVlength
p3801
g3
sVrating_count
p3802
g3
sVstoryline
p3803
g3
sVstars
p3804
(lp3805
sVyear
p3806
g3
sVgenre
p3807
(lp3808
sVtrailer
p3809
(lp3810
sVmetadata
p3811
(dp3812
Vasp_retio
p3813
g3
sVsound_mix
p3814
(lp3815
sVgross
p3816
g3
sVcountries
p3817
(lp3818
sVbudget
p3819
g3
sVlanguages
p3820
(lp3821
sVfilming_locations
p3822
(lp3823
sValso_known_as
p3824
(lp3825
ssa(dp3826
Vrating
p3827
g3
sVdescription
p3828
VThe children of a a novelist, Nicholas, contract scarlet fever. His wife Anne stays in the house to take care of them, but the house is quarantined by the authorities and Nicholas, not ...\u000a                    See full summary
p3829
sVtitle
p3830
VWomen's Weapons
p3831
sVurl
p3832
(dp3833
Vurl
p3834
Vhttp://www.imdb.com/title/tt9838
p3835
ssVposter
p3836
(dp3837
Vlarge
p3838
Vhttps://images-na.ssl-images-amazon.com/images/M/MV5BOWM4ZjA0NTgtODBkYi00M2QzLWE5YjEtMjljYzEyM2M4MTZiXkEyXkFqcGdeQXVyMjUxODE0MDY@._V1_.jpg
p3839
sVthumb
p3840
Vhttps://images-na.ssl-images-amazon.com/images/M/MV5BOWM4ZjA0NTgtODBkYi00M2QzLWE5YjEtMjljYzEyM2M4MTZiXkEyXkFqcGdeQXVyMjUxODE0MDY@._V1_UY268_CR77,0,182,268_AL_.jpg
p3841
ssVrelease_date
p3842
V1918-11-24
p3843
sVcontent_rating
p3844
g3
sVoriginal_title
p3845
g3
sVwriters
p3846
(lp3847
VBeulah Marie Dix
p3848
aVBeulah Marie Dix
p3849
asVimdb_id
p3850
Vtt0009838
p3851
sVdirector
p3852
VRobert G. Vignola
p3853
sVcast
p3854
(lp3855
(dp3856
Vlink
p3857
Vhttp://www.imdb.com/name/nm0165691/?ref_=tt_cl_t1
p3858
sVimage
p3859
Vhttps://images-na.ssl-images-amazon.com/images/M/MV5BMTgyOTg3NDQzNF5BMl5BanBnXkFtZTgwNzQxODY3MTE@._V1._CR29.883331298828125,29.533340454101562,300,440_UX32_CR0,0,32,44_AL_.jpg
p3860
sVcharacter
p3861
VAnne Elliot
p3862
sVname
p3863
VEthel Clayton
p3864
sa(dp3865
Vlink
p3866
Vhttp://www.imdb.com/name/nm0223296/?ref_=tt_cl_t2
p3867
sVimage
p3868
Vhttps://images-na.ssl-images-amazon.com/images/M/MV5BM2ZiNjQ4OGQtNWJmMi00MDI3LWE1NDYtN2Q1MjA4OWIxNThjXkEyXkFqcGdeQXVyMzI5NDcxNzI@._V1_UY44_CR0,0,32,44_AL_.jpg
p3869
sVcharacter
p3870
VNicholas Elliot       (as Elliot Dexter)
p3871
sVname
p3872
VElliott Dexter
p3873
sa(dp3874
Vlink
p3875
Vhttp://www.imdb.com/name/nm0233640/?ref_=tt_cl_t3
p3876
sVimage
p3877
g3
sVcharacter
p3878
VEsmee Hale
p3879
sVname
p3880
VVera Doria
p3881
sa(dp3882
Vlink
p3883
Vhttp://www.imdb.com/name/nm0624735/?ref_=tt_cl_t4
p3884
sVimage
p3885
Vhttps://images-na.ssl-images-amazon.com/images/M/MV5BN2QyMzIwYjQtMzM2Ni00YTE2LTk4N2UtODU4ODBjMDMxMmFhL2ltYWdlL2ltYWdlXkEyXkFqcGdeQXVyMzI5NDcxNzI@._UY317_CR16,0,214,317_AL_.jpg
p3886
sVcharacter
p3887
VPeter Gregory
p3888
sVname
p3889
VJames Neill
p3890
sa(dp3891
Vlink
p3892
Vhttp://www.imdb.com/name/nm0189684/?ref_=tt_cl_t5
p3893
sVimage
p3894
Vhttps://images-na.ssl-images-amazon.com/images/M/MV5BNjc2MDJjYzktN2VlYy00ZGFiLTg0YjgtZDlmZGVmYTVjNzgyXkEyXkFqcGdeQXVyMzI5NDcxNzI@._V1_UY44_CR2,0,32,44_AL_.jpg
p3895
sVcharacter
p3896
VMargaret
p3897
sVname
p3898
VJosephine Crowell
p3899
sa(dp3900
Vlink
p3901
Vhttp://www.imdb.com/name/nm0601706/?ref_=tt_cl_t6
p3902
sVimage
p3903
g3
sVcharacter
p3904
VNicholas Jr.
p3905
sVname
p3906
VPat Moore
p3907
sa(dp3908
Vlink
p3909
Vhttp://www.imdb.com/name/nm0550583/?ref_=tt_cl_t7
p3910
sVimage
p3911
Vhttps://images-na.ssl-images-amazon.com/images/M/MV5BMTc5NTQwMTQ1OV5BMl5BanBnXkFtZTgwOTAwODA1MjE@._V1_UY44_CR1,0,32,44_AL_.jpg
p3912
sVcharacter
p3913
VNicholas Jr.'s Sister       (as Dorothy Rosher)
p3914
sVname
p3915
VJoan Marsh
p3916
sasVlength
p3917
g3
sVrating_count
p3918
g3
sVstoryline
p3919
VThe children of a a novelist, Nicholas, contract scarlet fever. His wife Anne stays in the house to take care of them, but the house is quarantined by the authorities and Nicholas, not being allowed in the house, takes a room in town until the quarantine is lifted. Lonely, he begins to feel attracted to his illustrator, Esmee. They begin an affair, but soon Nicholas finds that Esmee's expensive tastes are driving him to bankruptcy. His wife finds out about the affair, and devises a plan to teach her husband a lesson and get his mistress out of the picture at the same time.
p3920
sVstars
p3921
(lp3922
VEthel Clayton
p3923
aVElliott Dexter
p3924
aVVera Doria
p3925
asVyear
p3926
V1918
p3927
sVgenre
p3928
(lp3929
VComedy
p3930
aVDrama
p3931
asVtrailer
p3932
(lp3933
sVmetadata
p3934
(dp3935
Vasp_retio
p3936
g3
sVsound_mix
p3937
(lp3938
VSilent
p3939
asVgross
p3940
g3
sVcountries
p3941
(lp3942
VUSA
p3943
asVbudget
p3944
g3
sVlanguages
p3945
(lp3946
sVfilming_locations
p3947
(lp3948
sValso_known_as
p3949
(lp3950
VWoman's Weapons
p3951
assa(dp3952
Vrating
p3953
g3
sVdescription
p3954
g3
sVtitle
p3955
g3
sVurl
p3956
(dp3957
Vurl
p3958
Vhttp://www.imdb.com/title/tt9839
p3959
ssVposter
p3960
(dp3961
Vlarge
p3962
V_V1_.jpg
p3963
sVthumb
p3964
g3
ssVrelease_date
p3965
g3
sVcontent_rating
p3966
g3
sVoriginal_title
p3967
g3
sVwriters
p3968
(lp3969
sVimdb_id
p3970
g3
sVdirector
p3971
g3
sVcast
p3972
(lp3973
sVlength
p3974
g3
sVrating_count
p3975
g3
sVstoryline
p3976
g3
sVstars
p3977
(lp3978
sVyear
p3979
g3
sVgenre
p3980
(lp3981
sVtrailer
p3982
(lp3983
sVmetadata
p3984
(dp3985
Vasp_retio
p3986
g3
sVsound_mix
p3987
(lp3988
sVgross
p3989
g3
sVcountries
p3990
(lp3991
sVbudget
p3992
g3
sVlanguages
p3993
(lp3994
sVfilming_locations
p3995
(lp3996
sValso_known_as
p3997
(lp3998
ssa(dp3999
Vrating
p4000
g3
sVdescription
p4001
g3
sVtitle
p4002
g3
sVurl
p4003
(dp4004
Vurl
p4005
Vhttp://www.imdb.com/title/tt9840
p4006
ssVposter
p4007
(dp4008
Vlarge
p4009
V_V1_.jpg
p4010
sVthumb
p4011
g3
ssVrelease_date
p4012
g3
sVcontent_rating
p4013
g3
sVoriginal_title
p4014
g3
sVwriters
p4015
(lp4016
sVimdb_id
p4017
g3
sVdirector
p4018
g3
sVcast
p4019
(lp4020
sVlength
p4021
g3
sVrating_count
p4022
g3
sVstoryline
p4023
g3
sVstars
p4024
(lp4025
sVyear
p4026
g3
sVgenre
p4027
(lp4028
sVtrailer
p4029
(lp4030
sVmetadata
p4031
(dp4032
Vasp_retio
p4033
g3
sVsound_mix
p4034
(lp4035
sVgross
p4036
g3
sVcountries
p4037
(lp4038
sVbudget
p4039
g3
sVlanguages
p4040
(lp4041
sVfilming_locations
p4042
(lp4043
sValso_known_as
p4044
(lp4045
ssa(dp4046
Vrating
p4047
g3
sVdescription
p4048
g3
sVtitle
p4049
g3
sVurl
p4050
(dp4051
Vurl
p4052
Vhttp://www.imdb.com/title/tt9841
p4053
ssVposter
p4054
(dp4055
Vlarge
p4056
V_V1_.jpg
p4057
sVthumb
p4058
g3
ssVrelease_date
p4059
g3
sVcontent_rating
p4060
g3
sVoriginal_title
p4061
g3
sVwriters
p4062
(lp4063
sVimdb_id
p4064
g3
sVdirector
p4065
g3
sVcast
p4066
(lp4067
sVlength
p4068
g3
sVrating_count
p4069
g3
sVstoryline
p4070
g3
sVstars
p4071
(lp4072
sVyear
p4073
g3
sVgenre
p4074
(lp4075
sVtrailer
p4076
(lp4077
sVmetadata
p4078
(dp4079
Vasp_retio
p4080
g3
sVsound_mix
p4081
(lp4082
sVgross
p4083
g3
sVcountries
p4084
(lp4085
sVbudget
p4086
g3
sVlanguages
p4087
(lp4088
sVfilming_locations
p4089
(lp4090
sValso_known_as
p4091
(lp4092
ssa(dp4093
Vrating
p4094
g3
sVdescription
p4095
g3
sVtitle
p4096
g3
sVurl
p4097
(dp4098
Vurl
p4099
Vhttp://www.imdb.com/title/tt9842
p4100
ssVposter
p4101
(dp4102
Vlarge
p4103
V_V1_.jpg
p4104
sVthumb
p4105
g3
ssVrelease_date
p4106
g3
sVcontent_rating
p4107
g3
sVoriginal_title
p4108
g3
sVwriters
p4109
(lp4110
sVimdb_id
p4111
g3
sVdirector
p4112
g3
sVcast
p4113
(lp4114
sVlength
p4115
g3
sVrating_count
p4116
g3
sVstoryline
p4117
g3
sVstars
p4118
(lp4119
sVyear
p4120
g3
sVgenre
p4121
(lp4122
sVtrailer
p4123
(lp4124
sVmetadata
p4125
(dp4126
Vasp_retio
p4127
g3
sVsound_mix
p4128
(lp4129
sVgross
p4130
g3
sVcountries
p4131
(lp4132
sVbudget
p4133
g3
sVlanguages
p4134
(lp4135
sVfilming_locations
p4136
(lp4137
sValso_known_as
p4138
(lp4139
ssa(dp4140
Vrating
p4141
g3
sVdescription
p4142
g3
sVtitle
p4143
g3
sVurl
p4144
(dp4145
Vurl
p4146
Vhttp://www.imdb.com/title/tt9843
p4147
ssVposter
p4148
(dp4149
Vlarge
p4150
V_V1_.jpg
p4151
sVthumb
p4152
g3
ssVrelease_date
p4153
g3
sVcontent_rating
p4154
g3
sVoriginal_title
p4155
g3
sVwriters
p4156
(lp4157
sVimdb_id
p4158
g3
sVdirector
p4159
g3
sVcast
p4160
(lp4161
sVlength
p4162
g3
sVrating_count
p4163
g3
sVstoryline
p4164
g3
sVstars
p4165
(lp4166
sVyear
p4167
g3
sVgenre
p4168
(lp4169
sVtrailer
p4170
(lp4171
sVmetadata
p4172
(dp4173
Vasp_retio
p4174
g3
sVsound_mix
p4175
(lp4176
sVgross
p4177
g3
sVcountries
p4178
(lp4179
sVbudget
p4180
g3
sVlanguages
p4181
(lp4182
sVfilming_locations
p4183
(lp4184
sValso_known_as
p4185
(lp4186
ssa(dp4187
Vrating
p4188
g3
sVdescription
p4189
g3
sVtitle
p4190
g3
sVurl
p4191
(dp4192
Vurl
p4193
Vhttp://www.imdb.com/title/tt9844
p4194
ssVposter
p4195
(dp4196
Vlarge
p4197
V_V1_.jpg
p4198
sVthumb
p4199
g3
ssVrelease_date
p4200
g3
sVcontent_rating
p4201
g3
sVoriginal_title
p4202
g3
sVwriters
p4203
(lp4204
sVimdb_id
p4205
g3
sVdirector
p4206
g3
sVcast
p4207
(lp4208
sVlength
p4209
g3
sVrating_count
p4210
g3
sVstoryline
p4211
g3
sVstars
p4212
(lp4213
sVyear
p4214
g3
sVgenre
p4215
(lp4216
sVtrailer
p4217
(lp4218
sVmetadata
p4219
(dp4220
Vasp_retio
p4221
g3
sVsound_mix
p4222
(lp4223
sVgross
p4224
g3
sVcountries
p4225
(lp4226
sVbudget
p4227
g3
sVlanguages
p4228
(lp4229
sVfilming_locations
p4230
(lp4231
sValso_known_as
p4232
(lp4233
ssa(dp4234
Vrating
p4235
g3
sVdescription
p4236
g3
sVtitle
p4237
g3
sVurl
p4238
(dp4239
Vurl
p4240
Vhttp://www.imdb.com/title/tt9845
p4241
ssVposter
p4242
(dp4243
Vlarge
p4244
V_V1_.jpg
p4245
sVthumb
p4246
g3
ssVrelease_date
p4247
g3
sVcontent_rating
p4248
g3
sVoriginal_title
p4249
g3
sVwriters
p4250
(lp4251
sVimdb_id
p4252
g3
sVdirector
p4253
g3
sVcast
p4254
(lp4255
sVlength
p4256
g3
sVrating_count
p4257
g3
sVstoryline
p4258
g3
sVstars
p4259
(lp4260
sVyear
p4261
g3
sVgenre
p4262
(lp4263
sVtrailer
p4264
(lp4265
sVmetadata
p4266
(dp4267
Vasp_retio
p4268
g3
sVsound_mix
p4269
(lp4270
sVgross
p4271
g3
sVcountries
p4272
(lp4273
sVbudget
p4274
g3
sVlanguages
p4275
(lp4276
sVfilming_locations
p4277
(lp4278
sValso_known_as
p4279
(lp4280
ssa(dp4281
Vrating
p4282
g3
sVdescription
p4283
g3
sVtitle
p4284
g3
sVurl
p4285
(dp4286
Vurl
p4287
Vhttp://www.imdb.com/title/tt9846
p4288
ssVposter
p4289
(dp4290
Vlarge
p4291
V_V1_.jpg
p4292
sVthumb
p4293
g3
ssVrelease_date
p4294
g3
sVcontent_rating
p4295
g3
sVoriginal_title
p4296
g3
sVwriters
p4297
(lp4298
sVimdb_id
p4299
g3
sVdirector
p4300
g3
sVcast
p4301
(lp4302
sVlength
p4303
g3
sVrating_count
p4304
g3
sVstoryline
p4305
g3
sVstars
p4306
(lp4307
sVyear
p4308
g3
sVgenre
p4309
(lp4310
sVtrailer
p4311
(lp4312
sVmetadata
p4313
(dp4314
Vasp_retio
p4315
g3
sVsound_mix
p4316
(lp4317
sVgross
p4318
g3
sVcountries
p4319
(lp4320
sVbudget
p4321
g3
sVlanguages
p4322
(lp4323
sVfilming_locations
p4324
(lp4325
sValso_known_as
p4326
(lp4327
ssa(dp4328
Vrating
p4329
g3
sVdescription
p4330
g3
sVtitle
p4331
g3
sVurl
p4332
(dp4333
Vurl
p4334
Vhttp://www.imdb.com/title/tt9847
p4335
ssVposter
p4336
(dp4337
Vlarge
p4338
V_V1_.jpg
p4339
sVthumb
p4340
g3
ssVrelease_date
p4341
g3
sVcontent_rating
p4342
g3
sVoriginal_title
p4343
g3
sVwriters
p4344
(lp4345
sVimdb_id
p4346
g3
sVdirector
p4347
g3
sVcast
p4348
(lp4349
sVlength
p4350
g3
sVrating_count
p4351
g3
sVstoryline
p4352
g3
sVstars
p4353
(lp4354
sVyear
p4355
g3
sVgenre
p4356
(lp4357
sVtrailer
p4358
(lp4359
sVmetadata
p4360
(dp4361
Vasp_retio
p4362
g3
sVsound_mix
p4363
(lp4364
sVgross
p4365
g3
sVcountries
p4366
(lp4367
sVbudget
p4368
g3
sVlanguages
p4369
(lp4370
sVfilming_locations
p4371
(lp4372
sValso_known_as
p4373
(lp4374
ssa(dp4375
Vrating
p4376
g3
sVdescription
p4377
g3
sVtitle
p4378
g3
sVurl
p4379
(dp4380
Vurl
p4381
Vhttp://www.imdb.com/title/tt9848
p4382
ssVposter
p4383
(dp4384
Vlarge
p4385
V_V1_.jpg
p4386
sVthumb
p4387
g3
ssVrelease_date
p4388
g3
sVcontent_rating
p4389
g3
sVoriginal_title
p4390
g3
sVwriters
p4391
(lp4392
sVimdb_id
p4393
g3
sVdirector
p4394
g3
sVcast
p4395
(lp4396
sVlength
p4397
g3
sVrating_count
p4398
g3
sVstoryline
p4399
g3
sVstars
p4400
(lp4401
sVyear
p4402
g3
sVgenre
p4403
(lp4404
sVtrailer
p4405
(lp4406
sVmetadata
p4407
(dp4408
Vasp_retio
p4409
g3
sVsound_mix
p4410
(lp4411
sVgross
p4412
g3
sVcountries
p4413
(lp4414
sVbudget
p4415
g3
sVlanguages
p4416
(lp4417
sVfilming_locations
p4418
(lp4419
sValso_known_as
p4420
(lp4421
ssa(dp4422
Vrating
p4423
g3
sVdescription
p4424
g3
sVtitle
p4425
g3
sVurl
p4426
(dp4427
Vurl
p4428
Vhttp://www.imdb.com/title/tt9849
p4429
ssVposter
p4430
(dp4431
Vlarge
p4432
V_V1_.jpg
p4433
sVthumb
p4434
g3
ssVrelease_date
p4435
g3
sVcontent_rating
p4436
g3
sVoriginal_title
p4437
g3
sVwriters
p4438
(lp4439
sVimdb_id
p4440
g3
sVdirector
p4441
g3
sVcast
p4442
(lp4443
sVlength
p4444
g3
sVrating_count
p4445
g3
sVstoryline
p4446
g3
sVstars
p4447
(lp4448
sVyear
p4449
g3
sVgenre
p4450
(lp4451
sVtrailer
p4452
(lp4453
sVmetadata
p4454
(dp4455
Vasp_retio
p4456
g3
sVsound_mix
p4457
(lp4458
sVgross
p4459
g3
sVcountries
p4460
(lp4461
sVbudget
p4462
g3
sVlanguages
p4463
(lp4464
sVfilming_locations
p4465
(lp4466
sValso_known_as
p4467
(lp4468
ssa(dp4469
Vrating
p4470
g3
sVdescription
p4471
g3
sVtitle
p4472
g3
sVurl
p4473
(dp4474
Vurl
p4475
Vhttp://www.imdb.com/title/tt9850
p4476
ssVposter
p4477
(dp4478
Vlarge
p4479
V_V1_.jpg
p4480
sVthumb
p4481
g3
ssVrelease_date
p4482
g3
sVcontent_rating
p4483
g3
sVoriginal_title
p4484
g3
sVwriters
p4485
(lp4486
sVimdb_id
p4487
g3
sVdirector
p4488
g3
sVcast
p4489
(lp4490
sVlength
p4491
g3
sVrating_count
p4492
g3
sVstoryline
p4493
g3
sVstars
p4494
(lp4495
sVyear
p4496
g3
sVgenre
p4497
(lp4498
sVtrailer
p4499
(lp4500
sVmetadata
p4501
(dp4502
Vasp_retio
p4503
g3
sVsound_mix
p4504
(lp4505
sVgross
p4506
g3
sVcountries
p4507
(lp4508
sVbudget
p4509
g3
sVlanguages
p4510
(lp4511
sVfilming_locations
p4512
(lp4513
sValso_known_as
p4514
(lp4515
ssa(dp4516
Vrating
p4517
g3
sVdescription
p4518
g3
sVtitle
p4519
VMasked Ball
p4520
sVurl
p4521
(dp4522
Vurl
p4523
Vhttp://www.imdb.com/title/tt9851
p4524
ssVposter
p4525
(dp4526
Vlarge
p4527
Vhttps://images-na.ssl-images-amazon.com/images/M/MV5BZmNlZTcxMjgtYjJlMS00ZmI0LTk5ZWMtMTc4ZGIwNDU0NDljXkEyXkFqcGdeQXVyMzI2MDEwNA@@._V1_.jpg
p4528
sVthumb
p4529
Vhttps://images-na.ssl-images-amazon.com/images/M/MV5BZmNlZTcxMjgtYjJlMS00ZmI0LTk5ZWMtMTc4ZGIwNDU0NDljXkEyXkFqcGdeQXVyMzI2MDEwNA@@._V1_UY268_CR81,0,182,268_AL_.jpg
p4530
ssVrelease_date
p4531
V1918-03-11
p4532
sVcontent_rating
p4533
g3
sVoriginal_title
p4534
Vlarcosbl
p4535
sVwriters
p4536
(lp4537
VFrancesco Maria Piave
p4538
aVEugne Scribe
p4539
asVimdb_id
p4540
Vtt0009851
p4541
sVdirector
p4542
VAlfrd Desy
p4543
sVcast
p4544
(lp4545
(dp4546
Vlink
p4547
Vhttp://www.imdb.com/name/nm0351330/?ref_=tt_cl_t1
p4548
sVimage
p4549
g3
sVcharacter
p4550
VAm&#225;lia, Ren&#233; els&#245; feles&#233;ge
p4551
sVname
p4552
VAnnie Gth
p4553
sa(dp4554
Vlink
p4555
Vhttp://www.imdb.com/name/nm0000509/?ref_=tt_cl_t2
p4556
sVimage
p4557
Vhttps://images-na.ssl-images-amazon.com/images/M/MV5BMTg0Mjc4MTE2N15BMl5BanBnXkFtZTYwNjUyMDI2._V1_UY44_CR1,0,32,44_AL_.jpg
p4558
sVcharacter
p4559
VRen&#233;       (as Olt Arisztid)
p4560
sVname
p4561
VBela Lugosi
p4562
sa(dp4563
Vlink
p4564
Vhttp://www.imdb.com/name/nm0246262/?ref_=tt_cl_t3
p4565
sVimage
p4566
g3
sVcharacter
p4567
Va herceg, Mondero korm&#225;nyz&#243;ja
p4568
sVname
p4569
VNorbert Dn
p4570
sa(dp4571
Vlink
p4572
Vhttp://www.imdb.com/name/nm0270485/?ref_=tt_cl_t4
p4573
sVimage
p4574
g3
sVcharacter
p4575
VOsvals, Mondero tenger&#233;szeti parancsnoka       (as R&#243;bert Fi&#225;th)
p4576
sVname
p4577
VGyula Fehr
p4578
sa(dp4579
Vlink
p4580
Vhttp://www.imdb.com/name/nm0466403/?ref_=tt_cl_t5
p4581
sVimage
p4582
g3
sVcharacter
p4583
VRend&#245;rf&#245;n&#246;k       (as Kornay Rich&#225;rd)
p4584
sVname
p4585
VRichard Kornay
p4586
sa(dp4587
Vlink
p4588
Vhttp://www.imdb.com/name/nm0312459/?ref_=tt_cl_t6
p4589
sVimage
p4590
g3
sVcharacter
p4591
VCserkesz szolga       (as Kurd Viktor)
p4592
sVname
p4593
VLajos Gellrt
p4594
sasVlength
p4595
g3
sVrating_count
p4596
g3
sVstoryline
p4597
g3
sVstars
p4598
(lp4599
VAnnie Gth
p4600
aVBela Lugosi
p4601
aVNorbert Dn
p4602
asVyear
p4603
V1918
p4604
sVgenre
p4605
(lp4606
sVtrailer
p4607
(lp4608
sVmetadata
p4609
(dp4610
Vasp_retio
p4611
V1.33 : 1
p4612
sVsound_mix
p4613
(lp4614
VSilent
p4615
asVgross
p4616
g3
sVcountries
p4617
(lp4618
VHungary
p4619
asVbudget
p4620
g3
sVlanguages
p4621
(lp4622
sVfilming_locations
p4623
(lp4624
sValso_known_as
p4625
(lp4626
VMasked Ball
p4627
assa(dp4628
Vrating
p4629
g3
sVdescription
p4630
g3
sVtitle
p4631
g3
sVurl
p4632
(dp4633
Vurl
p4634
Vhttp://www.imdb.com/title/tt9852
p4635
ssVposter
p4636
(dp4637
Vlarge
p4638
V_V1_.jpg
p4639
sVthumb
p4640
g3
ssVrelease_date
p4641
g3
sVcontent_rating
p4642
g3
sVoriginal_title
p4643
g3
sVwriters
p4644
(lp4645
sVimdb_id
p4646
g3
sVdirector
p4647
g3
sVcast
p4648
(lp4649
sVlength
p4650
g3
sVrating_count
p4651
g3
sVstoryline
p4652
g3
sVstars
p4653
(lp4654
sVyear
p4655
g3
sVgenre
p4656
(lp4657
sVtrailer
p4658
(lp4659
sVmetadata
p4660
(dp4661
Vasp_retio
p4662
g3
sVsound_mix
p4663
(lp4664
sVgross
p4665
g3
sVcountries
p4666
(lp4667
sVbudget
p4668
g3
sVlanguages
p4669
(lp4670
sVfilming_locations
p4671
(lp4672
sValso_known_as
p4673
(lp4674
ssa(dp4675
Vrating
p4676
g3
sVdescription
p4677
g3
sVtitle
p4678
g3
sVurl
p4679
(dp4680
Vurl
p4681
Vhttp://www.imdb.com/title/tt9853
p4682
ssVposter
p4683
(dp4684
Vlarge
p4685
V_V1_.jpg
p4686
sVthumb
p4687
g3
ssVrelease_date
p4688
g3
sVcontent_rating
p4689
g3
sVoriginal_title
p4690
g3
sVwriters
p4691
(lp4692
sVimdb_id
p4693
g3
sVdirector
p4694
g3
sVcast
p4695
(lp4696
sVlength
p4697
g3
sVrating_count
p4698
g3
sVstoryline
p4699
g3
sVstars
p4700
(lp4701
sVyear
p4702
g3
sVgenre
p4703
(lp4704
sVtrailer
p4705
(lp4706
sVmetadata
p4707
(dp4708
Vasp_retio
p4709
g3
sVsound_mix
p4710
(lp4711
sVgross
p4712
g3
sVcountries
p4713
(lp4714
sVbudget
p4715
g3
sVlanguages
p4716
(lp4717
sVfilming_locations
p4718
(lp4719
sValso_known_as
p4720
(lp4721
ssa(dp4722
Vrating
p4723
g3
sVdescription
p4724
VA French orphan girl is adopted by a wealthy British nobleman. The family lives happily, unaware that a plot is afoot to kidnap the girl and make away with the nobleman's fortune.
p4725
sVtitle
p4726
V12.10
p4727
sVurl
p4728
(dp4729
Vurl
p4730
Vhttp://www.imdb.com/title/tt9854
p4731
ssVposter
p4732
(dp4733
Vlarge
p4734
Vhttp://ia.media-imdb.com/images/G/01/imdb/images/logos/imdb_fb_logo-1730868325._CB514892123_.png_V1_.jpg
p4735
sVthumb
p4736
g3
ssVrelease_date
p4737
V1919-12-14
p4738
sVcontent_rating
p4739
g3
sVoriginal_title
p4740
g3
sVwriters
p4741
(lp4742
VEarl Carroll
p4743
aVGeorge Edwardes-Hall
p4744
asVimdb_id
p4745
Vtt0009854
p4746
sVdirector
p4747
VHerbert Brenon
p4748
sVcast
p4749
(lp4750
(dp4751
Vlink
p4752
Vhttp://www.imdb.com/name/nm0233945/?ref_=tt_cl_t1
p4753
sVimage
p4754
Vhttps://images-na.ssl-images-amazon.com/images/M/MV5BMjI1NjYyNzgzM15BMl5BanBnXkFtZTgwNjAzODY3MTE@._V1_UY44_CR1,0,32,44_AL_.jpg
p4755
sVcharacter
p4756
VMarie Fernando
p4757
sVname
p4758
VMarie Doro
p4759
sa(dp4760
Vlink
p4761
Vhttp://www.imdb.com/name/nm0916828/?ref_=tt_cl_t2
p4762
sVimage
p4763
g3
sVcharacter
p4764
VLord Chatterton
p4765
sVname
p4766
VBen Webster
p4767
sa(dp4768
Vlink
p4769
Vhttp://www.imdb.com/name/nm0449698/?ref_=tt_cl_t3
p4770
sVimage
p4771
Vhttps://images-na.ssl-images-amazon.com/images/M/MV5BNjg5NmIxMzYtYTA1Yi00ZjY4LWE2MDItM2Y1MzJjZTBlYTFmXkEyXkFqcGdeQXVyMTcyODY2NDQ@._V1_UY44_CR1,0,32,44_AL_.jpg
p4772
sVcharacter
p4773
VGeoffrey Brooke
p4774
sVname
p4775
VGeoffrey Kerr
p4776
sa(dp4777
Vlink
p4778
Vhttp://www.imdb.com/name/nm0136864/?ref_=tt_cl_t4
p4779
sVimage
p4780
g3
sVcharacter
p4781
VArthur Newton
p4782
sVname
p4783
VJames Carew
p4784
sa(dp4785
Vlink
p4786
Vhttp://www.imdb.com/name/nm0449694/?ref_=tt_cl_t5
p4787
sVimage
p4788
g3
sVcharacter
p4789
VDr. Wrightman
p4790
sVname
p4791
VFrederick Kerr
p4792
sa(dp4793
Vlink
p4794
Vhttp://www.imdb.com/name/nm0537590/?ref_=tt_cl_t6
p4795
sVimage
p4796
g3
sVcharacter
p4797
g3
sVname
p4798
VPierre Maillard
p4799
sasVlength
p4800
V50
p4801
sVrating_count
p4802
g3
sVstoryline
p4803
VA French orphan girl is adopted by a wealthy British nobleman. The family lives happily, unaware that a plot is afoot to kidnap the girl and make away with the nobleman's fortune.
p4804
sVstars
p4805
(lp4806
VMarie Doro
p4807
aVBen Webster
p4808
aVGeoffrey Kerr
p4809
asVyear
p4810
V1919
p4811
sVgenre
p4812
(lp4813
VMystery
p4814
aVThriller
p4815
aVCrime
p4816
asVtrailer
p4817
(lp4818
sVmetadata
p4819
(dp4820
Vasp_retio
p4821
V1.33 : 1
p4822
sVsound_mix
p4823
(lp4824
VSilent
p4825
asVgross
p4826
g3
sVcountries
p4827
(lp4828
VUK
p4829
asVbudget
p4830
g3
sVlanguages
p4831
(lp4832
VEnglish
p4833
asVfilming_locations
p4834
(lp4835
sValso_known_as
p4836
(lp4837
V12:10
p4838
assa(dp4839
Vrating
p4840
g3
sVdescription
p4841
VBrash young Sgt. Gray makes a bet that he can have breakfast with his commanding general. But a couple of enemy spies, intent on infiltrating the training camp, get in the way of Sgt. ...\u000a                    See full summary
p4842
sVtitle
p4843
V23 1/2 Hours' Leave
p4844
sVurl
p4845
(dp4846
Vurl
p4847
Vhttp://www.imdb.com/title/tt9855
p4848
ssVposter
p4849
(dp4850
Vlarge
p4851
Vhttp://ia.media-imdb.com/images/G/01/imdb/images/logos/imdb_fb_logo-1730868325._CB514892123_.png_V1_.jpg
p4852
sVthumb
p4853
g3
ssVrelease_date
p4854
V1919-11-16
p4855
sVcontent_rating
p4856
g3
sVoriginal_title
p4857
g3
sVwriters
p4858
(lp4859
VMary Roberts Rinehart
p4860
aVAgnes Christine Johnston
p4861
asVimdb_id
p4862
Vtt0009855
p4863
sVdirector
p4864
VHenry King
p4865
sVcast
p4866
(lp4867
(dp4868
Vlink
p4869
Vhttp://www.imdb.com/name/nm0533764/?ref_=tt_cl_t1
p4870
sVimage
p4871
Vhttps://images-na.ssl-images-amazon.com/images/M/MV5BNmEzZDc0YzMtNjJhNy00NDZmLWJiNDQtZTVkZmY5MDQ4OTM1XkEyXkFqcGdeQXVyMzI5NDcxNzI@._V1_UY44_CR1,0,32,44_AL_.jpg
p4872
sVcharacter
p4873
VSergeant William Gray
p4874
sVname
p4875
VDouglas MacLean
p4876
sa(dp4877
Vlink
p4878
Vhttp://www.imdb.com/name/nm0561931/?ref_=tt_cl_t2
p4879
sVimage
p4880
Vhttps://images-na.ssl-images-amazon.com/images/M/MV5BNDIwMWViYzktYWVhZS00NGE3LTljM2YtNTBhYTc2YjE4OGI5L2ltYWdlL2ltYWdlXkEyXkFqcGdeQXVyMzI5NDcxNzI@._V1_UY44_CR2,0,32,44_AL_.jpg
p4881
sVcharacter
p4882
VPeggy Dodge
p4883
sVname
p4884
VDoris May
p4885
sa(dp4886
Vlink
p4887
Vhttp://www.imdb.com/name/nm0347531/?ref_=tt_cl_t3
p4888
sVimage
p4889
g3
sVcharacter
p4890
VGeneral Dodge       (as Thomas Guise)
p4891
sVname
p4892
VTom Guise
p4893
sa(dp4894
Vlink
p4895
Vhttp://www.imdb.com/name/nm0822554/?ref_=tt_cl_t4
p4896
sVimage
p4897
g3
sVcharacter
p4898
VTable Sergeant
p4899
sVname
p4900
VMaxfield Stanley
p4901
sa(dp4902
Vlink
p4903
Vhttp://www.imdb.com/name/nm0098424/?ref_=tt_cl_t5
p4904
sVimage
p4905
Vhttps://images-na.ssl-images-amazon.com/images/M/MV5BOGIxOWI1ZTUtOGY5NC00ODA0LTkxYzQtYWE2MGMwNzg3ZjIwXkEyXkFqcGdeQXVyMTE2NzA0Ng@@._V1_UY44_CR13,0,32,44_AL_.jpg
p4906
sVcharacter
p4907
VMess Sergeant
p4908
sVname
p4909
VWade Boteler
p4910
sa(dp4911
Vlink
p4912
Vhttp://www.imdb.com/name/nm0391128/?ref_=tt_cl_t6
p4913
sVimage
p4914
g3
sVcharacter
p4915
VBooth
p4916
sVname
p4917
VAlfred Hollingsworth
p4918
sa(dp4919
Vlink
p4920
Vhttp://www.imdb.com/name/nm0500491/?ref_=tt_cl_t7
p4921
sVimage
p4922
g3
sVcharacter
p4923
VA Spy
p4924
sVname
p4925
VN. Leinsky
p4926
sa(dp4927
Vlink
p4928
Vhttp://www.imdb.com/name/nm0625424/?ref_=tt_cl_t8
p4929
sVimage
p4930
Vhttps://images-na.ssl-images-amazon.com/images/M/MV5BY2E3ZjliNTQtYWYzNS00MDk0LWExYTEtMTc2NmNlMWZmMTk2XkEyXkFqcGdeQXVyMzI5NDcxNzI@._UY317_CR16,0,214,317_AL_.jpg
p4931
sVcharacter
p4932
VGeneral's Aide
p4933
sVname
p4934
VJack Nelson
p4935
sasVlength
p4936
V50
p4937
sVrating_count
p4938
g3
sVstoryline
p4939
VBrash young Sgt. Gray makes a bet that he can have breakfast with his commanding general. But a couple of enemy spies, intent on infiltrating the training camp, get in the way of Sgt. Gray's plans.
p4940
sVstars
p4941
(lp4942
VDouglas MacLean
p4943
aVDoris May
p4944
aVTom Guise
p4945
asVyear
p4946
V1919
p4947
sVgenre
p4948
(lp4949
VComedy
p4950
asVtrailer
p4951
(lp4952
sVmetadata
p4953
(dp4954
Vasp_retio
p4955
V1.33 : 1
p4956
sVsound_mix
p4957
(lp4958
VSilent
p4959
asVgross
p4960
g3
sVcountries
p4961
(lp4962
VUSA
p4963
asVbudget
p4964
g3
sVlanguages
p4965
(lp4966
VEnglish
p4967
asVfilming_locations
p4968
(lp4969
sValso_known_as
p4970
(lp4971
VTwenty-Three and a Half Hours Leave
p4972
assa(dp4973
Vrating
p4974
g3
sVdescription
p4975
g3
sVtitle
p4976
g3
sVurl
p4977
(dp4978
Vurl
p4979
Vhttp://www.imdb.com/title/tt9856
p4980
ssVposter
p4981
(dp4982
Vlarge
p4983
V_V1_.jpg
p4984
sVthumb
p4985
g3
ssVrelease_date
p4986
g3
sVcontent_rating
p4987
g3
sVoriginal_title
p4988
g3
sVwriters
p4989
(lp4990
sVimdb_id
p4991
g3
sVdirector
p4992
g3
sVcast
p4993
(lp4994
sVlength
p4995
g3
sVrating_count
p4996
g3
sVstoryline
p4997
g3
sVstars
p4998
(lp4999
sVyear
p5000
g3
sVgenre
p5001
(lp5002
sVtrailer
p5003
(lp5004
sVmetadata
p5005
(dp5006
Vasp_retio
p5007
g3
sVsound_mix
p5008
(lp5009
sVgross
p5010
g3
sVcountries
p5011
(lp5012
sVbudget
p5013
g3
sVlanguages
p5014
(lp5015
sVfilming_locations
p5016
(lp5017
sValso_known_as
p5018
(lp5019
ssa(dp5020
Vrating
p5021
g3
sVdescription
p5022
g3
sVtitle
p5023
VA 111-es
p5024
sVurl
p5025
(dp5026
Vurl
p5027
Vhttp://www.imdb.com/title/tt9857
p5028
ssVposter
p5029
(dp5030
Vlarge
p5031
Vhttp://ia.media-imdb.com/images/G/01/imdb/images/logos/imdb_fb_logo-1730868325._CB514892123_.png_V1_.jpg
p5032
sVthumb
p5033
g3
ssVrelease_date
p5034
V1920-01-08
p5035
sVcontent_rating
p5036
g3
sVoriginal_title
p5037
g3
sVwriters
p5038
(lp5039
VJen Heltai
p5040
aVLadislaus Vajda
p5041
asVimdb_id
p5042
Vtt0009857
p5043
sVdirector
p5044
VAlexander Korda
p5045
sVcast
p5046
(lp5047
(dp5048
Vlink
p5049
Vhttp://www.imdb.com/name/nm0049475/?ref_=tt_cl_t1
p5050
sVimage
p5051
g3
sVcharacter
p5052
V(as Balassa Jen&#245;)
p5053
sVname
p5054
VJen Balassa
p5055
sa(dp5056
Vlink
p5057
Vhttp://www.imdb.com/name/nm0059286/?ref_=tt_cl_t2
p5058
sVimage
p5059
g3
sVcharacter
p5060
VSidney Balbrock
p5061
sVname
p5062
VGyula Bartos
p5063
sa(dp5064
Vlink
p5065
Vhttp://www.imdb.com/name/nm0065365/?ref_=tt_cl_t3
p5066
sVimage
p5067
g3
sVcharacter
p5068
g3
sVname
p5069
VBby Becker
p5070
sa(dp5071
Vlink
p5072
Vhttp://www.imdb.com/name/nm0179386/?ref_=tt_cl_t4
p5073
sVimage
p5074
Vhttps://images-na.ssl-images-amazon.com/images/M/MV5BODMwNjcxNTY3Nl5BMl5BanBnXkFtZTgwNjQ3MzE1MjE@._V1_UY44_CR0,0,32,44_AL_.jpg
p5075
sVcharacter
p5076
VOlga /              Vera       (as Farkas Ant&#243;nia)
p5077
sVname
p5078
VMara Corda
p5079
sa(dp5080
Vlink
p5081
Vhttp://www.imdb.com/name/nm0246265/?ref_=tt_cl_t5
p5082
sVimage
p5083
g3
sVcharacter
p5084
g3
sVname
p5085
VSndor Dniel
p5086
sa(dp5087
Vlink
p5088
Vhttp://www.imdb.com/name/nm0300472/?ref_=tt_cl_t6
p5089
sVimage
p5090
g3
sVcharacter
p5091
VMabel
p5092
sVname
p5093
VLila Gacs
p5094
sa(dp5095
Vlink
p5096
Vhttp://www.imdb.com/name/nm0450075/?ref_=tt_cl_t7
p5097
sVimage
p5098
g3
sVcharacter
p5099
Vb&#225;r&#243; V&#225;s&#225;rhelyi Gy&#246;rgy
p5100
sVname
p5101
VDezs Kertsz
p5102
sa(dp5103
Vlink
p5104
Vhttp://www.imdb.com/name/nm0707457/?ref_=tt_cl_t8
p5105
sVimage
p5106
g3
sVcharacter
p5107
VIvashiro
p5108
sVname
p5109
VGbor Rajnay
p5110
sa(dp5111
Vlink
p5112
Vhttp://www.imdb.com/name/nm0879555/?ref_=tt_cl_t9
p5113
sVimage
p5114
g3
sVcharacter
p5115
V(as T&#246;rzs Jen&#245;)
p5116
sVname
p5117
VJen Trzs
p5118
sasVlength
p5119
g3
sVrating_count
p5120
g3
sVstoryline
p5121
g3
sVstars
p5122
(lp5123
VJen Balassa
p5124
aVGyula Bartos
p5125
aVBby Becker
p5126
asVyear
p5127
V1920
p5128
sVgenre
p5129
(lp5130
VDrama
p5131
aVRomance
p5132
aVThriller
p5133
asVtrailer
p5134
(lp5135
sVmetadata
p5136
(dp5137
Vasp_retio
p5138
V1.33 : 1
p5139
sVsound_mix
p5140
(lp5141
VSilent
p5142
asVgross
p5143
g3
sVcountries
p5144
(lp5145
VHungary
p5146
asVbudget
p5147
g3
sVlanguages
p5148
(lp5149
sVfilming_locations
p5150
(lp5151
VBudapest
p5152
aVHungary
p5153
asValso_known_as
p5154
(lp5155
VDer Mann mit der Guillotine
p5156
assa(dp5157
Vrating
p5158
g3
sVdescription
p5159
g3
sVtitle
p5160
g3
sVurl
p5161
(dp5162
Vurl
p5163
Vhttp://www.imdb.com/title/tt9858
p5164
ssVposter
p5165
(dp5166
Vlarge
p5167
V_V1_.jpg
p5168
sVthumb
p5169
g3
ssVrelease_date
p5170
g3
sVcontent_rating
p5171
g3
sVoriginal_title
p5172
g3
sVwriters
p5173
(lp5174
sVimdb_id
p5175
g3
sVdirector
p5176
g3
sVcast
p5177
(lp5178
sVlength
p5179
g3
sVrating_count
p5180
g3
sVstoryline
p5181
g3
sVstars
p5182
(lp5183
sVyear
p5184
g3
sVgenre
p5185
(lp5186
sVtrailer
p5187
(lp5188
sVmetadata
p5189
(dp5190
Vasp_retio
p5191
g3
sVsound_mix
p5192
(lp5193
sVgross
p5194
g3
sVcountries
p5195
(lp5196
sVbudget
p5197
g3
sVlanguages
p5198
(lp5199
sVfilming_locations
p5200
(lp5201
sValso_known_as
p5202
(lp5203
ssa(dp5204
Vrating
p5205
g3
sVdescription
p5206
g3
sVtitle
p5207
g3
sVurl
p5208
(dp5209
Vurl
p5210
Vhttp://www.imdb.com/title/tt9859
p5211
ssVposter
p5212
(dp5213
Vlarge
p5214
V_V1_.jpg
p5215
sVthumb
p5216
g3
ssVrelease_date
p5217
g3
sVcontent_rating
p5218
g3
sVoriginal_title
p5219
g3
sVwriters
p5220
(lp5221
sVimdb_id
p5222
g3
sVdirector
p5223
g3
sVcast
p5224
(lp5225
sVlength
p5226
g3
sVrating_count
p5227
g3
sVstoryline
p5228
g3
sVstars
p5229
(lp5230
sVyear
p5231
g3
sVgenre
p5232
(lp5233
sVtrailer
p5234
(lp5235
sVmetadata
p5236
(dp5237
Vasp_retio
p5238
g3
sVsound_mix
p5239
(lp5240
sVgross
p5241
g3
sVcountries
p5242
(lp5243
sVbudget
p5244
g3
sVlanguages
p5245
(lp5246
sVfilming_locations
p5247
(lp5248
sValso_known_as
p5249
(lp5250
ssa(dp5251
Vrating
p5252
g3
sVdescription
p5253
g3
sVtitle
p5254
g3
sVurl
p5255
(dp5256
Vurl
p5257
Vhttp://www.imdb.com/title/tt9860
p5258
ssVposter
p5259
(dp5260
Vlarge
p5261
V_V1_.jpg
p5262
sVthumb
p5263
g3
ssVrelease_date
p5264
g3
sVcontent_rating
p5265
g3
sVoriginal_title
p5266
g3
sVwriters
p5267
(lp5268
sVimdb_id
p5269
g3
sVdirector
p5270
g3
sVcast
p5271
(lp5272
sVlength
p5273
g3
sVrating_count
p5274
g3
sVstoryline
p5275
g3
sVstars
p5276
(lp5277
sVyear
p5278
g3
sVgenre
p5279
(lp5280
sVtrailer
p5281
(lp5282
sVmetadata
p5283
(dp5284
Vasp_retio
p5285
g3
sVsound_mix
p5286
(lp5287
sVgross
p5288
g3
sVcountries
p5289
(lp5290
sVbudget
p5291
g3
sVlanguages
p5292
(lp5293
sVfilming_locations
p5294
(lp5295
sValso_known_as
p5296
(lp5297
ssa(dp5298
Vrating
p5299
g3
sVdescription
p5300
g3
sVtitle
p5301
g3
sVurl
p5302
(dp5303
Vurl
p5304
Vhttp://www.imdb.com/title/tt9861
p5305
ssVposter
p5306
(dp5307
Vlarge
p5308
V_V1_.jpg
p5309
sVthumb
p5310
g3
ssVrelease_date
p5311
g3
sVcontent_rating
p5312
g3
sVoriginal_title
p5313
g3
sVwriters
p5314
(lp5315
sVimdb_id
p5316
g3
sVdirector
p5317
g3
sVcast
p5318
(lp5319
sVlength
p5320
g3
sVrating_count
p5321
g3
sVstoryline
p5322
g3
sVstars
p5323
(lp5324
sVyear
p5325
g3
sVgenre
p5326
(lp5327
sVtrailer
p5328
(lp5329
sVmetadata
p5330
(dp5331
Vasp_retio
p5332
g3
sVsound_mix
p5333
(lp5334
sVgross
p5335
g3
sVcountries
p5336
(lp5337
sVbudget
p5338
g3
sVlanguages
p5339
(lp5340
sVfilming_locations
p5341
(lp5342
sValso_known_as
p5343
(lp5344
ssa(dp5345
Vrating
p5346
g3
sVdescription
p5347
g3
sVtitle
p5348
g3
sVurl
p5349
(dp5350
Vurl
p5351
Vhttp://www.imdb.com/title/tt9862
p5352
ssVposter
p5353
(dp5354
Vlarge
p5355
V_V1_.jpg
p5356
sVthumb
p5357
g3
ssVrelease_date
p5358
g3
sVcontent_rating
p5359
g3
sVoriginal_title
p5360
g3
sVwriters
p5361
(lp5362
sVimdb_id
p5363
g3
sVdirector
p5364
g3
sVcast
p5365
(lp5366
sVlength
p5367
g3
sVrating_count
p5368
g3
sVstoryline
p5369
g3
sVstars
p5370
(lp5371
sVyear
p5372
g3
sVgenre
p5373
(lp5374
sVtrailer
p5375
(lp5376
sVmetadata
p5377
(dp5378
Vasp_retio
p5379
g3
sVsound_mix
p5380
(lp5381
sVgross
p5382
g3
sVcountries
p5383
(lp5384
sVbudget
p5385
g3
sVlanguages
p5386
(lp5387
sVfilming_locations
p5388
(lp5389
sValso_known_as
p5390
(lp5391
ssa(dp5392
Vrating
p5393
g3
sVdescription
p5394
g3
sVtitle
p5395
g3
sVurl
p5396
(dp5397
Vurl
p5398
Vhttp://www.imdb.com/title/tt9863
p5399
ssVposter
p5400
(dp5401
Vlarge
p5402
V_V1_.jpg
p5403
sVthumb
p5404
g3
ssVrelease_date
p5405
g3
sVcontent_rating
p5406
g3
sVoriginal_title
p5407
g3
sVwriters
p5408
(lp5409
sVimdb_id
p5410
g3
sVdirector
p5411
g3
sVcast
p5412
(lp5413
sVlength
p5414
g3
sVrating_count
p5415
g3
sVstoryline
p5416
g3
sVstars
p5417
(lp5418
sVyear
p5419
g3
sVgenre
p5420
(lp5421
sVtrailer
p5422
(lp5423
sVmetadata
p5424
(dp5425
Vasp_retio
p5426
g3
sVsound_mix
p5427
(lp5428
sVgross
p5429
g3
sVcountries
p5430
(lp5431
sVbudget
p5432
g3
sVlanguages
p5433
(lp5434
sVfilming_locations
p5435
(lp5436
sValso_known_as
p5437
(lp5438
ssa(dp5439
Vrating
p5440
g3
sVdescription
p5441
g3
sVtitle
p5442
g3
sVurl
p5443
(dp5444
Vurl
p5445
Vhttp://www.imdb.com/title/tt9864
p5446
ssVposter
p5447
(dp5448
Vlarge
p5449
V_V1_.jpg
p5450
sVthumb
p5451
g3
ssVrelease_date
p5452
g3
sVcontent_rating
p5453
g3
sVoriginal_title
p5454
g3
sVwriters
p5455
(lp5456
sVimdb_id
p5457
g3
sVdirector
p5458
g3
sVcast
p5459
(lp5460
sVlength
p5461
g3
sVrating_count
p5462
g3
sVstoryline
p5463
g3
sVstars
p5464
(lp5465
sVyear
p5466
g3
sVgenre
p5467
(lp5468
sVtrailer
p5469
(lp5470
sVmetadata
p5471
(dp5472
Vasp_retio
p5473
g3
sVsound_mix
p5474
(lp5475
sVgross
p5476
g3
sVcountries
p5477
(lp5478
sVbudget
p5479
g3
sVlanguages
p5480
(lp5481
sVfilming_locations
p5482
(lp5483
sValso_known_as
p5484
(lp5485
ssa(dp5486
Vrating
p5487
g3
sVdescription
p5488
g3
sVtitle
p5489
g3
sVurl
p5490
(dp5491
Vurl
p5492
Vhttp://www.imdb.com/title/tt9865
p5493
ssVposter
p5494
(dp5495
Vlarge
p5496
V_V1_.jpg
p5497
sVthumb
p5498
g3
ssVrelease_date
p5499
g3
sVcontent_rating
p5500
g3
sVoriginal_title
p5501
g3
sVwriters
p5502
(lp5503
sVimdb_id
p5504
g3
sVdirector
p5505
g3
sVcast
p5506
(lp5507
sVlength
p5508
g3
sVrating_count
p5509
g3
sVstoryline
p5510
g3
sVstars
p5511
(lp5512
sVyear
p5513
g3
sVgenre
p5514
(lp5515
sVtrailer
p5516
(lp5517
sVmetadata
p5518
(dp5519
Vasp_retio
p5520
g3
sVsound_mix
p5521
(lp5522
sVgross
p5523
g3
sVcountries
p5524
(lp5525
sVbudget
p5526
g3
sVlanguages
p5527
(lp5528
sVfilming_locations
p5529
(lp5530
sValso_known_as
p5531
(lp5532
ssa(dp5533
Vrating
p5534
g3
sVdescription
p5535
g3
sVtitle
p5536
g3
sVurl
p5537
(dp5538
Vurl
p5539
Vhttp://www.imdb.com/title/tt9866
p5540
ssVposter
p5541
(dp5542
Vlarge
p5543
V_V1_.jpg
p5544
sVthumb
p5545
g3
ssVrelease_date
p5546
g3
sVcontent_rating
p5547
g3
sVoriginal_title
p5548
g3
sVwriters
p5549
(lp5550
sVimdb_id
p5551
g3
sVdirector
p5552
g3
sVcast
p5553
(lp5554
sVlength
p5555
g3
sVrating_count
p5556
g3
sVstoryline
p5557
g3
sVstars
p5558
(lp5559
sVyear
p5560
g3
sVgenre
p5561
(lp5562
sVtrailer
p5563
(lp5564
sVmetadata
p5565
(dp5566
Vasp_retio
p5567
g3
sVsound_mix
p5568
(lp5569
sVgross
p5570
g3
sVcountries
p5571
(lp5572
sVbudget
p5573
g3
sVlanguages
p5574
(lp5575
sVfilming_locations
p5576
(lp5577
sValso_known_as
p5578
(lp5579
ssa(dp5580
Vrating
p5581
g3
sVdescription
p5582
g3
sVtitle
p5583
g3
sVurl
p5584
(dp5585
Vurl
p5586
Vhttp://www.imdb.com/title/tt9867
p5587
ssVposter
p5588
(dp5589
Vlarge
p5590
V_V1_.jpg
p5591
sVthumb
p5592
g3
ssVrelease_date
p5593
g3
sVcontent_rating
p5594
g3
sVoriginal_title
p5595
g3
sVwriters
p5596
(lp5597
sVimdb_id
p5598
g3
sVdirector
p5599
g3
sVcast
p5600
(lp5601
sVlength
p5602
g3
sVrating_count
p5603
g3
sVstoryline
p5604
g3
sVstars
p5605
(lp5606
sVyear
p5607
g3
sVgenre
p5608
(lp5609
sVtrailer
p5610
(lp5611
sVmetadata
p5612
(dp5613
Vasp_retio
p5614
g3
sVsound_mix
p5615
(lp5616
sVgross
p5617
g3
sVcountries
p5618
(lp5619
sVbudget
p5620
g3
sVlanguages
p5621
(lp5622
sVfilming_locations
p5623
(lp5624
sValso_known_as
p5625
(lp5626
ssa(dp5627
Vrating
p5628
g3
sVdescription
p5629
g3
sVtitle
p5630
g3
sVurl
p5631
(dp5632
Vurl
p5633
Vhttp://www.imdb.com/title/tt9868
p5634
ssVposter
p5635
(dp5636
Vlarge
p5637
V_V1_.jpg
p5638
sVthumb
p5639
g3
ssVrelease_date
p5640
g3
sVcontent_rating
p5641
g3
sVoriginal_title
p5642
g3
sVwriters
p5643
(lp5644
sVimdb_id
p5645
g3
sVdirector
p5646
g3
sVcast
p5647
(lp5648
sVlength
p5649
g3
sVrating_count
p5650
g3
sVstoryline
p5651
g3
sVstars
p5652
(lp5653
sVyear
p5654
g3
sVgenre
p5655
(lp5656
sVtrailer
p5657
(lp5658
sVmetadata
p5659
(dp5660
Vasp_retio
p5661
g3
sVsound_mix
p5662
(lp5663
sVgross
p5664
g3
sVcountries
p5665
(lp5666
sVbudget
p5667
g3
sVlanguages
p5668
(lp5669
sVfilming_locations
p5670
(lp5671
sValso_known_as
p5672
(lp5673
ssa(dp5674
Vrating
p5675
g3
sVdescription
p5676
g3
sVtitle
p5677
VThe Amateur Adventuress
p5678
sVurl
p5679
(dp5680
Vurl
p5681
Vhttp://www.imdb.com/title/tt9869
p5682
ssVposter
p5683
(dp5684
Vlarge
p5685
Vhttp://ia.media-imdb.com/images/G/01/imdb/images/logos/imdb_fb_logo-1730868325._CB514892123_.png_V1_.jpg
p5686
sVthumb
p5687
g3
ssVrelease_date
p5688
V1919-05-28
p5689
sVcontent_rating
p5690
g3
sVoriginal_title
p5691
g3
sVwriters
p5692
(lp5693
VThomas Edgelow
p5694
aVJune Mathis
p5695
asVimdb_id
p5696
Vtt0009869
p5697
sVdirector
p5698
VHenry Otto
p5699
sVcast
p5700
(lp5701
(dp5702
Vlink
p5703
Vhttp://www.imdb.com/name/nm0917575/?ref_=tt_cl_t1
p5704
sVimage
p5705
Vhttps://images-na.ssl-images-amazon.com/images/M/MV5BMzJmM2NiY2MtMjZlZi00NjVmLTlkOTYtYjkzYTZlMzRmMTYwXkEyXkFqcGdeQXVyNTk5NzQ5Ng@@._V1_UY44_CR3,0,32,44_AL_.jpg
p5706
sVcharacter
p5707
VNorma Wood
p5708
sVname
p5709
VEmmy Wehlen
p5710
sa(dp5711
Vlink
p5712
Vhttp://www.imdb.com/name/nm0780739/?ref_=tt_cl_t2
p5713
sVimage
p5714
g3
sVcharacter
p5715
VOliver Morley
p5716
sVname
p5717
VAllan Sears
p5718
sa(dp5719
Vlink
p5720
Vhttp://www.imdb.com/name/nm0657874/?ref_=tt_cl_t3
p5721
sVimage
p5722
Vhttps://images-na.ssl-images-amazon.com/images/M/MV5BMTM5Nzk5NzA2NF5BMl5BanBnXkFtZTcwNTI1MDQxOA@@._V1_UY44_CR0,0,32,44_AL_.jpg
p5723
sVcharacter
p5724
VGeorge Goodie
p5725
sVname
p5726
VEugene Pallette
p5727
sa(dp5728
Vlink
p5729
Vhttp://www.imdb.com/name/nm0597995/?ref_=tt_cl_t4
p5730
sVimage
p5731
Vhttps://images-na.ssl-images-amazon.com/images/M/MV5BZDFmOTdjN2EtN2ZhZi00MWZmLWI3ZDktMDJkOGFhODFiMGY0XkEyXkFqcGdeQXVyMzI5NDcxNzI@._UY317_CR16,0,214,317_AL_.jpg
p5732
sVcharacter
p5733
VWilliam Claxtonbury
p5734
sVname
p5735
VWilliam V. Mong
p5736
sa(dp5737
Vlink
p5738
Vhttp://www.imdb.com/name/nm0804285/?ref_=tt_cl_t5
p5739
sVimage
p5740
g3
sVcharacter
p5741
VMrs. Claxtonbury
p5742
sVname
p5743
VMarian Skinner
p5744
sa(dp5745
Vlink
p5746
Vhttp://www.imdb.com/name/nm0911699/?ref_=tt_cl_t6
p5747
sVimage
p5748
g3
sVcharacter
p5749
VMrs. Sentel
p5750
sVname
p5751
VLucille Ward
p5752
sa(dp5753
Vlink
p5754
Vhttp://www.imdb.com/name/nm0693055/?ref_=tt_cl_t7
p5755
sVimage
p5756
Vhttps://images-na.ssl-images-amazon.com/images/M/MV5BNjRmNmE4MDMtMTAwYS00N2ZlLTlmZjAtY2MxZTg2YjFkNTM4XkEyXkFqcGdeQXVyMzI5NDcxNzI@._V1_UY44_CR1,0,32,44_AL_.jpg
p5757
sVcharacter
p5758
VGregory Charles Sentel
p5759
sVname
p5760
VVictor Potel
p5761
sa(dp5762
Vlink
p5763
Vhttp://www.imdb.com/name/nm0857302/?ref_=tt_cl_t8
p5764
sVimage
p5765
Vhttps://images-na.ssl-images-amazon.com/images/M/MV5BNDE3MzQ5NDQyNV5BMl5BanBnXkFtZTgwNDkyNjc3MTE@._V1._CR75.88333129882812,73.53334045410156,845,1135_UY44_CR0,0,32,44_AL_.jpg
p5766
sVcharacter
p5767
VFlossie
p5768
sVname
p5769
VRosemary Theby
p5770
sasVlength
p5771
g3
sVrating_count
p5772
g3
sVstoryline
p5773
g3
sVstars
p5774
(lp5775
VEmmy Wehlen
p5776
aVAllan Sears
p5777
aVEugene Pallette
p5778
asVyear
p5779
V1919
p5780
sVgenre
p5781
(lp5782
VComedy
p5783
asVtrailer
p5784
(lp5785
sVmetadata
p5786
(dp5787
Vasp_retio
p5788
V1.33 : 1
p5789
sVsound_mix
p5790
(lp5791
VSilent
p5792
asVgross
p5793
g3
sVcountries
p5794
(lp5795
VUSA
p5796
asVbudget
p5797
g3
sVlanguages
p5798
(lp5799
sVfilming_locations
p5800
(lp5801
sValso_known_as
p5802
(lp5803
ssa(dp5804
Vrating
p5805
g3
sVdescription
p5806
g3
sVtitle
p5807
g3
sVurl
p5808
(dp5809
Vurl
p5810
Vhttp://www.imdb.com/title/tt9870
p5811
ssVposter
p5812
(dp5813
Vlarge
p5814
V_V1_.jpg
p5815
sVthumb
p5816
g3
ssVrelease_date
p5817
g3
sVcontent_rating
p5818
g3
sVoriginal_title
p5819
g3
sVwriters
p5820
(lp5821
sVimdb_id
p5822
g3
sVdirector
p5823
g3
sVcast
p5824
(lp5825
sVlength
p5826
g3
sVrating_count
p5827
g3
sVstoryline
p5828
g3
sVstars
p5829
(lp5830
sVyear
p5831
g3
sVgenre
p5832
(lp5833
sVtrailer
p5834
(lp5835
sVmetadata
p5836
(dp5837
Vasp_retio
p5838
g3
sVsound_mix
p5839
(lp5840
sVgross
p5841
g3
sVcountries
p5842
(lp5843
sVbudget
p5844
g3
sVlanguages
p5845
(lp5846
sVfilming_locations
p5847
(lp5848
sValso_known_as
p5849
(lp5850
ssa(dp5851
Vrating
p5852
g3
sVdescription
p5853
g3
sVtitle
p5854
g3
sVurl
p5855
(dp5856
Vurl
p5857
Vhttp://www.imdb.com/title/tt9871
p5858
ssVposter
p5859
(dp5860
Vlarge
p5861
V_V1_.jpg
p5862
sVthumb
p5863
g3
ssVrelease_date
p5864
g3
sVcontent_rating
p5865
g3
sVoriginal_title
p5866
g3
sVwriters
p5867
(lp5868
sVimdb_id
p5869
g3
sVdirector
p5870
g3
sVcast
p5871
(lp5872
sVlength
p5873
g3
sVrating_count
p5874
g3
sVstoryline
p5875
g3
sVstars
p5876
(lp5877
sVyear
p5878
g3
sVgenre
p5879
(lp5880
sVtrailer
p5881
(lp5882
sVmetadata
p5883
(dp5884
Vasp_retio
p5885
g3
sVsound_mix
p5886
(lp5887
sVgross
p5888
g3
sVcountries
p5889
(lp5890
sVbudget
p5891
g3
sVlanguages
p5892
(lp5893
sVfilming_locations
p5894
(lp5895
sValso_known_as
p5896
(lp5897
ssa(dp5898
Vrating
p5899
g3
sVdescription
p5900
g3
sVtitle
p5901
g3
sVurl
p5902
(dp5903
Vurl
p5904
Vhttp://www.imdb.com/title/tt9872
p5905
ssVposter
p5906
(dp5907
Vlarge
p5908
V_V1_.jpg
p5909
sVthumb
p5910
g3
ssVrelease_date
p5911
g3
sVcontent_rating
p5912
g3
sVoriginal_title
p5913
g3
sVwriters
p5914
(lp5915
sVimdb_id
p5916
g3
sVdirector
p5917
g3
sVcast
p5918
(lp5919
sVlength
p5920
g3
sVrating_count
p5921
g3
sVstoryline
p5922
g3
sVstars
p5923
(lp5924
sVyear
p5925
g3
sVgenre
p5926
(lp5927
sVtrailer
p5928
(lp5929
sVmetadata
p5930
(dp5931
Vasp_retio
p5932
g3
sVsound_mix
p5933
(lp5934
sVgross
p5935
g3
sVcountries
p5936
(lp5937
sVbudget
p5938
g3
sVlanguages
p5939
(lp5940
sVfilming_locations
p5941
(lp5942
sValso_known_as
p5943
(lp5944
ssa(dp5945
Vrating
p5946
g3
sVdescription
p5947
g3
sVtitle
p5948
g3
sVurl
p5949
(dp5950
Vurl
p5951
Vhttp://www.imdb.com/title/tt9873
p5952
ssVposter
p5953
(dp5954
Vlarge
p5955
V_V1_.jpg
p5956
sVthumb
p5957
g3
ssVrelease_date
p5958
g3
sVcontent_rating
p5959
g3
sVoriginal_title
p5960
g3
sVwriters
p5961
(lp5962
sVimdb_id
p5963
g3
sVdirector
p5964
g3
sVcast
p5965
(lp5966
sVlength
p5967
g3
sVrating_count
p5968
g3
sVstoryline
p5969
g3
sVstars
p5970
(lp5971
sVyear
p5972
g3
sVgenre
p5973
(lp5974
sVtrailer
p5975
(lp5976
sVmetadata
p5977
(dp5978
Vasp_retio
p5979
g3
sVsound_mix
p5980
(lp5981
sVgross
p5982
g3
sVcountries
p5983
(lp5984
sVbudget
p5985
g3
sVlanguages
p5986
(lp5987
sVfilming_locations
p5988
(lp5989
sValso_known_as
p5990
(lp5991
ssa(dp5992
Vrating
p5993
g3
sVdescription
p5994
g3
sVtitle
p5995
g3
sVurl
p5996
(dp5997
Vurl
p5998
Vhttp://www.imdb.com/title/tt9874
p5999
ssVposter
p6000
(dp6001
Vlarge
p6002
V_V1_.jpg
p6003
sVthumb
p6004
g3
ssVrelease_date
p6005
g3
sVcontent_rating
p6006
g3
sVoriginal_title
p6007
g3
sVwriters
p6008
(lp6009
sVimdb_id
p6010
g3
sVdirector
p6011
g3
sVcast
p6012
(lp6013
sVlength
p6014
g3
sVrating_count
p6015
g3
sVstoryline
p6016
g3
sVstars
p6017
(lp6018
sVyear
p6019
g3
sVgenre
p6020
(lp6021
sVtrailer
p6022
(lp6023
sVmetadata
p6024
(dp6025
Vasp_retio
p6026
g3
sVsound_mix
p6027
(lp6028
sVgross
p6029
g3
sVcountries
p6030
(lp6031
sVbudget
p6032
g3
sVlanguages
p6033
(lp6034
sVfilming_locations
p6035
(lp6036
sValso_known_as
p6037
(lp6038
ssa(dp6039
Vrating
p6040
g3
sVdescription
p6041
g3
sVtitle
p6042
g3
sVurl
p6043
(dp6044
Vurl
p6045
Vhttp://www.imdb.com/title/tt9875
p6046
ssVposter
p6047
(dp6048
Vlarge
p6049
V_V1_.jpg
p6050
sVthumb
p6051
g3
ssVrelease_date
p6052
g3
sVcontent_rating
p6053
g3
sVoriginal_title
p6054
g3
sVwriters
p6055
(lp6056
sVimdb_id
p6057
g3
sVdirector
p6058
g3
sVcast
p6059
(lp6060
sVlength
p6061
g3
sVrating_count
p6062
g3
sVstoryline
p6063
g3
sVstars
p6064
(lp6065
sVyear
p6066
g3
sVgenre
p6067
(lp6068
sVtrailer
p6069
(lp6070
sVmetadata
p6071
(dp6072
Vasp_retio
p6073
g3
sVsound_mix
p6074
(lp6075
sVgross
p6076
g3
sVcountries
p6077
(lp6078
sVbudget
p6079
g3
sVlanguages
p6080
(lp6081
sVfilming_locations
p6082
(lp6083
sValso_known_as
p6084
(lp6085
ssa(dp6086
Vrating
p6087
g3
sVdescription
p6088
g3
sVtitle
p6089
g3
sVurl
p6090
(dp6091
Vurl
p6092
Vhttp://www.imdb.com/title/tt9876
p6093
ssVposter
p6094
(dp6095
Vlarge
p6096
V_V1_.jpg
p6097
sVthumb
p6098
g3
ssVrelease_date
p6099
g3
sVcontent_rating
p6100
g3
sVoriginal_title
p6101
g3
sVwriters
p6102
(lp6103
sVimdb_id
p6104
g3
sVdirector
p6105
g3
sVcast
p6106
(lp6107
sVlength
p6108
g3
sVrating_count
p6109
g3
sVstoryline
p6110
g3
sVstars
p6111
(lp6112
sVyear
p6113
g3
sVgenre
p6114
(lp6115
sVtrailer
p6116
(lp6117
sVmetadata
p6118
(dp6119
Vasp_retio
p6120
g3
sVsound_mix
p6121
(lp6122
sVgross
p6123
g3
sVcountries
p6124
(lp6125
sVbudget
p6126
g3
sVlanguages
p6127
(lp6128
sVfilming_locations
p6129
(lp6130
sValso_known_as
p6131
(lp6132
ssa(dp6133
Vrating
p6134
g3
sVdescription
p6135
g3
sVtitle
p6136
g3
sVurl
p6137
(dp6138
Vurl
p6139
Vhttp://www.imdb.com/title/tt9877
p6140
ssVposter
p6141
(dp6142
Vlarge
p6143
V_V1_.jpg
p6144
sVthumb
p6145
g3
ssVrelease_date
p6146
g3
sVcontent_rating
p6147
g3
sVoriginal_title
p6148
g3
sVwriters
p6149
(lp6150
sVimdb_id
p6151
g3
sVdirector
p6152
g3
sVcast
p6153
(lp6154
sVlength
p6155
g3
sVrating_count
p6156
g3
sVstoryline
p6157
g3
sVstars
p6158
(lp6159
sVyear
p6160
g3
sVgenre
p6161
(lp6162
sVtrailer
p6163
(lp6164
sVmetadata
p6165
(dp6166
Vasp_retio
p6167
g3
sVsound_mix
p6168
(lp6169
sVgross
p6170
g3
sVcountries
p6171
(lp6172
sVbudget
p6173
g3
sVlanguages
p6174
(lp6175
sVfilming_locations
p6176
(lp6177
sValso_known_as
p6178
(lp6179
ssa(dp6180
Vrating
p6181
g3
sVdescription
p6182
g3
sVtitle
p6183
g3
sVurl
p6184
(dp6185
Vurl
p6186
Vhttp://www.imdb.com/title/tt9878
p6187
ssVposter
p6188
(dp6189
Vlarge
p6190
V_V1_.jpg
p6191
sVthumb
p6192
g3
ssVrelease_date
p6193
g3
sVcontent_rating
p6194
g3
sVoriginal_title
p6195
g3
sVwriters
p6196
(lp6197
sVimdb_id
p6198
g3
sVdirector
p6199
g3
sVcast
p6200
(lp6201
sVlength
p6202
g3
sVrating_count
p6203
g3
sVstoryline
p6204
g3
sVstars
p6205
(lp6206
sVyear
p6207
g3
sVgenre
p6208
(lp6209
sVtrailer
p6210
(lp6211
sVmetadata
p6212
(dp6213
Vasp_retio
p6214
g3
sVsound_mix
p6215
(lp6216
sVgross
p6217
g3
sVcountries
p6218
(lp6219
sVbudget
p6220
g3
sVlanguages
p6221
(lp6222
sVfilming_locations
p6223
(lp6224
sValso_known_as
p6225
(lp6226
ssa(dp6227
Vrating
p6228
g3
sVdescription
p6229
g3
sVtitle
p6230
g3
sVurl
p6231
(dp6232
Vurl
p6233
Vhttp://www.imdb.com/title/tt9879
p6234
ssVposter
p6235
(dp6236
Vlarge
p6237
V_V1_.jpg
p6238
sVthumb
p6239
g3
ssVrelease_date
p6240
g3
sVcontent_rating
p6241
g3
sVoriginal_title
p6242
g3
sVwriters
p6243
(lp6244
sVimdb_id
p6245
g3
sVdirector
p6246
g3
sVcast
p6247
(lp6248
sVlength
p6249
g3
sVrating_count
p6250
g3
sVstoryline
p6251
g3
sVstars
p6252
(lp6253
sVyear
p6254
g3
sVgenre
p6255
(lp6256
sVtrailer
p6257
(lp6258
sVmetadata
p6259
(dp6260
Vasp_retio
p6261
g3
sVsound_mix
p6262
(lp6263
sVgross
p6264
g3
sVcountries
p6265
(lp6266
sVbudget
p6267
g3
sVlanguages
p6268
(lp6269
sVfilming_locations
p6270
(lp6271
sValso_known_as
p6272
(lp6273
ssa(dp6274
Vrating
p6275
g3
sVdescription
p6276
g3
sVtitle
p6277
g3
sVurl
p6278
(dp6279
Vurl
p6280
Vhttp://www.imdb.com/title/tt9880
p6281
ssVposter
p6282
(dp6283
Vlarge
p6284
V_V1_.jpg
p6285
sVthumb
p6286
g3
ssVrelease_date
p6287
g3
sVcontent_rating
p6288
g3
sVoriginal_title
p6289
g3
sVwriters
p6290
(lp6291
sVimdb_id
p6292
g3
sVdirector
p6293
g3
sVcast
p6294
(lp6295
sVlength
p6296
g3
sVrating_count
p6297
g3
sVstoryline
p6298
g3
sVstars
p6299
(lp6300
sVyear
p6301
g3
sVgenre
p6302
(lp6303
sVtrailer
p6304
(lp6305
sVmetadata
p6306
(dp6307
Vasp_retio
p6308
g3
sVsound_mix
p6309
(lp6310
sVgross
p6311
g3
sVcountries
p6312
(lp6313
sVbudget
p6314
g3
sVlanguages
p6315
(lp6316
sVfilming_locations
p6317
(lp6318
sValso_known_as
p6319
(lp6320
ssa(dp6321
Vrating
p6322
g3
sVdescription
p6323
g3
sVtitle
p6324
g3
sVurl
p6325
(dp6326
Vurl
p6327
Vhttp://www.imdb.com/title/tt9881
p6328
ssVposter
p6329
(dp6330
Vlarge
p6331
V_V1_.jpg
p6332
sVthumb
p6333
g3
ssVrelease_date
p6334
g3
sVcontent_rating
p6335
g3
sVoriginal_title
p6336
g3
sVwriters
p6337
(lp6338
sVimdb_id
p6339
g3
sVdirector
p6340
g3
sVcast
p6341
(lp6342
sVlength
p6343
g3
sVrating_count
p6344
g3
sVstoryline
p6345
g3
sVstars
p6346
(lp6347
sVyear
p6348
g3
sVgenre
p6349
(lp6350
sVtrailer
p6351
(lp6352
sVmetadata
p6353
(dp6354
Vasp_retio
p6355
g3
sVsound_mix
p6356
(lp6357
sVgross
p6358
g3
sVcountries
p6359
(lp6360
sVbudget
p6361
g3
sVlanguages
p6362
(lp6363
sVfilming_locations
p6364
(lp6365
sValso_known_as
p6366
(lp6367
ssa(dp6368
Vrating
p6369
g3
sVdescription
p6370
g3
sVtitle
p6371
g3
sVurl
p6372
(dp6373
Vurl
p6374
Vhttp://www.imdb.com/title/tt9882
p6375
ssVposter
p6376
(dp6377
Vlarge
p6378
V_V1_.jpg
p6379
sVthumb
p6380
g3
ssVrelease_date
p6381
g3
sVcontent_rating
p6382
g3
sVoriginal_title
p6383
g3
sVwriters
p6384
(lp6385
sVimdb_id
p6386
g3
sVdirector
p6387
g3
sVcast
p6388
(lp6389
sVlength
p6390
g3
sVrating_count
p6391
g3
sVstoryline
p6392
g3
sVstars
p6393
(lp6394
sVyear
p6395
g3
sVgenre
p6396
(lp6397
sVtrailer
p6398
(lp6399
sVmetadata
p6400
(dp6401
Vasp_retio
p6402
g3
sVsound_mix
p6403
(lp6404
sVgross
p6405
g3
sVcountries
p6406
(lp6407
sVbudget
p6408
g3
sVlanguages
p6409
(lp6410
sVfilming_locations
p6411
(lp6412
sValso_known_as
p6413
(lp6414
ssa(dp6415
Vrating
p6416
g3
sVdescription
p6417
g3
sVtitle
p6418
g3
sVurl
p6419
(dp6420
Vurl
p6421
Vhttp://www.imdb.com/title/tt9883
p6422
ssVposter
p6423
(dp6424
Vlarge
p6425
V_V1_.jpg
p6426
sVthumb
p6427
g3
ssVrelease_date
p6428
g3
sVcontent_rating
p6429
g3
sVoriginal_title
p6430
g3
sVwriters
p6431
(lp6432
sVimdb_id
p6433
g3
sVdirector
p6434
g3
sVcast
p6435
(lp6436
sVlength
p6437
g3
sVrating_count
p6438
g3
sVstoryline
p6439
g3
sVstars
p6440
(lp6441
sVyear
p6442
g3
sVgenre
p6443
(lp6444
sVtrailer
p6445
(lp6446
sVmetadata
p6447
(dp6448
Vasp_retio
p6449
g3
sVsound_mix
p6450
(lp6451
sVgross
p6452
g3
sVcountries
p6453
(lp6454
sVbudget
p6455
g3
sVlanguages
p6456
(lp6457
sVfilming_locations
p6458
(lp6459
sValso_known_as
p6460
(lp6461
ssa(dp6462
Vrating
p6463
g3
sVdescription
p6464
g3
sVtitle
p6465
g3
sVurl
p6466
(dp6467
Vurl
p6468
Vhttp://www.imdb.com/title/tt9884
p6469
ssVposter
p6470
(dp6471
Vlarge
p6472
V_V1_.jpg
p6473
sVthumb
p6474
g3
ssVrelease_date
p6475
g3
sVcontent_rating
p6476
g3
sVoriginal_title
p6477
g3
sVwriters
p6478
(lp6479
sVimdb_id
p6480
g3
sVdirector
p6481
g3
sVcast
p6482
(lp6483
sVlength
p6484
g3
sVrating_count
p6485
g3
sVstoryline
p6486
g3
sVstars
p6487
(lp6488
sVyear
p6489
g3
sVgenre
p6490
(lp6491
sVtrailer
p6492
(lp6493
sVmetadata
p6494
(dp6495
Vasp_retio
p6496
g3
sVsound_mix
p6497
(lp6498
sVgross
p6499
g3
sVcountries
p6500
(lp6501
sVbudget
p6502
g3
sVlanguages
p6503
(lp6504
sVfilming_locations
p6505
(lp6506
sValso_known_as
p6507
(lp6508
ssa(dp6509
Vrating
p6510
g3
sVdescription
p6511
g3
sVtitle
p6512
g3
sVurl
p6513
(dp6514
Vurl
p6515
Vhttp://www.imdb.com/title/tt9885
p6516
ssVposter
p6517
(dp6518
Vlarge
p6519
V_V1_.jpg
p6520
sVthumb
p6521
g3
ssVrelease_date
p6522
g3
sVcontent_rating
p6523
g3
sVoriginal_title
p6524
g3
sVwriters
p6525
(lp6526
sVimdb_id
p6527
g3
sVdirector
p6528
g3
sVcast
p6529
(lp6530
sVlength
p6531
g3
sVrating_count
p6532
g3
sVstoryline
p6533
g3
sVstars
p6534
(lp6535
sVyear
p6536
g3
sVgenre
p6537
(lp6538
sVtrailer
p6539
(lp6540
sVmetadata
p6541
(dp6542
Vasp_retio
p6543
g3
sVsound_mix
p6544
(lp6545
sVgross
p6546
g3
sVcountries
p6547
(lp6548
sVbudget
p6549
g3
sVlanguages
p6550
(lp6551
sVfilming_locations
p6552
(lp6553
sValso_known_as
p6554
(lp6555
ssa(dp6556
Vrating
p6557
g3
sVdescription
p6558
g3
sVtitle
p6559
g3
sVurl
p6560
(dp6561
Vurl
p6562
Vhttp://www.imdb.com/title/tt9886
p6563
ssVposter
p6564
(dp6565
Vlarge
p6566
V_V1_.jpg
p6567
sVthumb
p6568
g3
ssVrelease_date
p6569
g3
sVcontent_rating
p6570
g3
sVoriginal_title
p6571
g3
sVwriters
p6572
(lp6573
sVimdb_id
p6574
g3
sVdirector
p6575
g3
sVcast
p6576
(lp6577
sVlength
p6578
g3
sVrating_count
p6579
g3
sVstoryline
p6580
g3
sVstars
p6581
(lp6582
sVyear
p6583
g3
sVgenre
p6584
(lp6585
sVtrailer
p6586
(lp6587
sVmetadata
p6588
(dp6589
Vasp_retio
p6590
g3
sVsound_mix
p6591
(lp6592
sVgross
p6593
g3
sVcountries
p6594
(lp6595
sVbudget
p6596
g3
sVlanguages
p6597
(lp6598
sVfilming_locations
p6599
(lp6600
sValso_known_as
p6601
(lp6602
ssa(dp6603
Vrating
p6604
g3
sVdescription
p6605
g3
sVtitle
p6606
g3
sVurl
p6607
(dp6608
Vurl
p6609
Vhttp://www.imdb.com/title/tt9887
p6610
ssVposter
p6611
(dp6612
Vlarge
p6613
V_V1_.jpg
p6614
sVthumb
p6615
g3
ssVrelease_date
p6616
g3
sVcontent_rating
p6617
g3
sVoriginal_title
p6618
g3
sVwriters
p6619
(lp6620
sVimdb_id
p6621
g3
sVdirector
p6622
g3
sVcast
p6623
(lp6624
sVlength
p6625
g3
sVrating_count
p6626
g3
sVstoryline
p6627
g3
sVstars
p6628
(lp6629
sVyear
p6630
g3
sVgenre
p6631
(lp6632
sVtrailer
p6633
(lp6634
sVmetadata
p6635
(dp6636
Vasp_retio
p6637
g3
sVsound_mix
p6638
(lp6639
sVgross
p6640
g3
sVcountries
p6641
(lp6642
sVbudget
p6643
g3
sVlanguages
p6644
(lp6645
sVfilming_locations
p6646
(lp6647
sValso_known_as
p6648
(lp6649
ssa(dp6650
Vrating
p6651
g3
sVdescription
p6652
g3
sVtitle
p6653
g3
sVurl
p6654
(dp6655
Vurl
p6656
Vhttp://www.imdb.com/title/tt9888
p6657
ssVposter
p6658
(dp6659
Vlarge
p6660
V_V1_.jpg
p6661
sVthumb
p6662
g3
ssVrelease_date
p6663
g3
sVcontent_rating
p6664
g3
sVoriginal_title
p6665
g3
sVwriters
p6666
(lp6667
sVimdb_id
p6668
g3
sVdirector
p6669
g3
sVcast
p6670
(lp6671
sVlength
p6672
g3
sVrating_count
p6673
g3
sVstoryline
p6674
g3
sVstars
p6675
(lp6676
sVyear
p6677
g3
sVgenre
p6678
(lp6679
sVtrailer
p6680
(lp6681
sVmetadata
p6682
(dp6683
Vasp_retio
p6684
g3
sVsound_mix
p6685
(lp6686
sVgross
p6687
g3
sVcountries
p6688
(lp6689
sVbudget
p6690
g3
sVlanguages
p6691
(lp6692
sVfilming_locations
p6693
(lp6694
sValso_known_as
p6695
(lp6696
ssa(dp6697
Vrating
p6698
g3
sVdescription
p6699
g3
sVtitle
p6700
g3
sVurl
p6701
(dp6702
Vurl
p6703
Vhttp://www.imdb.com/title/tt9889
p6704
ssVposter
p6705
(dp6706
Vlarge
p6707
V_V1_.jpg
p6708
sVthumb
p6709
g3
ssVrelease_date
p6710
g3
sVcontent_rating
p6711
g3
sVoriginal_title
p6712
g3
sVwriters
p6713
(lp6714
sVimdb_id
p6715
g3
sVdirector
p6716
g3
sVcast
p6717
(lp6718
sVlength
p6719
g3
sVrating_count
p6720
g3
sVstoryline
p6721
g3
sVstars
p6722
(lp6723
sVyear
p6724
g3
sVgenre
p6725
(lp6726
sVtrailer
p6727
(lp6728
sVmetadata
p6729
(dp6730
Vasp_retio
p6731
g3
sVsound_mix
p6732
(lp6733
sVgross
p6734
g3
sVcountries
p6735
(lp6736
sVbudget
p6737
g3
sVlanguages
p6738
(lp6739
sVfilming_locations
p6740
(lp6741
sValso_known_as
p6742
(lp6743
ssa(dp6744
Vrating
p6745
g3
sVdescription
p6746
g3
sVtitle
p6747
g3
sVurl
p6748
(dp6749
Vurl
p6750
Vhttp://www.imdb.com/title/tt9890
p6751
ssVposter
p6752
(dp6753
Vlarge
p6754
V_V1_.jpg
p6755
sVthumb
p6756
g3
ssVrelease_date
p6757
g3
sVcontent_rating
p6758
g3
sVoriginal_title
p6759
g3
sVwriters
p6760
(lp6761
sVimdb_id
p6762
g3
sVdirector
p6763
g3
sVcast
p6764
(lp6765
sVlength
p6766
g3
sVrating_count
p6767
g3
sVstoryline
p6768
g3
sVstars
p6769
(lp6770
sVyear
p6771
g3
sVgenre
p6772
(lp6773
sVtrailer
p6774
(lp6775
sVmetadata
p6776
(dp6777
Vasp_retio
p6778
g3
sVsound_mix
p6779
(lp6780
sVgross
p6781
g3
sVcountries
p6782
(lp6783
sVbudget
p6784
g3
sVlanguages
p6785
(lp6786
sVfilming_locations
p6787
(lp6788
sValso_known_as
p6789
(lp6790
ssa(dp6791
Vrating
p6792
g3
sVdescription
p6793
g3
sVtitle
p6794
g3
sVurl
p6795
(dp6796
Vurl
p6797
Vhttp://www.imdb.com/title/tt9891
p6798
ssVposter
p6799
(dp6800
Vlarge
p6801
V_V1_.jpg
p6802
sVthumb
p6803
g3
ssVrelease_date
p6804
g3
sVcontent_rating
p6805
g3
sVoriginal_title
p6806
g3
sVwriters
p6807
(lp6808
sVimdb_id
p6809
g3
sVdirector
p6810
g3
sVcast
p6811
(lp6812
sVlength
p6813
g3
sVrating_count
p6814
g3
sVstoryline
p6815
g3
sVstars
p6816
(lp6817
sVyear
p6818
g3
sVgenre
p6819
(lp6820
sVtrailer
p6821
(lp6822
sVmetadata
p6823
(dp6824
Vasp_retio
p6825
g3
sVsound_mix
p6826
(lp6827
sVgross
p6828
g3
sVcountries
p6829
(lp6830
sVbudget
p6831
g3
sVlanguages
p6832
(lp6833
sVfilming_locations
p6834
(lp6835
sValso_known_as
p6836
(lp6837
ssa(dp6838
Vrating
p6839
g3
sVdescription
p6840
g3
sVtitle
p6841
g3
sVurl
p6842
(dp6843
Vurl
p6844
Vhttp://www.imdb.com/title/tt9892
p6845
ssVposter
p6846
(dp6847
Vlarge
p6848
V_V1_.jpg
p6849
sVthumb
p6850
g3
ssVrelease_date
p6851
g3
sVcontent_rating
p6852
g3
sVoriginal_title
p6853
g3
sVwriters
p6854
(lp6855
sVimdb_id
p6856
g3
sVdirector
p6857
g3
sVcast
p6858
(lp6859
sVlength
p6860
g3
sVrating_count
p6861
g3
sVstoryline
p6862
g3
sVstars
p6863
(lp6864
sVyear
p6865
g3
sVgenre
p6866
(lp6867
sVtrailer
p6868
(lp6869
sVmetadata
p6870
(dp6871
Vasp_retio
p6872
g3
sVsound_mix
p6873
(lp6874
sVgross
p6875
g3
sVcountries
p6876
(lp6877
sVbudget
p6878
g3
sVlanguages
p6879
(lp6880
sVfilming_locations
p6881
(lp6882
sValso_known_as
p6883
(lp6884
ssa(dp6885
Vrating
p6886
g3
sVdescription
p6887
g3
sVtitle
p6888
g3
sVurl
p6889
(dp6890
Vurl
p6891
Vhttp://www.imdb.com/title/tt9893
p6892
ssVposter
p6893
(dp6894
Vlarge
p6895
V_V1_.jpg
p6896
sVthumb
p6897
g3
ssVrelease_date
p6898
g3
sVcontent_rating
p6899
g3
sVoriginal_title
p6900
g3
sVwriters
p6901
(lp6902
sVimdb_id
p6903
g3
sVdirector
p6904
g3
sVcast
p6905
(lp6906
sVlength
p6907
g3
sVrating_count
p6908
g3
sVstoryline
p6909
g3
sVstars
p6910
(lp6911
sVyear
p6912
g3
sVgenre
p6913
(lp6914
sVtrailer
p6915
(lp6916
sVmetadata
p6917
(dp6918
Vasp_retio
p6919
g3
sVsound_mix
p6920
(lp6921
sVgross
p6922
g3
sVcountries
p6923
(lp6924
sVbudget
p6925
g3
sVlanguages
p6926
(lp6927
sVfilming_locations
p6928
(lp6929
sValso_known_as
p6930
(lp6931
ssa(dp6932
Vrating
p6933
g3
sVdescription
p6934
g3
sVtitle
p6935
g3
sVurl
p6936
(dp6937
Vurl
p6938
Vhttp://www.imdb.com/title/tt9894
p6939
ssVposter
p6940
(dp6941
Vlarge
p6942
V_V1_.jpg
p6943
sVthumb
p6944
g3
ssVrelease_date
p6945
g3
sVcontent_rating
p6946
g3
sVoriginal_title
p6947
g3
sVwriters
p6948
(lp6949
sVimdb_id
p6950
g3
sVdirector
p6951
g3
sVcast
p6952
(lp6953
sVlength
p6954
g3
sVrating_count
p6955
g3
sVstoryline
p6956
g3
sVstars
p6957
(lp6958
sVyear
p6959
g3
sVgenre
p6960
(lp6961
sVtrailer
p6962
(lp6963
sVmetadata
p6964
(dp6965
Vasp_retio
p6966
g3
sVsound_mix
p6967
(lp6968
sVgross
p6969
g3
sVcountries
p6970
(lp6971
sVbudget
p6972
g3
sVlanguages
p6973
(lp6974
sVfilming_locations
p6975
(lp6976
sValso_known_as
p6977
(lp6978
ssa(dp6979
Vrating
p6980
g3
sVdescription
p6981
g3
sVtitle
p6982
g3
sVurl
p6983
(dp6984
Vurl
p6985
Vhttp://www.imdb.com/title/tt9895
p6986
ssVposter
p6987
(dp6988
Vlarge
p6989
V_V1_.jpg
p6990
sVthumb
p6991
g3
ssVrelease_date
p6992
g3
sVcontent_rating
p6993
g3
sVoriginal_title
p6994
g3
sVwriters
p6995
(lp6996
sVimdb_id
p6997
g3
sVdirector
p6998
g3
sVcast
p6999
(lp7000
sVlength
p7001
g3
sVrating_count
p7002
g3
sVstoryline
p7003
g3
sVstars
p7004
(lp7005
sVyear
p7006
g3
sVgenre
p7007
(lp7008
sVtrailer
p7009
(lp7010
sVmetadata
p7011
(dp7012
Vasp_retio
p7013
g3
sVsound_mix
p7014
(lp7015
sVgross
p7016
g3
sVcountries
p7017
(lp7018
sVbudget
p7019
g3
sVlanguages
p7020
(lp7021
sVfilming_locations
p7022
(lp7023
sValso_known_as
p7024
(lp7025
ssa(dp7026
Vrating
p7027
g3
sVdescription
p7028
g3
sVtitle
p7029
g3
sVurl
p7030
(dp7031
Vurl
p7032
Vhttp://www.imdb.com/title/tt9896
p7033
ssVposter
p7034
(dp7035
Vlarge
p7036
V_V1_.jpg
p7037
sVthumb
p7038
g3
ssVrelease_date
p7039
g3
sVcontent_rating
p7040
g3
sVoriginal_title
p7041
g3
sVwriters
p7042
(lp7043
sVimdb_id
p7044
g3
sVdirector
p7045
g3
sVcast
p7046
(lp7047
sVlength
p7048
g3
sVrating_count
p7049
g3
sVstoryline
p7050
g3
sVstars
p7051
(lp7052
sVyear
p7053
g3
sVgenre
p7054
(lp7055
sVtrailer
p7056
(lp7057
sVmetadata
p7058
(dp7059
Vasp_retio
p7060
g3
sVsound_mix
p7061
(lp7062
sVgross
p7063
g3
sVcountries
p7064
(lp7065
sVbudget
p7066
g3
sVlanguages
p7067
(lp7068
sVfilming_locations
p7069
(lp7070
sValso_known_as
p7071
(lp7072
ssa(dp7073
Vrating
p7074
g3
sVdescription
p7075
g3
sVtitle
p7076
g3
sVurl
p7077
(dp7078
Vurl
p7079
Vhttp://www.imdb.com/title/tt9897
p7080
ssVposter
p7081
(dp7082
Vlarge
p7083
V_V1_.jpg
p7084
sVthumb
p7085
g3
ssVrelease_date
p7086
g3
sVcontent_rating
p7087
g3
sVoriginal_title
p7088
g3
sVwriters
p7089
(lp7090
sVimdb_id
p7091
g3
sVdirector
p7092
g3
sVcast
p7093
(lp7094
sVlength
p7095
g3
sVrating_count
p7096
g3
sVstoryline
p7097
g3
sVstars
p7098
(lp7099
sVyear
p7100
g3
sVgenre
p7101
(lp7102
sVtrailer
p7103
(lp7104
sVmetadata
p7105
(dp7106
Vasp_retio
p7107
g3
sVsound_mix
p7108
(lp7109
sVgross
p7110
g3
sVcountries
p7111
(lp7112
sVbudget
p7113
g3
sVlanguages
p7114
(lp7115
sVfilming_locations
p7116
(lp7117
sValso_known_as
p7118
(lp7119
ssa(dp7120
Vrating
p7121
g3
sVdescription
p7122
g3
sVtitle
p7123
g3
sVurl
p7124
(dp7125
Vurl
p7126
Vhttp://www.imdb.com/title/tt9898
p7127
ssVposter
p7128
(dp7129
Vlarge
p7130
V_V1_.jpg
p7131
sVthumb
p7132
g3
ssVrelease_date
p7133
g3
sVcontent_rating
p7134
g3
sVoriginal_title
p7135
g3
sVwriters
p7136
(lp7137
sVimdb_id
p7138
g3
sVdirector
p7139
g3
sVcast
p7140
(lp7141
sVlength
p7142
g3
sVrating_count
p7143
g3
sVstoryline
p7144
g3
sVstars
p7145
(lp7146
sVyear
p7147
g3
sVgenre
p7148
(lp7149
sVtrailer
p7150
(lp7151
sVmetadata
p7152
(dp7153
Vasp_retio
p7154
g3
sVsound_mix
p7155
(lp7156
sVgross
p7157
g3
sVcountries
p7158
(lp7159
sVbudget
p7160
g3
sVlanguages
p7161
(lp7162
sVfilming_locations
p7163
(lp7164
sValso_known_as
p7165
(lp7166
ssa(dp7167
Vrating
p7168
g3
sVdescription
p7169
g3
sVtitle
p7170
g3
sVurl
p7171
(dp7172
Vurl
p7173
Vhttp://www.imdb.com/title/tt9899
p7174
ssVposter
p7175
(dp7176
Vlarge
p7177
V_V1_.jpg
p7178
sVthumb
p7179
g3
ssVrelease_date
p7180
g3
sVcontent_rating
p7181
g3
sVoriginal_title
p7182
g3
sVwriters
p7183
(lp7184
sVimdb_id
p7185
g3
sVdirector
p7186
g3
sVcast
p7187
(lp7188
sVlength
p7189
g3
sVrating_count
p7190
g3
sVstoryline
p7191
g3
sVstars
p7192
(lp7193
sVyear
p7194
g3
sVgenre
p7195
(lp7196
sVtrailer
p7197
(lp7198
sVmetadata
p7199
(dp7200
Vasp_retio
p7201
g3
sVsound_mix
p7202
(lp7203
sVgross
p7204
g3
sVcountries
p7205
(lp7206
sVbudget
p7207
g3
sVlanguages
p7208
(lp7209
sVfilming_locations
p7210
(lp7211
sValso_known_as
p7212
(lp7213
ssa.