(lp0
(dp1
Vrating
p2
V
p3
sVdescription
p4
VThe sheriff, Dan Beckham, and his deputy, Bud Cameron, are posting signs offering a reward for the capture of Cheyenne Harry, accused of holding up a Wells Fargo shipment. Shortly after ...\u000a                    See full summary
p5
sVtitle
p6
VBlood Money
p7
sVurl
p8
(dp9
Vurl
p10
Vhttp://www.imdb.com/title/tt6440
p11
ssVposter
p12
(dp13
Vlarge
p14
Vhttp://ia.media-imdb.com/images/G/01/imdb/images/logos/imdb_fb_logo-1730868325._CB514892123_.png_V1_.jpg
p15
sVthumb
p16
g3
ssVrelease_date
p17
V1917-01-06
p18
sVcontent_rating
p19
g3
sVoriginal_title
p20
g3
sVwriters
p21
(lp22
VHarry Carey
p23
asVimdb_id
p24
Vtt0006440
p25
sVdirector
p26
VFred Kelsey
p27
sVcast
p28
(lp29
(dp30
Vlink
p31
Vhttp://www.imdb.com/name/nm0522593/?ref_=tt_cl_t1
p32
sVimage
p33
Vhttps://images-na.ssl-images-amazon.com/images/M/MV5BOTYxNTZjNjEtMzc1My00ZTQ2LTg4MzAtYmVlOTg4NDNmNzZhXkEyXkFqcGdeQXVyMDUyOTUyNQ@@._V1_UY44_CR1,0,32,44_AL_.jpg
p34
sVcharacter
p35
VBelle Blaire
p36
sVname
p37
VLouise Lovely
p38
sa(dp39
Vlink
p40
Vhttp://www.imdb.com/name/nm0002503/?ref_=tt_cl_t2
p41
sVimage
p42
Vhttps://images-na.ssl-images-amazon.com/images/M/MV5BODI2MDY3OTExNV5BMl5BanBnXkFtZTcwNjM2NDg5Nw@@._V1_UY44_CR1,0,32,44_AL_.jpg
p43
sVcharacter
p44
VCheyenne Harry
p45
sVname
p46
VHarry Carey
p47
sa(dp48
Vlink
p49
Vhttp://www.imdb.com/name/nm0724586/?ref_=tt_cl_t3
p50
sVimage
p51
Vhttps://images-na.ssl-images-amazon.com/images/M/MV5BYzViMDU4MzAtMGQ4YS00YmM0LTlhZjItMWIxZTM0Yjc1NTUwXkEyXkFqcGdeQXVyNTUyMTMyMDg@._UY317_CR16,0,214,317_AL_.jpg
p52
sVcharacter
p53
VSam Blaire
p54
sVname
p55
VJack Richardson
p56
sa(dp57
Vlink
p58
Vhttp://www.imdb.com/name/nm0824700/?ref_=tt_cl_t4
p59
sVimage
p60
Vhttps://images-na.ssl-images-amazon.com/images/M/MV5BMjI5NWM1YzMtMTViOC00YWYwLTg4YWQtZDQ4YjAwOTU5Y2U4XkEyXkFqcGdeQXVyMzI5NDcxNzI@._UY317_CR16,0,214,317_AL_.jpg
p61
sVcharacter
p62
VDan Beckham       (as William Gettinger)
p63
sVname
p64
VWilliam Steele
p65
sa(dp66
Vlink
p67
Vhttp://www.imdb.com/name/nm0670409/?ref_=tt_cl_t5
p68
sVimage
p69
g3
sVcharacter
p70
VBud Cameron
p71
sVname
p72
VVester Pegg
p73
sasVlength
p74
g3
sVrating_count
p75
g3
sVstoryline
p76
VThe sheriff, Dan Beckham, and his deputy, Bud Cameron, are posting signs offering a reward for the capture of Cheyenne Harry, accused of holding up a Wells Fargo shipment. Shortly after they have tacked the sign to a tree Cheyenne Harry removes it. He then goes to the camp, enters the saloon, seats himself in the corner and leaves after listening to the sheriff boast of what he will do when he captures Cheyenne Harry. He then mounts his horse, rides into the saloon and compels the men to stack their guns and give up their money. Encamped near a stream are Belle Blaire and her husband, Sam, who is lazy, forces her to do the work. Pursued by the sheriff, Cheyenne's horse stumbles, and he falls into the stream, while the animal goes on to the Blaire camp, and is found by the sheriff. Some time later Cheyenne, wounded, comes to the Blaire camp. Sam takes him prisoner and sends Belle to the sheriff, so that they will get the reward. Belle does not wish to do this, but her husband compels ...
p77
sVstars
p78
(lp79
VLouise Lovely
p80
aVHarry Carey
p81
aVJack Richardson
p82
asVyear
p83
V1917
p84
sVgenre
p85
(lp86
VShort
p87
aVWestern
p88
asVtrailer
p89
(lp90
sVmetadata
p91
(dp92
Vasp_retio
p93
V1.33 : 1
p94
sVsound_mix
p95
(lp96
VSilent
p97
asVgross
p98
g3
sVcountries
p99
(lp100
VUSA
p101
asVbudget
p102
g3
sVlanguages
p103
(lp104
sVfilming_locations
p105
(lp106
sValso_known_as
p107
(lp108
ssa(dp109
Vrating
p110
g3
sVdescription
p111
VWhen spoiled playboy Algernon DePont gets thrown out of Harvard, his father throws him off the family estate. Algernon proceeds to take his butler and drive out West looking for adventure. ...\u000a                    See full summary
p112
sVtitle
p113
VBlue Blood and Red
p114
sVurl
p115
(dp116
Vurl
p117
Vhttp://www.imdb.com/title/tt6441
p118
ssVposter
p119
(dp120
Vlarge
p121
Vhttps://images-na.ssl-images-amazon.com/images/M/MV5BZTY1YmQ0ZDItYWY5Zi00MGFiLWEyNDUtNDZkZmVmOTE2ODMyXkEyXkFqcGdeQXVyMjUxODE0MDY@._V1_.jpg
p122
sVthumb
p123
Vhttps://images-na.ssl-images-amazon.com/images/M/MV5BZTY1YmQ0ZDItYWY5Zi00MGFiLWEyNDUtNDZkZmVmOTE2ODMyXkEyXkFqcGdeQXVyMjUxODE0MDY@._V1_UY268_CR14,0,182,268_AL_.jpg
p124
ssVrelease_date
p125
V1916-04-02
p126
sVcontent_rating
p127
g3
sVoriginal_title
p128
g3
sVwriters
p129
(lp130
VRaoul Walsh
p131
aVRaoul Walsh
p132
asVimdb_id
p133
Vtt0006441
p134
sVdirector
p135
VRaoul Walsh
p136
sVcast
p137
(lp138
(dp139
Vlink
p140
Vhttp://www.imdb.com/name/nm0909648/?ref_=tt_cl_t1
p141
sVimage
p142
Vhttps://images-na.ssl-images-amazon.com/images/M/MV5BMTcyOTZmNmQtZDk4Yy00NjA4LTgyMzMtMTQ3MWM2NmRkMGVjXkEyXkFqcGdeQXVyMzI5NDcxNzI@._V1_UY44_CR3,0,32,44_AL_.jpg
p143
sVcharacter
p144
VAlgernon DuPont
p145
sVname
p146
VGeorge Walsh
p147
sa(dp148
Vlink
p149
Vhttp://www.imdb.com/name/nm0455748/?ref_=tt_cl_t2
p150
sVimage
p151
g3
sVcharacter
p152
VPeterkin
p153
sVname
p154
VMartin Kinney
p155
sa(dp156
Vlink
p157
Vhttp://www.imdb.com/name/nm0668084/?ref_=tt_cl_t3
p158
sVimage
p159
Vhttps://images-na.ssl-images-amazon.com/images/M/MV5BNWJmMWY5NTEtOTFjNC00NDlhLWEwZTktMWM4YTYwYjdmZjJlL2ltYWdlL2ltYWdlXkEyXkFqcGdeQXVyMzI5NDcxNzI@._V1_UY44_CR1,0,32,44_AL_.jpg
p160
sVcharacter
p161
g3
sVname
p162
VDoris Pawn
p163
sa(dp164
Vlink
p165
Vhttp://www.imdb.com/name/nm0546121/?ref_=tt_cl_t4
p166
sVimage
p167
Vhttps://images-na.ssl-images-amazon.com/images/M/MV5BOTRjNDU0MmEtNmZhMi00NTk2LWE0NWUtNTNmZjBjMDNlZDg3XkEyXkFqcGdeQXVyMDI2NDg0NQ@@._V1_UY44_CR12,0,32,44_AL_.jpg
p168
sVcharacter
p169
V(as James Marcus)
p170
sVname
p171
VJames A. Marcus
p172
sa(dp173
Vlink
p174
Vhttp://www.imdb.com/name/nm0940629/?ref_=tt_cl_t5
p175
sVimage
p176
g3
sVcharacter
p177
g3
sVname
p178
VJack Woods
p179
sa(dp180
Vlink
p181
Vhttp://www.imdb.com/name/nm0138771/?ref_=tt_cl_t6
p182
sVimage
p183
Vhttps://images-na.ssl-images-amazon.com/images/M/MV5BODk0ZTEwMWUtNmJkZi00Y2FjLTgzNzMtMzE3OWVmODNmOTk5XkEyXkFqcGdeQXVyMDUyOTUyNQ@@._UY317_CR16,0,214,317_AL_.jpg
p184
sVcharacter
p185
g3
sVname
p186
VAugustus Carney
p187
sa(dp188
Vlink
p189
Vhttp://www.imdb.com/name/nm0670409/?ref_=tt_cl_t7
p190
sVimage
p191
g3
sVcharacter
p192
g3
sVname
p193
VVester Pegg
p194
sasVlength
p195
V50
p196
sVrating_count
p197
g3
sVstoryline
p198
VWhen spoiled playboy Algernon DePont gets thrown out of Harvard, his father throws him off the family estate. Algernon proceeds to take his butler and drive out West looking for adventure. He finds it when he falls in love with the daughter of a cattle rancher and finds himself the target of a lynch mob.
p199
sVstars
p200
(lp201
VGeorge Walsh
p202
aVMartin Kinney
p203
aVDoris Pawn
p204
asVyear
p205
V1916
p206
sVgenre
p207
(lp208
VComedy
p209
aVWestern
p210
asVtrailer
p211
(lp212
sVmetadata
p213
(dp214
Vasp_retio
p215
V1.33 : 1
p216
sVsound_mix
p217
(lp218
VSilent
p219
asVgross
p220
g3
sVcountries
p221
(lp222
VUSA
p223
asVbudget
p224
g3
sVlanguages
p225
(lp226
sVfilming_locations
p227
(lp228
sValso_known_as
p229
(lp230
VSangue blu e sangue rosso
p231
assa(dp232
Vrating
p233
g3
sVdescription
p234
g3
sVtitle
p235
VThe Blue Envelope Mystery
p236
sVurl
p237
(dp238
Vurl
p239
Vhttp://www.imdb.com/title/tt6442
p240
ssVposter
p241
(dp242
Vlarge
p243
Vhttp://ia.media-imdb.com/images/G/01/imdb/images/logos/imdb_fb_logo-1730868325._CB514892123_.png_V1_.jpg
p244
sVthumb
p245
g3
ssVrelease_date
p246
V1916-10-23
p247
sVcontent_rating
p248
g3
sVoriginal_title
p249
g3
sVwriters
p250
(lp251
VHelen Duey
p252
aVSophie Kerr
p253
asVimdb_id
p254
Vtt0006442
p255
sVdirector
p256
VWilfrid North
p257
sVcast
p258
(lp259
(dp260
Vlink
p261
Vhttp://www.imdb.com/name/nm0907973/?ref_=tt_cl_t1
p262
sVimage
p263
Vhttps://images-na.ssl-images-amazon.com/images/M/MV5BZGI4Y2IwZjUtYzFjZS00OGYzLWFhY2UtNjUwNDZmMzlkZGM3L2ltYWdlL2ltYWdlXkEyXkFqcGdeQXVyMDUyOTUyNQ@@._UY317_CR16,0,214,317_AL_.jpg
p264
sVcharacter
p265
VLeslie Brennan
p266
sVname
p267
VLillian Walker
p268
sa(dp269
Vlink
p270
Vhttp://www.imdb.com/name/nm0071845/?ref_=tt_cl_t2
p271
sVimage
p272
g3
sVcharacter
p273
VEwen Kennedy       (as John D. Bennet)
p274
sVname
p275
VJohn Drew Bennett
p276
sa(dp277
Vlink
p278
Vhttp://www.imdb.com/name/nm0370471/?ref_=tt_cl_t3
p279
sVimage
p280
g3
sVcharacter
p281
VHarry Heath
p282
sVname
p283
VBob Hay
p284
sa(dp285
Vlink
p286
Vhttp://www.imdb.com/name/nm0448682/?ref_=tt_cl_t4
p287
sVimage
p288
Vhttps://images-na.ssl-images-amazon.com/images/M/MV5BYzFlMDE3ZWQtZDM0NC00OTMwLThmYjYtOTY5OWY3YzYwZWQxXkEyXkFqcGdeQXVyMzI5NDcxNzI@._V1_UY44_CR2,0,32,44_AL_.jpg
p289
sVcharacter
p290
VUncle Bob
p291
sVname
p292
VCharles Kent
p293
sa(dp294
Vlink
p295
Vhttp://www.imdb.com/name/nm0247330/?ref_=tt_cl_t5
p296
sVimage
p297
g3
sVcharacter
p298
VMiss Lacy
p299
sVname
p300
VJosephine Earle
p301
sa(dp302
Vlink
p303
Vhttp://www.imdb.com/name/nm0636132/?ref_=tt_cl_t6
p304
sVimage
p305
Vhttps://images-na.ssl-images-amazon.com/images/M/MV5BYTk3NDhiODktZTRjNC00ODI2LTk2YWYtZWJmNzBlOWVmYjJiXkEyXkFqcGdeQXVyMDUyOTUyNQ@@._V1_UY44_CR0,0,32,44_AL_.jpg
p306
sVcharacter
p307
VFischer
p308
sVname
p309
VHarry Northrup
p310
sa(dp311
Vlink
p312
Vhttp://www.imdb.com/name/nm0705627/?ref_=tt_cl_t7
p313
sVimage
p314
g3
sVcharacter
p315
VMrs. Davis
p316
sVname
p317
VFlorence Radinoff
p318
sa(dp319
Vlink
p320
Vhttp://www.imdb.com/name/nm0922106/?ref_=tt_cl_t8
p321
sVimage
p322
g3
sVcharacter
p323
VMrs. Harris       (as Isabelle West)
p324
sVname
p325
VIsabel West
p326
sa(dp327
Vlink
p328
Vhttp://www.imdb.com/name/nm0790360/?ref_=tt_cl_t9
p329
sVimage
p330
Vhttps://images-na.ssl-images-amazon.com/images/M/MV5BODk4MjIyOTc1NV5BMl5BanBnXkFtZTcwOTk1MDczMQ@@._UY317_CR16,0,214,317_AL_.jpg
p331
sVcharacter
p332
VGeorge
p333
sVname
p334
VWilliam Shea
p335
sasVlength
p336
g3
sVrating_count
p337
g3
sVstoryline
p338
g3
sVstars
p339
(lp340
VLillian Walker
p341
aVJohn Drew Bennett
p342
aVBob Hay
p343
asVyear
p344
V1916
p345
sVgenre
p346
(lp347
VDrama
p348
asVtrailer
p349
(lp350
sVmetadata
p351
(dp352
Vasp_retio
p353
V1.33 : 1
p354
sVsound_mix
p355
(lp356
VSilent
p357
asVgross
p358
g3
sVcountries
p359
(lp360
VUSA
p361
asVbudget
p362
g3
sVlanguages
p363
(lp364
VEnglish
p365
asVfilming_locations
p366
(lp367
sValso_known_as
p368
(lp369
ssa(dp370
Vrating
p371
g3
sVdescription
p372
VYoung ballet dancer Bobbie Brent has lost her parents and must care for herself and her younger brother and sister. In order to keep the children, she pretends that they are her own ...\u000a                    See full summary
p373
sVtitle
p374
VBobbie of the Ballet
p375
sVurl
p376
(dp377
Vurl
p378
Vhttp://www.imdb.com/title/tt6443
p379
ssVposter
p380
(dp381
Vlarge
p382
Vhttps://images-na.ssl-images-amazon.com/images/M/MV5BMjM0OTU1MDA3OF5BMl5BanBnXkFtZTgwMzYzNjI1NDE@._V1_.jpg
p383
sVthumb
p384
Vhttps://images-na.ssl-images-amazon.com/images/M/MV5BMjM0OTU1MDA3OF5BMl5BanBnXkFtZTgwMzYzNjI1NDE@._V1_UY268_CR4,0,182,268_AL_.jpg
p385
ssVrelease_date
p386
V1916-06-12
p387
sVcontent_rating
p388
g3
sVoriginal_title
p389
g3
sVwriters
p390
(lp391
VGrant Carpenter
p392
aVIda May Park
p393
asVimdb_id
p394
Vtt0006443
p395
sVdirector
p396
VJoseph De Grasse
p397
sVcast
p398
(lp399
(dp400
Vlink
p401
Vhttp://www.imdb.com/name/nm0522593/?ref_=tt_cl_t1
p402
sVimage
p403
Vhttps://images-na.ssl-images-amazon.com/images/M/MV5BOTYxNTZjNjEtMzc1My00ZTQ2LTg4MzAtYmVlOTg4NDNmNzZhXkEyXkFqcGdeQXVyMDUyOTUyNQ@@._V1_UY44_CR1,0,32,44_AL_.jpg
p404
sVcharacter
p405
VBobbie Brent
p406
sVname
p407
VLouise Lovely
p408
sa(dp409
Vlink
p410
Vhttp://www.imdb.com/name/nm0151606/?ref_=tt_cl_t2
p411
sVimage
p412
Vhttps://images-na.ssl-images-amazon.com/images/M/MV5BMTM1MTg1MDU4OF5BMl5BanBnXkFtZTYwOTkwNjI2._UY317_CR16,0,214,317_AL_.jpg
p413
sVcharacter
p414
VHook Hoover
p415
sVname
p416
VLon Chaney
p417
sa(dp418
Vlink
p419
Vhttp://www.imdb.com/name/nm0067588/?ref_=tt_cl_t3
p420
sVimage
p421
Vhttps://images-na.ssl-images-amazon.com/images/M/MV5BYzYwMTgzNjItYTA2Mi00ZTI3LTkwOWMtYWE3NzE4YjZhYTUxXkEyXkFqcGdeQXVyMzI5NDcxNzI@._UY317_CR16,0,214,317_AL_.jpg
p422
sVcharacter
p423
VJack Stimson
p424
sVname
p425
VJay Belasco
p426
sa(dp427
Vlink
p428
Vhttp://www.imdb.com/name/nm0368875/?ref_=tt_cl_t4
p429
sVimage
p430
Vhttps://images-na.ssl-images-amazon.com/images/M/MV5BMmYwZTUyYzItNDJlMy00N2UwLWFjNGUtZTNkNmE1MDYxZGM3XkEyXkFqcGdeQXVyMDUyOTUyNQ@@._UY317_CR16,0,214,317_AL_.jpg
p431
sVcharacter
p432
VMrs. Stimson
p433
sVname
p434
VJean Hathaway
p435
sa(dp436
Vlink
p437
Vhttp://www.imdb.com/name/nm0496477/?ref_=tt_cl_t5
p438
sVimage
p439
Vhttps://images-na.ssl-images-amazon.com/images/M/MV5BZjNkOTBiZjItZGU1OS00ZTI3LWExZWYtMzdlNGY3YzdiN2VhL2ltYWdlL2ltYWdlXkEyXkFqcGdeQXVyMzI5NDcxNzI@._V1_UY44_CR1,0,32,44_AL_.jpg
p440
sVcharacter
p441
VVelma Vrooman
p442
sVname
p443
VGretchen Lederer
p444
sa(dp445
Vlink
p446
Vhttp://www.imdb.com/name/nm0358692/?ref_=tt_cl_t6
p447
sVimage
p448
g3
sVcharacter
p449
VHenry Fox
p450
sVname
p451
VGilmore Hammond
p452
sa(dp453
Vlink
p454
Vhttp://www.imdb.com/name/nm0913085/?ref_=tt_cl_t7
p455
sVimage
p456
Vhttps://images-na.ssl-images-amazon.com/images/M/MV5BNGNhNjZmNjQtNWVlOS00NDI3LWFhYWYtZDQ5ZDRhYTEwNzU2XkEyXkFqcGdeQXVyMDUyOTUyNQ@@._UY317_CR16,0,214,317_AL_.jpg
p457
sVcharacter
p458
VMrs. Hoover
p459
sVname
p460
VLule Warrenton
p461
sasVlength
p462
g3
sVrating_count
p463
g3
sVstoryline
p464
VYoung ballet dancer Bobbie Brent has lost her parents and must care for herself and her younger brother and sister. In order to keep the children, she pretends that they are her own children and not her siblings. Jack Stinson, her boyfriend, is aghast at this deception and breaks up with her. However, Jack's old girlfriend Velma is still jealous of Bobbie, and comes up with a scheme to get rid of her once and for all so she can have Jack all to herself.
p465
sVstars
p466
(lp467
VLouise Lovely
p468
aVLon Chaney
p469
aVJay Belasco
p470
asVyear
p471
V1916
p472
sVgenre
p473
(lp474
VDrama
p475
asVtrailer
p476
(lp477
sVmetadata
p478
(dp479
Vasp_retio
p480
V1.33 : 1
p481
sVsound_mix
p482
(lp483
VSilent
p484
asVgross
p485
g3
sVcountries
p486
(lp487
VUSA
p488
asVbudget
p489
g3
sVlanguages
p490
(lp491
VEnglish
p492
asVfilming_locations
p493
(lp494
sValso_known_as
p495
(lp496
ssa(dp497
Vrating
p498
V5.0
p499
sVdescription
p500
g3
sVtitle
p501
VBobby Bumps Gets a Substitute
p502
sVurl
p503
(dp504
Vurl
p505
Vhttp://www.imdb.com/title/tt6444
p506
ssVposter
p507
(dp508
Vlarge
p509
Vhttp://ia.media-imdb.com/images/G/01/imdb/images/logos/imdb_fb_logo-1730868325._CB514892123_.png_V1_.jpg
p510
sVthumb
p511
g3
ssVrelease_date
p512
V1916-03-30
p513
sVcontent_rating
p514
g3
sVoriginal_title
p515
g3
sVwriters
p516
(lp517
VEarl Hurd
p518
asVimdb_id
p519
Vtt0006444
p520
sVdirector
p521
VEarl Hurd
p522
sVcast
p523
(lp524
sVlength
p525
g3
sVrating_count
p526
V5
p527
sVstoryline
p528
g3
sVstars
p529
(lp530
sVyear
p531
V1916
p532
sVgenre
p533
(lp534
VAnimation
p535
aVComedy
p536
aVShort
p537
asVtrailer
p538
(lp539
sVmetadata
p540
(dp541
Vasp_retio
p542
g3
sVsound_mix
p543
(lp544
VSilent
p545
asVgross
p546
g3
sVcountries
p547
(lp548
VUSA
p549
asVbudget
p550
g3
sVlanguages
p551
(lp552
sVfilming_locations
p553
(lp554
sValso_known_as
p555
(lp556
ssa(dp557
Vrating
p558
g3
sVdescription
p559
g3
sVtitle
p560
VBobby Bumps Goes Fishing
p561
sVurl
p562
(dp563
Vurl
p564
Vhttp://www.imdb.com/title/tt6445
p565
ssVposter
p566
(dp567
Vlarge
p568
Vhttp://ia.media-imdb.com/images/G/01/imdb/images/logos/imdb_fb_logo-1730868325._CB514892123_.png_V1_.jpg
p569
sVthumb
p570
g3
ssVrelease_date
p571
V1916-06-01
p572
sVcontent_rating
p573
g3
sVoriginal_title
p574
g3
sVwriters
p575
(lp576
VEarl Hurd
p577
asVimdb_id
p578
Vtt0006445
p579
sVdirector
p580
VEarl Hurd
p581
sVcast
p582
(lp583
sVlength
p584
g3
sVrating_count
p585
g3
sVstoryline
p586
g3
sVstars
p587
(lp588
sVyear
p589
V1916
p590
sVgenre
p591
(lp592
VAnimation
p593
aVComedy
p594
aVShort
p595
asVtrailer
p596
(lp597
sVmetadata
p598
(dp599
Vasp_retio
p600
g3
sVsound_mix
p601
(lp602
VSilent
p603
asVgross
p604
g3
sVcountries
p605
(lp606
VUSA
p607
asVbudget
p608
g3
sVlanguages
p609
(lp610
sVfilming_locations
p611
(lp612
sValso_known_as
p613
(lp614
ssa(dp615
Vrating
p616
g3
sVdescription
p617
g3
sVtitle
p618
VBobby Bumps Helps a Book Agent
p619
sVurl
p620
(dp621
Vurl
p622
Vhttp://www.imdb.com/title/tt6446
p623
ssVposter
p624
(dp625
Vlarge
p626
Vhttp://ia.media-imdb.com/images/G/01/imdb/images/logos/imdb_fb_logo-1730868325._CB514892123_.png_V1_.jpg
p627
sVthumb
p628
g3
ssVrelease_date
p629
V1916-12-14
p630
sVcontent_rating
p631
g3
sVoriginal_title
p632
g3
sVwriters
p633
(lp634
VEarl Hurd
p635
asVimdb_id
p636
Vtt0006446
p637
sVdirector
p638
VEarl Hurd
p639
sVcast
p640
(lp641
sVlength
p642
g3
sVrating_count
p643
g3
sVstoryline
p644
g3
sVstars
p645
(lp646
sVyear
p647
V1916
p648
sVgenre
p649
(lp650
VAnimation
p651
aVComedy
p652
aVShort
p653
asVtrailer
p654
(lp655
sVmetadata
p656
(dp657
Vasp_retio
p658
V1.33 : 1
p659
sVsound_mix
p660
(lp661
VSilent
p662
asVgross
p663
g3
sVcountries
p664
(lp665
VUSA
p666
asVbudget
p667
g3
sVlanguages
p668
(lp669
sVfilming_locations
p670
(lp671
sValso_known_as
p672
(lp673
ssa(dp674
Vrating
p675
g3
sVdescription
p676
g3
sVtitle
p677
VBobby Bumps Loses His Pup
p678
sVurl
p679
(dp680
Vurl
p681
Vhttp://www.imdb.com/title/tt6447
p682
ssVposter
p683
(dp684
Vlarge
p685
Vhttp://ia.media-imdb.com/images/G/01/imdb/images/logos/imdb_fb_logo-1730868325._CB514892123_.png_V1_.jpg
p686
sVthumb
p687
g3
ssVrelease_date
p688
V1916-08-17
p689
sVcontent_rating
p690
g3
sVoriginal_title
p691
g3
sVwriters
p692
(lp693
VEarl Hurd
p694
asVimdb_id
p695
Vtt0006447
p696
sVdirector
p697
VEarl Hurd
p698
sVcast
p699
(lp700
sVlength
p701
g3
sVrating_count
p702
g3
sVstoryline
p703
g3
sVstars
p704
(lp705
sVyear
p706
V1916
p707
sVgenre
p708
(lp709
VAnimation
p710
aVComedy
p711
aVShort
p712
asVtrailer
p713
(lp714
sVmetadata
p715
(dp716
Vasp_retio
p717
V1.33 : 1
p718
sVsound_mix
p719
(lp720
VSilent
p721
asVgross
p722
g3
sVcountries
p723
(lp724
VUSA
p725
asVbudget
p726
g3
sVlanguages
p727
(lp728
sVfilming_locations
p729
(lp730
sValso_known_as
p731
(lp732
ssa(dp733
Vrating
p734
g3
sVdescription
p735
g3
sVtitle
p736
VBobby Bumps Queers the Choir
p737
sVurl
p738
(dp739
Vurl
p740
Vhttp://www.imdb.com/title/tt6448
p741
ssVposter
p742
(dp743
Vlarge
p744
Vhttp://ia.media-imdb.com/images/G/01/imdb/images/logos/imdb_fb_logo-1730868325._CB514892123_.png_V1_.jpg
p745
sVthumb
p746
g3
ssVrelease_date
p747
V1916-11-22
p748
sVcontent_rating
p749
g3
sVoriginal_title
p750
g3
sVwriters
p751
(lp752
VEarl Hurd
p753
asVimdb_id
p754
Vtt0006448
p755
sVdirector
p756
VEarl Hurd
p757
sVcast
p758
(lp759
sVlength
p760
g3
sVrating_count
p761
g3
sVstoryline
p762
g3
sVstars
p763
(lp764
sVyear
p765
V1916
p766
sVgenre
p767
(lp768
VAnimation
p769
aVComedy
p770
aVShort
p771
asVtrailer
p772
(lp773
sVmetadata
p774
(dp775
Vasp_retio
p776
V1.33 : 1
p777
sVsound_mix
p778
(lp779
VSilent
p780
asVgross
p781
g3
sVcountries
p782
(lp783
VUSA
p784
asVbudget
p785
g3
sVlanguages
p786
(lp787
sVfilming_locations
p788
(lp789
sValso_known_as
p790
(lp791
ssa(dp792
Vrating
p793
V5.6
p794
sVdescription
p795
VBratty Bobby Bumps tells his friend that he's starting a lodge in order to trick him. But Bobby soon gets his comeuppance when they encounter a bear!
p796
sVtitle
p797
VBobby Bumps Starts a Lodge
p798
sVurl
p799
(dp800
Vurl
p801
Vhttp://www.imdb.com/title/tt6449
p802
ssVposter
p803
(dp804
Vlarge
p805
Vhttps://images-na.ssl-images-amazon.com/images/M/MV5BMTczODU3MTUxNF5BMl5BanBnXkFtZTcwNjgyOTAyMQ@@._V1_.jpg
p806
sVthumb
p807
Vhttps://images-na.ssl-images-amazon.com/images/M/MV5BMTczODU3MTUxNF5BMl5BanBnXkFtZTcwNjgyOTAyMQ@@._V1_UX182_CR0,0,182,268_AL_.jpg
p808
ssVrelease_date
p809
V1916-09-28
p810
sVcontent_rating
p811
g3
sVoriginal_title
p812
g3
sVwriters
p813
(lp814
VEarl Hurd
p815
asVimdb_id
p816
Vtt0006449
p817
sVdirector
p818
VEarl Hurd
p819
sVcast
p820
(lp821
sVlength
p822
V5
p823
sVrating_count
p824
V90
p825
sVstoryline
p826
VBobby Bumps invited his black neighbor to join his "lodge." But first he has to be initiated. The neighbor cleverly avoids getting rammed in the behind by Bobby's goat, but as he's running away, finds himself in a precarious position with a wild bear. Bobby saved his friend, but quickly he finds himself in an even worse situation with the bear and needs the friend to return the favor. They both agree to be initiated together, and the final joke is on Bobby's poor goat.
p827
sVstars
p828
(lp829
sVyear
p830
V1916
p831
sVgenre
p832
(lp833
VAnimation
p834
aVComedy
p835
aVShort
p836
asVtrailer
p837
(lp838
sVmetadata
p839
(dp840
Vasp_retio
p841
V1.33 : 1
p842
sVsound_mix
p843
(lp844
VSilent
p845
asVgross
p846
g3
sVcountries
p847
(lp848
VUSA
p849
asVbudget
p850
g3
sVlanguages
p851
(lp852
sVfilming_locations
p853
(lp854
sValso_known_as
p855
(lp856
ssa.